
mic_pay.elf:     file format elf32-avr

Sections:
Idx Name          Size      VMA       LMA       File off  Algn
  0 .data         000002b2  00800100  000014a8  0000153c  2**0
                  CONTENTS, ALLOC, LOAD, DATA
  1 .text         000014a8  00000000  00000000  00000094  2**1
                  CONTENTS, ALLOC, LOAD, READONLY, CODE
  2 .bss          00000002  008003b2  008003b2  000017ee  2**0
                  ALLOC
  3 .comment      00000030  00000000  00000000  000017ee  2**0
                  CONTENTS, READONLY
  4 .note.gnu.avr.deviceinfo 00000040  00000000  00000000  00001820  2**2
                  CONTENTS, READONLY
  5 .debug_aranges 000001f8  00000000  00000000  00001860  2**0
                  CONTENTS, READONLY, DEBUGGING
  6 .debug_info   00002c64  00000000  00000000  00001a58  2**0
                  CONTENTS, READONLY, DEBUGGING
  7 .debug_abbrev 000008ed  00000000  00000000  000046bc  2**0
                  CONTENTS, READONLY, DEBUGGING
  8 .debug_line   00001762  00000000  00000000  00004fa9  2**0
                  CONTENTS, READONLY, DEBUGGING
  9 .debug_frame  00000664  00000000  00000000  0000670c  2**2
                  CONTENTS, READONLY, DEBUGGING
 10 .debug_str    000007f0  00000000  00000000  00006d70  2**0
                  CONTENTS, READONLY, DEBUGGING
 11 .debug_loc    00001e49  00000000  00000000  00007560  2**0
                  CONTENTS, READONLY, DEBUGGING
 12 .debug_ranges 00000200  00000000  00000000  000093a9  2**0
                  CONTENTS, READONLY, DEBUGGING

Disassembly of section .text:

00000000 <__vectors>:
       0:	0c 94 40 00 	jmp	0x80	; 0x80 <__ctors_end>
       4:	0c 94 5d 00 	jmp	0xba	; 0xba <__bad_interrupt>
       8:	0c 94 5d 00 	jmp	0xba	; 0xba <__bad_interrupt>
       c:	0c 94 5d 00 	jmp	0xba	; 0xba <__bad_interrupt>
      10:	0c 94 5d 00 	jmp	0xba	; 0xba <__bad_interrupt>
      14:	0c 94 5d 00 	jmp	0xba	; 0xba <__bad_interrupt>
      18:	0c 94 5d 00 	jmp	0xba	; 0xba <__bad_interrupt>
      1c:	0c 94 5d 00 	jmp	0xba	; 0xba <__bad_interrupt>
      20:	0c 94 5d 00 	jmp	0xba	; 0xba <__bad_interrupt>
      24:	0c 94 5d 00 	jmp	0xba	; 0xba <__bad_interrupt>
      28:	0c 94 5d 00 	jmp	0xba	; 0xba <__bad_interrupt>
      2c:	0c 94 97 09 	jmp	0x132e	; 0x132e <__vector_11>
      30:	0c 94 5d 00 	jmp	0xba	; 0xba <__bad_interrupt>
      34:	0c 94 5d 00 	jmp	0xba	; 0xba <__bad_interrupt>
      38:	0c 94 5d 00 	jmp	0xba	; 0xba <__bad_interrupt>
      3c:	0c 94 5d 00 	jmp	0xba	; 0xba <__bad_interrupt>
      40:	0c 94 5d 00 	jmp	0xba	; 0xba <__bad_interrupt>
      44:	0c 94 5d 00 	jmp	0xba	; 0xba <__bad_interrupt>
      48:	0c 94 5d 00 	jmp	0xba	; 0xba <__bad_interrupt>
      4c:	0c 94 5d 00 	jmp	0xba	; 0xba <__bad_interrupt>
      50:	0c 94 5d 00 	jmp	0xba	; 0xba <__bad_interrupt>
      54:	0c 94 5d 00 	jmp	0xba	; 0xba <__bad_interrupt>
      58:	0c 94 5d 00 	jmp	0xba	; 0xba <__bad_interrupt>
      5c:	0c 94 5d 00 	jmp	0xba	; 0xba <__bad_interrupt>
      60:	0c 94 5d 00 	jmp	0xba	; 0xba <__bad_interrupt>
      64:	0c 94 5d 00 	jmp	0xba	; 0xba <__bad_interrupt>
      68:	bb 00       	.word	0x00bb	; ????
      6a:	d3 00       	.word	0x00d3	; ????
      6c:	bd 00       	.word	0x00bd	; ????
      6e:	bf 00       	.word	0x00bf	; ????
      70:	c1 00       	.word	0x00c1	; ????
      72:	c3 00       	.word	0x00c3	; ????
      74:	c5 00       	.word	0x00c5	; ????
      76:	c7 00       	.word	0x00c7	; ????
      78:	c9 00       	.word	0x00c9	; ????
      7a:	cb 00       	.word	0x00cb	; ????
      7c:	cd 00       	.word	0x00cd	; ????
      7e:	cf 00       	.word	0x00cf	; ????

00000080 <__ctors_end>:
      80:	11 24       	eor	r1, r1
      82:	1f be       	out	0x3f, r1	; 63
      84:	cf ef       	ldi	r28, 0xFF	; 255
      86:	d8 e0       	ldi	r29, 0x08	; 8
      88:	de bf       	out	0x3e, r29	; 62
      8a:	cd bf       	out	0x3d, r28	; 61

0000008c <__do_copy_data>:
      8c:	13 e0       	ldi	r17, 0x03	; 3
      8e:	a0 e0       	ldi	r26, 0x00	; 0
      90:	b1 e0       	ldi	r27, 0x01	; 1
      92:	e8 ea       	ldi	r30, 0xA8	; 168
      94:	f4 e1       	ldi	r31, 0x14	; 20
      96:	02 c0       	rjmp	.+4      	; 0x9c <__do_copy_data+0x10>
      98:	05 90       	lpm	r0, Z+
      9a:	0d 92       	st	X+, r0
      9c:	a2 3b       	cpi	r26, 0xB2	; 178
      9e:	b1 07       	cpc	r27, r17
      a0:	d9 f7       	brne	.-10     	; 0x98 <__do_copy_data+0xc>

000000a2 <__do_clear_bss>:
      a2:	23 e0       	ldi	r18, 0x03	; 3
      a4:	a2 eb       	ldi	r26, 0xB2	; 178
      a6:	b3 e0       	ldi	r27, 0x03	; 3
      a8:	01 c0       	rjmp	.+2      	; 0xac <.do_clear_bss_start>

000000aa <.do_clear_bss_loop>:
      aa:	1d 92       	st	X+, r1

000000ac <.do_clear_bss_start>:
      ac:	a4 3b       	cpi	r26, 0xB4	; 180
      ae:	b2 07       	cpc	r27, r18
      b0:	e1 f7       	brne	.-8      	; 0xaa <.do_clear_bss_loop>
      b2:	0e 94 f7 09 	call	0x13ee	; 0x13ee <main>
      b6:	0c 94 52 0a 	jmp	0x14a4	; 0x14a4 <_exit>

000000ba <__bad_interrupt>:
      ba:	0c 94 00 00 	jmp	0	; 0x0 <__vectors>

000000be <tecla_lida>:
		writeString("hab     -2");
}

char getOperStatus(char oper){
	return statusOperadores[(int)oper - 1];
}
      be:	87 b1       	in	r24, 0x07	; 7
      c0:	80 7f       	andi	r24, 0xF0	; 240
      c2:	87 b9       	out	0x07, r24	; 7
      c4:	8a b1       	in	r24, 0x0a	; 10
      c6:	8f 78       	andi	r24, 0x8F	; 143
      c8:	8a b9       	out	0x0a, r24	; 10
      ca:	88 b1       	in	r24, 0x08	; 8
      cc:	8f 60       	ori	r24, 0x0F	; 15
      ce:	88 b9       	out	0x08, r24	; 8
      d0:	80 e0       	ldi	r24, 0x00	; 0
      d2:	26 c0       	rjmp	.+76     	; 0x120 <tecla_lida+0x62>
      d4:	9a b1       	in	r25, 0x0a	; 10
      d6:	20 e1       	ldi	r18, 0x10	; 16
      d8:	30 e0       	ldi	r19, 0x00	; 0
      da:	08 2e       	mov	r0, r24
      dc:	02 c0       	rjmp	.+4      	; 0xe2 <tecla_lida+0x24>
      de:	22 0f       	add	r18, r18
      e0:	33 1f       	adc	r19, r19
      e2:	0a 94       	dec	r0
      e4:	e2 f7       	brpl	.-8      	; 0xde <tecla_lida+0x20>
      e6:	29 2b       	or	r18, r25
      e8:	2a b9       	out	0x0a, r18	; 10
      ea:	e7 ec       	ldi	r30, 0xC7	; 199
      ec:	f0 e0       	ldi	r31, 0x00	; 0
      ee:	31 97       	sbiw	r30, 0x01	; 1
      f0:	f1 f7       	brne	.-4      	; 0xee <tecla_lida+0x30>
      f2:	00 c0       	rjmp	.+0      	; 0xf4 <tecla_lida+0x36>
      f4:	00 00       	nop
      f6:	90 e0       	ldi	r25, 0x00	; 0
      f8:	10 c0       	rjmp	.+32     	; 0x11a <tecla_lida+0x5c>
      fa:	26 b1       	in	r18, 0x06	; 6
      fc:	30 e0       	ldi	r19, 0x00	; 0
      fe:	09 2e       	mov	r0, r25
     100:	02 c0       	rjmp	.+4      	; 0x106 <tecla_lida+0x48>
     102:	35 95       	asr	r19
     104:	27 95       	ror	r18
     106:	0a 94       	dec	r0
     108:	e2 f7       	brpl	.-8      	; 0x102 <tecla_lida+0x44>
     10a:	20 fd       	sbrc	r18, 0
     10c:	05 c0       	rjmp	.+10     	; 0x118 <tecla_lida+0x5a>
     10e:	29 2f       	mov	r18, r25
     110:	22 0f       	add	r18, r18
     112:	92 0f       	add	r25, r18
     114:	89 0f       	add	r24, r25
     116:	08 95       	ret
     118:	9f 5f       	subi	r25, 0xFF	; 255
     11a:	94 30       	cpi	r25, 0x04	; 4
     11c:	70 f3       	brcs	.-36     	; 0xfa <tecla_lida+0x3c>
     11e:	8f 5f       	subi	r24, 0xFF	; 255
     120:	83 30       	cpi	r24, 0x03	; 3
     122:	c0 f2       	brcs	.-80     	; 0xd4 <tecla_lida+0x16>
     124:	89 e1       	ldi	r24, 0x19	; 25
     126:	08 95       	ret

00000128 <teclaDebouce>:
     128:	1f 93       	push	r17
     12a:	cf 93       	push	r28
     12c:	df 93       	push	r29
     12e:	0e 94 5f 00 	call	0xbe	; 0xbe <tecla_lida>
     132:	18 2f       	mov	r17, r24
     134:	d0 e0       	ldi	r29, 0x00	; 0
     136:	0f c0       	rjmp	.+30     	; 0x156 <teclaDebouce+0x2e>
     138:	8f e7       	ldi	r24, 0x7F	; 127
     13a:	9e e3       	ldi	r25, 0x3E	; 62
     13c:	01 97       	sbiw	r24, 0x01	; 1
     13e:	f1 f7       	brne	.-4      	; 0x13c <teclaDebouce+0x14>
     140:	00 c0       	rjmp	.+0      	; 0x142 <teclaDebouce+0x1a>
     142:	00 00       	nop
     144:	0e 94 5f 00 	call	0xbe	; 0xbe <tecla_lida>
     148:	c8 2f       	mov	r28, r24
     14a:	18 13       	cpse	r17, r24
     14c:	02 c0       	rjmp	.+4      	; 0x152 <teclaDebouce+0x2a>
     14e:	df 5f       	subi	r29, 0xFF	; 255
     150:	01 c0       	rjmp	.+2      	; 0x154 <teclaDebouce+0x2c>
     152:	d0 e0       	ldi	r29, 0x00	; 0
     154:	1c 2f       	mov	r17, r28
     156:	da 30       	cpi	r29, 0x0A	; 10
     158:	78 f3       	brcs	.-34     	; 0x138 <teclaDebouce+0x10>
     15a:	8c 2f       	mov	r24, r28
     15c:	df 91       	pop	r29
     15e:	cf 91       	pop	r28
     160:	1f 91       	pop	r17
     162:	08 95       	ret

00000164 <acao_tecla>:
     164:	90 e0       	ldi	r25, 0x00	; 0
     166:	8c 30       	cpi	r24, 0x0C	; 12
     168:	91 05       	cpc	r25, r1
     16a:	d8 f4       	brcc	.+54     	; 0x1a2 <acao_tecla+0x3e>
     16c:	fc 01       	movw	r30, r24
     16e:	ec 5c       	subi	r30, 0xCC	; 204
     170:	ff 4f       	sbci	r31, 0xFF	; 255
     172:	0c 94 4c 0a 	jmp	0x1498	; 0x1498 <__tablejump2__>
     176:	81 e0       	ldi	r24, 0x01	; 1
     178:	08 95       	ret
     17a:	83 e0       	ldi	r24, 0x03	; 3
     17c:	08 95       	ret
     17e:	84 e0       	ldi	r24, 0x04	; 4
     180:	08 95       	ret
     182:	85 e0       	ldi	r24, 0x05	; 5
     184:	08 95       	ret
     186:	86 e0       	ldi	r24, 0x06	; 6
     188:	08 95       	ret
     18a:	87 e0       	ldi	r24, 0x07	; 7
     18c:	08 95       	ret
     18e:	88 e0       	ldi	r24, 0x08	; 8
     190:	08 95       	ret
     192:	89 e0       	ldi	r24, 0x09	; 9
     194:	08 95       	ret
     196:	8a e0       	ldi	r24, 0x0A	; 10
     198:	08 95       	ret
     19a:	8b e0       	ldi	r24, 0x0B	; 11
     19c:	08 95       	ret
     19e:	8c e0       	ldi	r24, 0x0C	; 12
     1a0:	08 95       	ret
     1a2:	89 e1       	ldi	r24, 0x19	; 25
     1a4:	08 95       	ret
     1a6:	82 e0       	ldi	r24, 0x02	; 2
     1a8:	08 95       	ret

000001aa <USART_INIT>:
     1aa:	90 93 c5 00 	sts	0x00C5, r25	; 0x8000c5 <__TEXT_REGION_LENGTH__+0x7f80c5>
     1ae:	80 93 c4 00 	sts	0x00C4, r24	; 0x8000c4 <__TEXT_REGION_LENGTH__+0x7f80c4>
     1b2:	88 e1       	ldi	r24, 0x18	; 24
     1b4:	80 93 c1 00 	sts	0x00C1, r24	; 0x8000c1 <__TEXT_REGION_LENGTH__+0x7f80c1>
     1b8:	89 e0       	ldi	r24, 0x09	; 9
     1ba:	80 93 c2 00 	sts	0x00C2, r24	; 0x8000c2 <__TEXT_REGION_LENGTH__+0x7f80c2>
     1be:	08 95       	ret

000001c0 <USART_envia>:
     1c0:	90 91 c0 00 	lds	r25, 0x00C0	; 0x8000c0 <__TEXT_REGION_LENGTH__+0x7f80c0>
     1c4:	95 ff       	sbrs	r25, 5
     1c6:	fc cf       	rjmp	.-8      	; 0x1c0 <USART_envia>
     1c8:	80 93 c6 00 	sts	0x00C6, r24	; 0x8000c6 <__TEXT_REGION_LENGTH__+0x7f80c6>
     1cc:	08 95       	ret

000001ce <USART_recebe>:
     1ce:	80 91 c0 00 	lds	r24, 0x00C0	; 0x8000c0 <__TEXT_REGION_LENGTH__+0x7f80c0>
     1d2:	88 23       	and	r24, r24
     1d4:	e4 f7       	brge	.-8      	; 0x1ce <USART_recebe>
     1d6:	80 91 c6 00 	lds	r24, 0x00C6	; 0x8000c6 <__TEXT_REGION_LENGTH__+0x7f80c6>
     1da:	08 95       	ret

000001dc <write>:
     1dc:	95 b1       	in	r25, 0x05	; 5
     1de:	9f 77       	andi	r25, 0x7F	; 127
     1e0:	95 b9       	out	0x05, r25	; 5
     1e2:	95 b1       	in	r25, 0x05	; 5
     1e4:	9f 7b       	andi	r25, 0xBF	; 191
     1e6:	95 b9       	out	0x05, r25	; 5
     1e8:	95 b1       	in	r25, 0x05	; 5
     1ea:	9f 7d       	andi	r25, 0xDF	; 223
     1ec:	95 b9       	out	0x05, r25	; 5
     1ee:	95 b1       	in	r25, 0x05	; 5
     1f0:	9f 7e       	andi	r25, 0xEF	; 239
     1f2:	95 b9       	out	0x05, r25	; 5
     1f4:	88 23       	and	r24, r24
     1f6:	1c f4       	brge	.+6      	; 0x1fe <write+0x22>
     1f8:	95 b1       	in	r25, 0x05	; 5
     1fa:	90 68       	ori	r25, 0x80	; 128
     1fc:	95 b9       	out	0x05, r25	; 5
     1fe:	86 ff       	sbrs	r24, 6
     200:	03 c0       	rjmp	.+6      	; 0x208 <write+0x2c>
     202:	95 b1       	in	r25, 0x05	; 5
     204:	90 64       	ori	r25, 0x40	; 64
     206:	95 b9       	out	0x05, r25	; 5
     208:	85 ff       	sbrs	r24, 5
     20a:	03 c0       	rjmp	.+6      	; 0x212 <write+0x36>
     20c:	95 b1       	in	r25, 0x05	; 5
     20e:	90 62       	ori	r25, 0x20	; 32
     210:	95 b9       	out	0x05, r25	; 5
     212:	84 ff       	sbrs	r24, 4
     214:	03 c0       	rjmp	.+6      	; 0x21c <write+0x40>
     216:	85 b1       	in	r24, 0x05	; 5
     218:	80 61       	ori	r24, 0x10	; 16
     21a:	85 b9       	out	0x05, r24	; 5
     21c:	85 b1       	in	r24, 0x05	; 5
     21e:	82 60       	ori	r24, 0x02	; 2
     220:	85 b9       	out	0x05, r24	; 5
     222:	85 e0       	ldi	r24, 0x05	; 5
     224:	8a 95       	dec	r24
     226:	f1 f7       	brne	.-4      	; 0x224 <write+0x48>
     228:	00 00       	nop
     22a:	85 b1       	in	r24, 0x05	; 5
     22c:	8d 7f       	andi	r24, 0xFD	; 253
     22e:	85 b9       	out	0x05, r24	; 5
     230:	85 e0       	ldi	r24, 0x05	; 5
     232:	8a 95       	dec	r24
     234:	f1 f7       	brne	.-4      	; 0x232 <write+0x56>
     236:	00 00       	nop
     238:	08 95       	ret

0000023a <writeCharacter>:
     23a:	cf 93       	push	r28
     23c:	c8 2f       	mov	r28, r24
     23e:	85 b1       	in	r24, 0x05	; 5
     240:	81 60       	ori	r24, 0x01	; 1
     242:	85 b9       	out	0x05, r24	; 5
     244:	85 b1       	in	r24, 0x05	; 5
     246:	8d 7f       	andi	r24, 0xFD	; 253
     248:	85 b9       	out	0x05, r24	; 5
     24a:	8c 2f       	mov	r24, r28
     24c:	0e 94 ee 00 	call	0x1dc	; 0x1dc <write>
     250:	8c 2f       	mov	r24, r28
     252:	82 95       	swap	r24
     254:	80 7f       	andi	r24, 0xF0	; 240
     256:	0e 94 ee 00 	call	0x1dc	; 0x1dc <write>
     25a:	cf 91       	pop	r28
     25c:	08 95       	ret

0000025e <writeString>:
     25e:	0f 93       	push	r16
     260:	1f 93       	push	r17
     262:	cf 93       	push	r28
     264:	df 93       	push	r29
     266:	00 d0       	rcall	.+0      	; 0x268 <writeString+0xa>
     268:	cd b7       	in	r28, 0x3d	; 61
     26a:	de b7       	in	r29, 0x3e	; 62
     26c:	8c 01       	movw	r16, r24
     26e:	1a 82       	std	Y+2, r1	; 0x02
     270:	19 82       	std	Y+1, r1	; 0x01
     272:	10 c0       	rjmp	.+32     	; 0x294 <writeString+0x36>
     274:	e9 81       	ldd	r30, Y+1	; 0x01
     276:	fa 81       	ldd	r31, Y+2	; 0x02
     278:	e0 0f       	add	r30, r16
     27a:	f1 1f       	adc	r31, r17
     27c:	80 81       	ld	r24, Z
     27e:	0e 94 1d 01 	call	0x23a	; 0x23a <writeCharacter>
     282:	89 81       	ldd	r24, Y+1	; 0x01
     284:	9a 81       	ldd	r25, Y+2	; 0x02
     286:	01 96       	adiw	r24, 0x01	; 1
     288:	9a 83       	std	Y+2, r25	; 0x02
     28a:	89 83       	std	Y+1, r24	; 0x01
     28c:	85 ed       	ldi	r24, 0xD5	; 213
     28e:	8a 95       	dec	r24
     290:	f1 f7       	brne	.-4      	; 0x28e <writeString+0x30>
     292:	00 00       	nop
     294:	e9 81       	ldd	r30, Y+1	; 0x01
     296:	fa 81       	ldd	r31, Y+2	; 0x02
     298:	e0 0f       	add	r30, r16
     29a:	f1 1f       	adc	r31, r17
     29c:	80 81       	ld	r24, Z
     29e:	81 11       	cpse	r24, r1
     2a0:	e9 cf       	rjmp	.-46     	; 0x274 <writeString+0x16>
     2a2:	0f 90       	pop	r0
     2a4:	0f 90       	pop	r0
     2a6:	df 91       	pop	r29
     2a8:	cf 91       	pop	r28
     2aa:	1f 91       	pop	r17
     2ac:	0f 91       	pop	r16
     2ae:	08 95       	ret

000002b0 <writeInstruction>:
     2b0:	cf 93       	push	r28
     2b2:	c8 2f       	mov	r28, r24
     2b4:	85 b1       	in	r24, 0x05	; 5
     2b6:	8e 7f       	andi	r24, 0xFE	; 254
     2b8:	85 b9       	out	0x05, r24	; 5
     2ba:	85 b1       	in	r24, 0x05	; 5
     2bc:	8d 7f       	andi	r24, 0xFD	; 253
     2be:	85 b9       	out	0x05, r24	; 5
     2c0:	8c 2f       	mov	r24, r28
     2c2:	0e 94 ee 00 	call	0x1dc	; 0x1dc <write>
     2c6:	8c 2f       	mov	r24, r28
     2c8:	82 95       	swap	r24
     2ca:	80 7f       	andi	r24, 0xF0	; 240
     2cc:	0e 94 ee 00 	call	0x1dc	; 0x1dc <write>
     2d0:	85 ed       	ldi	r24, 0xD5	; 213
     2d2:	8a 95       	dec	r24
     2d4:	f1 f7       	brne	.-4      	; 0x2d2 <writeInstruction+0x22>
     2d6:	00 00       	nop
     2d8:	cf 91       	pop	r28
     2da:	08 95       	ret

000002dc <setup_lcd>:
     2dc:	83 ef       	ldi	r24, 0xF3	; 243
     2de:	84 b9       	out	0x04, r24	; 4
     2e0:	85 b1       	in	r24, 0x05	; 5
     2e2:	8e 7f       	andi	r24, 0xFE	; 254
     2e4:	85 b9       	out	0x05, r24	; 5
     2e6:	85 b1       	in	r24, 0x05	; 5
     2e8:	8d 7f       	andi	r24, 0xFD	; 253
     2ea:	85 b9       	out	0x05, r24	; 5
     2ec:	80 e3       	ldi	r24, 0x30	; 48
     2ee:	0e 94 ee 00 	call	0x1dc	; 0x1dc <write>
     2f2:	8f e3       	ldi	r24, 0x3F	; 63
     2f4:	9c e9       	ldi	r25, 0x9C	; 156
     2f6:	01 97       	sbiw	r24, 0x01	; 1
     2f8:	f1 f7       	brne	.-4      	; 0x2f6 <setup_lcd+0x1a>
     2fa:	00 c0       	rjmp	.+0      	; 0x2fc <setup_lcd+0x20>
     2fc:	00 00       	nop
     2fe:	88 e2       	ldi	r24, 0x28	; 40
     300:	0e 94 ee 00 	call	0x1dc	; 0x1dc <write>
     304:	95 ed       	ldi	r25, 0xD5	; 213
     306:	9a 95       	dec	r25
     308:	f1 f7       	brne	.-4      	; 0x306 <setup_lcd+0x2a>
     30a:	00 00       	nop
     30c:	88 e2       	ldi	r24, 0x28	; 40
     30e:	0e 94 58 01 	call	0x2b0	; 0x2b0 <writeInstruction>
     312:	88 e0       	ldi	r24, 0x08	; 8
     314:	0e 94 58 01 	call	0x2b0	; 0x2b0 <writeInstruction>
     318:	81 e0       	ldi	r24, 0x01	; 1
     31a:	0e 94 58 01 	call	0x2b0	; 0x2b0 <writeInstruction>
     31e:	86 e0       	ldi	r24, 0x06	; 6
     320:	0e 94 58 01 	call	0x2b0	; 0x2b0 <writeInstruction>
     324:	08 95       	ret

00000326 <formata_valor>:
     326:	dc 01       	movw	r26, r24
     328:	14 96       	adiw	r26, 0x04	; 4
     32a:	8c 91       	ld	r24, X
     32c:	14 97       	sbiw	r26, 0x04	; 4
     32e:	80 33       	cpi	r24, 0x30	; 48
     330:	c9 f0       	breq	.+50     	; 0x364 <formata_valor+0x3e>
     332:	13 96       	adiw	r26, 0x03	; 3
     334:	9c 91       	ld	r25, X
     336:	13 97       	sbiw	r26, 0x03	; 3
     338:	90 32       	cpi	r25, 0x20	; 32
     33a:	a1 f4       	brne	.+40     	; 0x364 <formata_valor+0x3e>
     33c:	12 96       	adiw	r26, 0x02	; 2
     33e:	9c 91       	ld	r25, X
     340:	12 97       	sbiw	r26, 0x02	; 2
     342:	90 32       	cpi	r25, 0x20	; 32
     344:	79 f4       	brne	.+30     	; 0x364 <formata_valor+0x3e>
     346:	11 96       	adiw	r26, 0x01	; 1
     348:	9c 91       	ld	r25, X
     34a:	11 97       	sbiw	r26, 0x01	; 1
     34c:	90 32       	cpi	r25, 0x20	; 32
     34e:	51 f4       	brne	.+20     	; 0x364 <formata_valor+0x3e>
     350:	9c 91       	ld	r25, X
     352:	90 32       	cpi	r25, 0x20	; 32
     354:	39 f4       	brne	.+14     	; 0x364 <formata_valor+0x3e>
     356:	12 96       	adiw	r26, 0x02	; 2
     358:	8c 93       	st	X, r24
     35a:	12 97       	sbiw	r26, 0x02	; 2
     35c:	80 e2       	ldi	r24, 0x20	; 32
     35e:	14 96       	adiw	r26, 0x04	; 4
     360:	8c 93       	st	X, r24
     362:	14 97       	sbiw	r26, 0x04	; 4
     364:	14 96       	adiw	r26, 0x04	; 4
     366:	8c 91       	ld	r24, X
     368:	14 97       	sbiw	r26, 0x04	; 4
     36a:	80 32       	cpi	r24, 0x20	; 32
     36c:	e1 f0       	breq	.+56     	; 0x3a6 <formata_valor+0x80>
     36e:	13 96       	adiw	r26, 0x03	; 3
     370:	9c 91       	ld	r25, X
     372:	13 97       	sbiw	r26, 0x03	; 3
     374:	90 32       	cpi	r25, 0x20	; 32
     376:	b9 f0       	breq	.+46     	; 0x3a6 <formata_valor+0x80>
     378:	12 96       	adiw	r26, 0x02	; 2
     37a:	2c 91       	ld	r18, X
     37c:	12 97       	sbiw	r26, 0x02	; 2
     37e:	20 32       	cpi	r18, 0x20	; 32
     380:	91 f4       	brne	.+36     	; 0x3a6 <formata_valor+0x80>
     382:	11 96       	adiw	r26, 0x01	; 1
     384:	2c 91       	ld	r18, X
     386:	11 97       	sbiw	r26, 0x01	; 1
     388:	20 32       	cpi	r18, 0x20	; 32
     38a:	69 f4       	brne	.+26     	; 0x3a6 <formata_valor+0x80>
     38c:	2c 91       	ld	r18, X
     38e:	20 32       	cpi	r18, 0x20	; 32
     390:	51 f4       	brne	.+20     	; 0x3a6 <formata_valor+0x80>
     392:	12 96       	adiw	r26, 0x02	; 2
     394:	9c 93       	st	X, r25
     396:	12 97       	sbiw	r26, 0x02	; 2
     398:	13 96       	adiw	r26, 0x03	; 3
     39a:	8c 93       	st	X, r24
     39c:	13 97       	sbiw	r26, 0x03	; 3
     39e:	80 e2       	ldi	r24, 0x20	; 32
     3a0:	14 96       	adiw	r26, 0x04	; 4
     3a2:	8c 93       	st	X, r24
     3a4:	14 97       	sbiw	r26, 0x04	; 4
     3a6:	20 e0       	ldi	r18, 0x00	; 0
     3a8:	30 e0       	ldi	r19, 0x00	; 0
     3aa:	0c c0       	rjmp	.+24     	; 0x3c4 <formata_valor+0x9e>
     3ac:	c9 01       	movw	r24, r18
     3ae:	fd 01       	movw	r30, r26
     3b0:	e2 0f       	add	r30, r18
     3b2:	f3 1f       	adc	r31, r19
     3b4:	20 81       	ld	r18, Z
     3b6:	20 32       	cpi	r18, 0x20	; 32
     3b8:	11 f4       	brne	.+4      	; 0x3be <formata_valor+0x98>
     3ba:	20 e3       	ldi	r18, 0x30	; 48
     3bc:	20 83       	st	Z, r18
     3be:	9c 01       	movw	r18, r24
     3c0:	2f 5f       	subi	r18, 0xFF	; 255
     3c2:	3f 4f       	sbci	r19, 0xFF	; 255
     3c4:	25 30       	cpi	r18, 0x05	; 5
     3c6:	31 05       	cpc	r19, r1
     3c8:	8c f3       	brlt	.-30     	; 0x3ac <formata_valor+0x86>
     3ca:	08 95       	ret

000003cc <recebe_valor>:
     3cc:	ef 92       	push	r14
     3ce:	ff 92       	push	r15
     3d0:	0f 93       	push	r16
     3d2:	1f 93       	push	r17
     3d4:	cf 93       	push	r28
     3d6:	df 93       	push	r29
     3d8:	7c 01       	movw	r14, r24
     3da:	00 e0       	ldi	r16, 0x00	; 0
     3dc:	10 e0       	ldi	r17, 0x00	; 0
     3de:	0e 94 94 00 	call	0x128	; 0x128 <teclaDebouce>
     3e2:	89 31       	cpi	r24, 0x19	; 25
     3e4:	e1 f3       	breq	.-8      	; 0x3de <recebe_valor+0x12>
     3e6:	c1 e3       	ldi	r28, 0x31	; 49
     3e8:	c8 0f       	add	r28, r24
     3ea:	ca 33       	cpi	r28, 0x3A	; 58
     3ec:	e1 f4       	brne	.+56     	; 0x426 <__EEPROM_REGION_LENGTH__+0x26>
     3ee:	10 16       	cp	r1, r16
     3f0:	11 06       	cpc	r1, r17
     3f2:	ac f7       	brge	.-22     	; 0x3de <recebe_valor+0x12>
     3f4:	c2 e0       	ldi	r28, 0x02	; 2
     3f6:	c0 0f       	add	r28, r16
     3f8:	c0 6c       	ori	r28, 0xC0	; 192
     3fa:	8c 2f       	mov	r24, r28
     3fc:	0e 94 58 01 	call	0x2b0	; 0x2b0 <writeInstruction>
     400:	86 e5       	ldi	r24, 0x56	; 86
     402:	92 e0       	ldi	r25, 0x02	; 2
     404:	0e 94 2f 01 	call	0x25e	; 0x25e <writeString>
     408:	8c 2f       	mov	r24, r28
     40a:	0e 94 58 01 	call	0x2b0	; 0x2b0 <writeInstruction>
     40e:	e4 e0       	ldi	r30, 0x04	; 4
     410:	f0 e0       	ldi	r31, 0x00	; 0
     412:	e0 1b       	sub	r30, r16
     414:	f1 0b       	sbc	r31, r17
     416:	31 96       	adiw	r30, 0x01	; 1
     418:	ee 0d       	add	r30, r14
     41a:	ff 1d       	adc	r31, r15
     41c:	80 e2       	ldi	r24, 0x20	; 32
     41e:	80 83       	st	Z, r24
     420:	01 50       	subi	r16, 0x01	; 1
     422:	11 09       	sbc	r17, r1
     424:	dc cf       	rjmp	.-72     	; 0x3de <recebe_valor+0x12>
     426:	cc 33       	cpi	r28, 0x3C	; 60
     428:	21 f4       	brne	.+8      	; 0x432 <__EEPROM_REGION_LENGTH__+0x32>
     42a:	f7 01       	movw	r30, r14
     42c:	85 81       	ldd	r24, Z+5	; 0x05
     42e:	80 33       	cpi	r24, 0x30	; 48
     430:	e1 f4       	brne	.+56     	; 0x46a <__EEPROM_REGION_LENGTH__+0x6a>
     432:	05 30       	cpi	r16, 0x05	; 5
     434:	11 05       	cpc	r17, r1
     436:	9c f6       	brge	.-90     	; 0x3de <recebe_valor+0x12>
     438:	cb 33       	cpi	r28, 0x3B	; 59
     43a:	09 f4       	brne	.+2      	; 0x43e <__EEPROM_REGION_LENGTH__+0x3e>
     43c:	c0 e3       	ldi	r28, 0x30	; 48
     43e:	e4 e0       	ldi	r30, 0x04	; 4
     440:	f0 e0       	ldi	r31, 0x00	; 0
     442:	e0 1b       	sub	r30, r16
     444:	f1 0b       	sbc	r31, r17
     446:	ee 0d       	add	r30, r14
     448:	ff 1d       	adc	r31, r15
     44a:	c0 83       	st	Z, r28
     44c:	d3 e0       	ldi	r29, 0x03	; 3
     44e:	d0 0f       	add	r29, r16
     450:	d0 6c       	ori	r29, 0xC0	; 192
     452:	8d 2f       	mov	r24, r29
     454:	0e 94 58 01 	call	0x2b0	; 0x2b0 <writeInstruction>
     458:	8c 2f       	mov	r24, r28
     45a:	0e 94 1d 01 	call	0x23a	; 0x23a <writeCharacter>
     45e:	8d 2f       	mov	r24, r29
     460:	0e 94 58 01 	call	0x2b0	; 0x2b0 <writeInstruction>
     464:	0f 5f       	subi	r16, 0xFF	; 255
     466:	1f 4f       	sbci	r17, 0xFF	; 255
     468:	ba cf       	rjmp	.-140    	; 0x3de <recebe_valor+0x12>
     46a:	df 91       	pop	r29
     46c:	cf 91       	pop	r28
     46e:	1f 91       	pop	r17
     470:	0f 91       	pop	r16
     472:	ff 90       	pop	r15
     474:	ef 90       	pop	r14
     476:	08 95       	ret

00000478 <validarSenha>:
     478:	ef 92       	push	r14
     47a:	ff 92       	push	r15
     47c:	0f 93       	push	r16
     47e:	1f 93       	push	r17
     480:	cf 93       	push	r28
     482:	df 93       	push	r29
     484:	7c 01       	movw	r14, r24
     486:	8b 01       	movw	r16, r22
     488:	81 e0       	ldi	r24, 0x01	; 1
     48a:	20 e0       	ldi	r18, 0x00	; 0
     48c:	30 e0       	ldi	r19, 0x00	; 0
     48e:	12 c0       	rjmp	.+36     	; 0x4b4 <validarSenha+0x3c>
     490:	e9 01       	movw	r28, r18
     492:	f7 01       	movw	r30, r14
     494:	e2 0f       	add	r30, r18
     496:	f3 1f       	adc	r31, r19
     498:	40 81       	ld	r20, Z
     49a:	f8 01       	movw	r30, r16
     49c:	e2 0f       	add	r30, r18
     49e:	f3 1f       	adc	r31, r19
     4a0:	90 81       	ld	r25, Z
     4a2:	49 17       	cp	r20, r25
     4a4:	21 f0       	breq	.+8      	; 0x4ae <validarSenha+0x36>
     4a6:	81 e4       	ldi	r24, 0x41	; 65
     4a8:	0e 94 1d 01 	call	0x23a	; 0x23a <writeCharacter>
     4ac:	80 e0       	ldi	r24, 0x00	; 0
     4ae:	9e 01       	movw	r18, r28
     4b0:	2f 5f       	subi	r18, 0xFF	; 255
     4b2:	3f 4f       	sbci	r19, 0xFF	; 255
     4b4:	26 30       	cpi	r18, 0x06	; 6
     4b6:	31 05       	cpc	r19, r1
     4b8:	5c f3       	brlt	.-42     	; 0x490 <validarSenha+0x18>
     4ba:	df 91       	pop	r29
     4bc:	cf 91       	pop	r28
     4be:	1f 91       	pop	r17
     4c0:	0f 91       	pop	r16
     4c2:	ff 90       	pop	r15
     4c4:	ef 90       	pop	r14
     4c6:	08 95       	ret

000004c8 <lerSenha>:
     4c8:	ff 92       	push	r15
     4ca:	0f 93       	push	r16
     4cc:	1f 93       	push	r17
     4ce:	cf 93       	push	r28
     4d0:	df 93       	push	r29
     4d2:	8c 01       	movw	r16, r24
     4d4:	0e 94 94 00 	call	0x128	; 0x128 <teclaDebouce>
     4d8:	0e 94 b2 00 	call	0x164	; 0x164 <acao_tecla>
     4dc:	f8 01       	movw	r30, r16
     4de:	80 83       	st	Z, r24
     4e0:	80 ec       	ldi	r24, 0xC0	; 192
     4e2:	0e 94 58 01 	call	0x2b0	; 0x2b0 <writeInstruction>
     4e6:	80 e0       	ldi	r24, 0x00	; 0
     4e8:	c0 e0       	ldi	r28, 0x00	; 0
     4ea:	d0 e0       	ldi	r29, 0x00	; 0
     4ec:	38 c0       	rjmp	.+112    	; 0x55e <lerSenha+0x96>
     4ee:	0e 94 94 00 	call	0x128	; 0x128 <teclaDebouce>
     4f2:	f8 01       	movw	r30, r16
     4f4:	80 83       	st	Z, r24
     4f6:	89 31       	cpi	r24, 0x19	; 25
     4f8:	99 f0       	breq	.+38     	; 0x520 <lerSenha+0x58>
     4fa:	8b 30       	cpi	r24, 0x0B	; 11
     4fc:	89 f0       	breq	.+34     	; 0x520 <lerSenha+0x58>
     4fe:	89 30       	cpi	r24, 0x09	; 9
     500:	79 f0       	breq	.+30     	; 0x520 <lerSenha+0x58>
     502:	c6 30       	cpi	r28, 0x06	; 6
     504:	d1 05       	cpc	r29, r1
     506:	64 f4       	brge	.+24     	; 0x520 <lerSenha+0x58>
     508:	91 e0       	ldi	r25, 0x01	; 1
     50a:	98 0f       	add	r25, r24
     50c:	fe 01       	movw	r30, r28
     50e:	ec 5f       	subi	r30, 0xFC	; 252
     510:	fe 4f       	sbci	r31, 0xFE	; 254
     512:	90 83       	st	Z, r25
     514:	8f 5c       	subi	r24, 0xCF	; 207
     516:	0e 94 1d 01 	call	0x23a	; 0x23a <writeCharacter>
     51a:	21 96       	adiw	r28, 0x01	; 1
     51c:	80 e0       	ldi	r24, 0x00	; 0
     51e:	1f c0       	rjmp	.+62     	; 0x55e <lerSenha+0x96>
     520:	89 30       	cpi	r24, 0x09	; 9
     522:	c1 f4       	brne	.+48     	; 0x554 <lerSenha+0x8c>
     524:	1c 16       	cp	r1, r28
     526:	1d 06       	cpc	r1, r29
     528:	74 f4       	brge	.+28     	; 0x546 <lerSenha+0x7e>
     52a:	8c 2f       	mov	r24, r28
     52c:	81 50       	subi	r24, 0x01	; 1
     52e:	80 6c       	ori	r24, 0xC0	; 192
     530:	f8 2e       	mov	r15, r24
     532:	0e 94 58 01 	call	0x2b0	; 0x2b0 <writeInstruction>
     536:	86 e5       	ldi	r24, 0x56	; 86
     538:	92 e0       	ldi	r25, 0x02	; 2
     53a:	0e 94 2f 01 	call	0x25e	; 0x25e <writeString>
     53e:	8f 2d       	mov	r24, r15
     540:	0e 94 58 01 	call	0x2b0	; 0x2b0 <writeInstruction>
     544:	21 97       	sbiw	r28, 0x01	; 1
     546:	86 e4       	ldi	r24, 0x46	; 70
     548:	fe 01       	movw	r30, r28
     54a:	ec 5f       	subi	r30, 0xFC	; 252
     54c:	fe 4f       	sbci	r31, 0xFE	; 254
     54e:	80 83       	st	Z, r24
     550:	80 e0       	ldi	r24, 0x00	; 0
     552:	05 c0       	rjmp	.+10     	; 0x55e <lerSenha+0x96>
     554:	8b 30       	cpi	r24, 0x0B	; 11
     556:	11 f0       	breq	.+4      	; 0x55c <lerSenha+0x94>
     558:	80 e0       	ldi	r24, 0x00	; 0
     55a:	01 c0       	rjmp	.+2      	; 0x55e <lerSenha+0x96>
     55c:	81 e0       	ldi	r24, 0x01	; 1
     55e:	88 23       	and	r24, r24
     560:	31 f2       	breq	.-116    	; 0x4ee <lerSenha+0x26>
     562:	20 97       	sbiw	r28, 0x00	; 0
     564:	21 f2       	breq	.-120    	; 0x4ee <lerSenha+0x26>
     566:	89 e1       	ldi	r24, 0x19	; 25
     568:	f8 01       	movw	r30, r16
     56a:	80 83       	st	Z, r24
     56c:	df 91       	pop	r29
     56e:	cf 91       	pop	r28
     570:	1f 91       	pop	r17
     572:	0f 91       	pop	r16
     574:	ff 90       	pop	r15
     576:	08 95       	ret

00000578 <login>:
     578:	ef 92       	push	r14
     57a:	ff 92       	push	r15
     57c:	0f 93       	push	r16
     57e:	1f 93       	push	r17
     580:	cf 93       	push	r28
     582:	df 93       	push	r29
     584:	7c 01       	movw	r14, r24
     586:	81 e0       	ldi	r24, 0x01	; 1
     588:	0e 94 58 01 	call	0x2b0	; 0x2b0 <writeInstruction>
     58c:	82 e0       	ldi	r24, 0x02	; 2
     58e:	0e 94 58 01 	call	0x2b0	; 0x2b0 <writeInstruction>
     592:	89 e3       	ldi	r24, 0x39	; 57
     594:	91 e0       	ldi	r25, 0x01	; 1
     596:	0e 94 2f 01 	call	0x25e	; 0x25e <writeString>
     59a:	0f ef       	ldi	r16, 0xFF	; 255
     59c:	10 e0       	ldi	r17, 0x00	; 0
     59e:	1e c0       	rjmp	.+60     	; 0x5dc <login+0x64>
     5a0:	c7 01       	movw	r24, r14
     5a2:	0e 94 64 02 	call	0x4c8	; 0x4c8 <lerSenha>
     5a6:	c0 e0       	ldi	r28, 0x00	; 0
     5a8:	d0 e0       	ldi	r29, 0x00	; 0
     5aa:	15 c0       	rjmp	.+42     	; 0x5d6 <login+0x5e>
     5ac:	11 11       	cpse	r17, r1
     5ae:	0e c0       	rjmp	.+28     	; 0x5cc <login+0x54>
     5b0:	be 01       	movw	r22, r28
     5b2:	66 0f       	add	r22, r22
     5b4:	77 1f       	adc	r23, r23
     5b6:	6c 0f       	add	r22, r28
     5b8:	7d 1f       	adc	r23, r29
     5ba:	66 0f       	add	r22, r22
     5bc:	77 1f       	adc	r23, r23
     5be:	66 5f       	subi	r22, 0xF6	; 246
     5c0:	7e 4f       	sbci	r23, 0xFE	; 254
     5c2:	84 e0       	ldi	r24, 0x04	; 4
     5c4:	91 e0       	ldi	r25, 0x01	; 1
     5c6:	0e 94 3c 02 	call	0x478	; 0x478 <validarSenha>
     5ca:	18 2f       	mov	r17, r24
     5cc:	11 23       	and	r17, r17
     5ce:	11 f0       	breq	.+4      	; 0x5d4 <login+0x5c>
     5d0:	0c 2f       	mov	r16, r28
     5d2:	04 c0       	rjmp	.+8      	; 0x5dc <login+0x64>
     5d4:	21 96       	adiw	r28, 0x01	; 1
     5d6:	c3 30       	cpi	r28, 0x03	; 3
     5d8:	d1 05       	cpc	r29, r1
     5da:	44 f3       	brlt	.-48     	; 0x5ac <login+0x34>
     5dc:	11 23       	and	r17, r17
     5de:	01 f3       	breq	.-64     	; 0x5a0 <login+0x28>
     5e0:	81 e0       	ldi	r24, 0x01	; 1
     5e2:	0e 94 58 01 	call	0x2b0	; 0x2b0 <writeInstruction>
     5e6:	80 e8       	ldi	r24, 0x80	; 128
     5e8:	0e 94 58 01 	call	0x2b0	; 0x2b0 <writeInstruction>
     5ec:	88 e4       	ldi	r24, 0x48	; 72
     5ee:	91 e0       	ldi	r25, 0x01	; 1
     5f0:	0e 94 2f 01 	call	0x25e	; 0x25e <writeString>
     5f4:	80 ec       	ldi	r24, 0xC0	; 192
     5f6:	0e 94 58 01 	call	0x2b0	; 0x2b0 <writeInstruction>
     5fa:	01 11       	cpse	r16, r1
     5fc:	05 c0       	rjmp	.+10     	; 0x608 <login+0x90>
     5fe:	82 e5       	ldi	r24, 0x52	; 82
     600:	91 e0       	ldi	r25, 0x01	; 1
     602:	0e 94 2f 01 	call	0x25e	; 0x25e <writeString>
     606:	0d c0       	rjmp	.+26     	; 0x622 <login+0xaa>
     608:	01 30       	cpi	r16, 0x01	; 1
     60a:	29 f4       	brne	.+10     	; 0x616 <login+0x9e>
     60c:	80 e6       	ldi	r24, 0x60	; 96
     60e:	91 e0       	ldi	r25, 0x01	; 1
     610:	0e 94 2f 01 	call	0x25e	; 0x25e <writeString>
     614:	06 c0       	rjmp	.+12     	; 0x622 <login+0xaa>
     616:	02 30       	cpi	r16, 0x02	; 2
     618:	21 f4       	brne	.+8      	; 0x622 <login+0xaa>
     61a:	8b e6       	ldi	r24, 0x6B	; 107
     61c:	91 e0       	ldi	r25, 0x01	; 1
     61e:	0e 94 2f 01 	call	0x25e	; 0x25e <writeString>
     622:	80 2f       	mov	r24, r16
     624:	df 91       	pop	r29
     626:	cf 91       	pop	r28
     628:	1f 91       	pop	r17
     62a:	0f 91       	pop	r16
     62c:	ff 90       	pop	r15
     62e:	ef 90       	pop	r14
     630:	08 95       	ret

00000632 <menu_vendas>:
     632:	81 e0       	ldi	r24, 0x01	; 1
     634:	0e 94 58 01 	call	0x2b0	; 0x2b0 <writeInstruction>
     638:	80 e8       	ldi	r24, 0x80	; 128
     63a:	0e 94 58 01 	call	0x2b0	; 0x2b0 <writeInstruction>
     63e:	86 e7       	ldi	r24, 0x76	; 118
     640:	91 e0       	ldi	r25, 0x01	; 1
     642:	0e 94 2f 01 	call	0x25e	; 0x25e <writeString>
     646:	80 ec       	ldi	r24, 0xC0	; 192
     648:	0e 94 58 01 	call	0x2b0	; 0x2b0 <writeInstruction>
     64c:	84 e8       	ldi	r24, 0x84	; 132
     64e:	91 e0       	ldi	r25, 0x01	; 1
     650:	0e 94 2f 01 	call	0x25e	; 0x25e <writeString>
     654:	08 95       	ret

00000656 <tela_bloqueio_inicial>:
     656:	80 e9       	ldi	r24, 0x90	; 144
     658:	91 e0       	ldi	r25, 0x01	; 1
     65a:	0e 94 2f 01 	call	0x25e	; 0x25e <writeString>
     65e:	80 ec       	ldi	r24, 0xC0	; 192
     660:	0e 94 58 01 	call	0x2b0	; 0x2b0 <writeInstruction>
     664:	8c e9       	ldi	r24, 0x9C	; 156
     666:	91 e0       	ldi	r25, 0x01	; 1
     668:	0e 94 2f 01 	call	0x25e	; 0x25e <writeString>
     66c:	2f ef       	ldi	r18, 0xFF	; 255
     66e:	83 ed       	ldi	r24, 0xD3	; 211
     670:	90 e3       	ldi	r25, 0x30	; 48
     672:	21 50       	subi	r18, 0x01	; 1
     674:	80 40       	sbci	r24, 0x00	; 0
     676:	90 40       	sbci	r25, 0x00	; 0
     678:	e1 f7       	brne	.-8      	; 0x672 <tela_bloqueio_inicial+0x1c>
     67a:	00 c0       	rjmp	.+0      	; 0x67c <tela_bloqueio_inicial+0x26>
     67c:	00 00       	nop
     67e:	83 e0       	ldi	r24, 0x03	; 3
     680:	0e 94 58 01 	call	0x2b0	; 0x2b0 <writeInstruction>
     684:	08 95       	ret

00000686 <menu_pagamento>:
     686:	81 e0       	ldi	r24, 0x01	; 1
     688:	0e 94 58 01 	call	0x2b0	; 0x2b0 <writeInstruction>
     68c:	80 e8       	ldi	r24, 0x80	; 128
     68e:	0e 94 58 01 	call	0x2b0	; 0x2b0 <writeInstruction>
     692:	86 ea       	ldi	r24, 0xA6	; 166
     694:	91 e0       	ldi	r25, 0x01	; 1
     696:	0e 94 2f 01 	call	0x25e	; 0x25e <writeString>
     69a:	80 ec       	ldi	r24, 0xC0	; 192
     69c:	0e 94 58 01 	call	0x2b0	; 0x2b0 <writeInstruction>
     6a0:	86 eb       	ldi	r24, 0xB6	; 182
     6a2:	91 e0       	ldi	r25, 0x01	; 1
     6a4:	0e 94 2f 01 	call	0x25e	; 0x25e <writeString>
     6a8:	08 95       	ret

000006aa <metodo_pagamento>:
     6aa:	0e 94 43 03 	call	0x686	; 0x686 <menu_pagamento>
     6ae:	0e 94 94 00 	call	0x128	; 0x128 <teclaDebouce>
     6b2:	89 31       	cpi	r24, 0x19	; 25
     6b4:	e1 f3       	breq	.-8      	; 0x6ae <metodo_pagamento+0x4>
     6b6:	8f 5f       	subi	r24, 0xFF	; 255
     6b8:	08 95       	ret

000006ba <menu_cartao>:
     6ba:	81 e0       	ldi	r24, 0x01	; 1
     6bc:	0e 94 58 01 	call	0x2b0	; 0x2b0 <writeInstruction>
     6c0:	80 e8       	ldi	r24, 0x80	; 128
     6c2:	0e 94 58 01 	call	0x2b0	; 0x2b0 <writeInstruction>
     6c6:	87 ec       	ldi	r24, 0xC7	; 199
     6c8:	91 e0       	ldi	r25, 0x01	; 1
     6ca:	0e 94 2f 01 	call	0x25e	; 0x25e <writeString>
     6ce:	80 ec       	ldi	r24, 0xC0	; 192
     6d0:	0e 94 58 01 	call	0x2b0	; 0x2b0 <writeInstruction>
     6d4:	85 ed       	ldi	r24, 0xD5	; 213
     6d6:	91 e0       	ldi	r25, 0x01	; 1
     6d8:	0e 94 2f 01 	call	0x25e	; 0x25e <writeString>
     6dc:	08 95       	ret

000006de <aguarda_cartao>:
     6de:	cf 93       	push	r28
     6e0:	0e 94 5d 03 	call	0x6ba	; 0x6ba <menu_cartao>
     6e4:	c9 e1       	ldi	r28, 0x19	; 25
     6e6:	15 c0       	rjmp	.+42     	; 0x712 <aguarda_cartao+0x34>
     6e8:	0e 94 94 00 	call	0x128	; 0x128 <teclaDebouce>
     6ec:	c8 2f       	mov	r28, r24
     6ee:	80 91 c0 00 	lds	r24, 0x00C0	; 0x8000c0 <__TEXT_REGION_LENGTH__+0x7f80c0>
     6f2:	88 23       	and	r24, r24
     6f4:	74 f4       	brge	.+28     	; 0x712 <aguarda_cartao+0x34>
     6f6:	0e 94 e7 00 	call	0x1ce	; 0x1ce <USART_recebe>
     6fa:	83 34       	cpi	r24, 0x43	; 67
     6fc:	51 f4       	brne	.+20     	; 0x712 <aguarda_cartao+0x34>
     6fe:	0e 94 e7 00 	call	0x1ce	; 0x1ce <USART_recebe>
     702:	8d 34       	cpi	r24, 0x4D	; 77
     704:	19 f0       	breq	.+6      	; 0x70c <aguarda_cartao+0x2e>
     706:	87 35       	cpi	r24, 0x57	; 87
     708:	49 f0       	breq	.+18     	; 0x71c <aguarda_cartao+0x3e>
     70a:	03 c0       	rjmp	.+6      	; 0x712 <aguarda_cartao+0x34>
     70c:	81 e0       	ldi	r24, 0x01	; 1
     70e:	90 e0       	ldi	r25, 0x00	; 0
     710:	07 c0       	rjmp	.+14     	; 0x720 <aguarda_cartao+0x42>
     712:	c9 31       	cpi	r28, 0x19	; 25
     714:	49 f3       	breq	.-46     	; 0x6e8 <aguarda_cartao+0xa>
     716:	83 e0       	ldi	r24, 0x03	; 3
     718:	90 e0       	ldi	r25, 0x00	; 0
     71a:	02 c0       	rjmp	.+4      	; 0x720 <aguarda_cartao+0x42>
     71c:	82 e0       	ldi	r24, 0x02	; 2
     71e:	90 e0       	ldi	r25, 0x00	; 0
     720:	cf 91       	pop	r28
     722:	08 95       	ret

00000724 <tela_OK>:
     724:	81 e0       	ldi	r24, 0x01	; 1
     726:	0e 94 58 01 	call	0x2b0	; 0x2b0 <writeInstruction>
     72a:	80 e8       	ldi	r24, 0x80	; 128
     72c:	0e 94 58 01 	call	0x2b0	; 0x2b0 <writeInstruction>
     730:	83 ee       	ldi	r24, 0xE3	; 227
     732:	91 e0       	ldi	r25, 0x01	; 1
     734:	0e 94 2f 01 	call	0x25e	; 0x25e <writeString>
     738:	80 ec       	ldi	r24, 0xC0	; 192
     73a:	0e 94 58 01 	call	0x2b0	; 0x2b0 <writeInstruction>
     73e:	81 ef       	ldi	r24, 0xF1	; 241
     740:	91 e0       	ldi	r25, 0x01	; 1
     742:	0e 94 2f 01 	call	0x25e	; 0x25e <writeString>
     746:	2f ef       	ldi	r18, 0xFF	; 255
     748:	8f e4       	ldi	r24, 0x4F	; 79
     74a:	93 ec       	ldi	r25, 0xC3	; 195
     74c:	21 50       	subi	r18, 0x01	; 1
     74e:	80 40       	sbci	r24, 0x00	; 0
     750:	90 40       	sbci	r25, 0x00	; 0
     752:	e1 f7       	brne	.-8      	; 0x74c <tela_OK+0x28>
     754:	00 c0       	rjmp	.+0      	; 0x756 <tela_OK+0x32>
     756:	00 00       	nop
     758:	08 95       	ret

0000075a <tela_CF>:
     75a:	81 e0       	ldi	r24, 0x01	; 1
     75c:	0e 94 58 01 	call	0x2b0	; 0x2b0 <writeInstruction>
     760:	80 e8       	ldi	r24, 0x80	; 128
     762:	0e 94 58 01 	call	0x2b0	; 0x2b0 <writeInstruction>
     766:	8d ef       	ldi	r24, 0xFD	; 253
     768:	91 e0       	ldi	r25, 0x01	; 1
     76a:	0e 94 2f 01 	call	0x25e	; 0x25e <writeString>
     76e:	80 ec       	ldi	r24, 0xC0	; 192
     770:	0e 94 58 01 	call	0x2b0	; 0x2b0 <writeInstruction>
     774:	88 e0       	ldi	r24, 0x08	; 8
     776:	92 e0       	ldi	r25, 0x02	; 2
     778:	0e 94 2f 01 	call	0x25e	; 0x25e <writeString>
     77c:	2f ef       	ldi	r18, 0xFF	; 255
     77e:	8b e7       	ldi	r24, 0x7B	; 123
     780:	92 e9       	ldi	r25, 0x92	; 146
     782:	21 50       	subi	r18, 0x01	; 1
     784:	80 40       	sbci	r24, 0x00	; 0
     786:	90 40       	sbci	r25, 0x00	; 0
     788:	e1 f7       	brne	.-8      	; 0x782 <tela_CF+0x28>
     78a:	00 c0       	rjmp	.+0      	; 0x78c <tela_CF+0x32>
     78c:	00 00       	nop
     78e:	08 95       	ret

00000790 <tela_SI>:
     790:	81 e0       	ldi	r24, 0x01	; 1
     792:	0e 94 58 01 	call	0x2b0	; 0x2b0 <writeInstruction>
     796:	80 e8       	ldi	r24, 0x80	; 128
     798:	0e 94 58 01 	call	0x2b0	; 0x2b0 <writeInstruction>
     79c:	8d ef       	ldi	r24, 0xFD	; 253
     79e:	91 e0       	ldi	r25, 0x01	; 1
     7a0:	0e 94 2f 01 	call	0x25e	; 0x25e <writeString>
     7a4:	80 ec       	ldi	r24, 0xC0	; 192
     7a6:	0e 94 58 01 	call	0x2b0	; 0x2b0 <writeInstruction>
     7aa:	88 e1       	ldi	r24, 0x18	; 24
     7ac:	92 e0       	ldi	r25, 0x02	; 2
     7ae:	0e 94 2f 01 	call	0x25e	; 0x25e <writeString>
     7b2:	2f ef       	ldi	r18, 0xFF	; 255
     7b4:	8b e7       	ldi	r24, 0x7B	; 123
     7b6:	92 e9       	ldi	r25, 0x92	; 146
     7b8:	21 50       	subi	r18, 0x01	; 1
     7ba:	80 40       	sbci	r24, 0x00	; 0
     7bc:	90 40       	sbci	r25, 0x00	; 0
     7be:	e1 f7       	brne	.-8      	; 0x7b8 <tela_SI+0x28>
     7c0:	00 c0       	rjmp	.+0      	; 0x7c2 <tela_SI+0x32>
     7c2:	00 00       	nop
     7c4:	08 95       	ret

000007c6 <tela_SF>:
     7c6:	81 e0       	ldi	r24, 0x01	; 1
     7c8:	0e 94 58 01 	call	0x2b0	; 0x2b0 <writeInstruction>
     7cc:	80 e8       	ldi	r24, 0x80	; 128
     7ce:	0e 94 58 01 	call	0x2b0	; 0x2b0 <writeInstruction>
     7d2:	8d ef       	ldi	r24, 0xFD	; 253
     7d4:	91 e0       	ldi	r25, 0x01	; 1
     7d6:	0e 94 2f 01 	call	0x25e	; 0x25e <writeString>
     7da:	80 ec       	ldi	r24, 0xC0	; 192
     7dc:	0e 94 58 01 	call	0x2b0	; 0x2b0 <writeInstruction>
     7e0:	85 e2       	ldi	r24, 0x25	; 37
     7e2:	92 e0       	ldi	r25, 0x02	; 2
     7e4:	0e 94 2f 01 	call	0x25e	; 0x25e <writeString>
     7e8:	2f ef       	ldi	r18, 0xFF	; 255
     7ea:	8b e7       	ldi	r24, 0x7B	; 123
     7ec:	92 e9       	ldi	r25, 0x92	; 146
     7ee:	21 50       	subi	r18, 0x01	; 1
     7f0:	80 40       	sbci	r24, 0x00	; 0
     7f2:	90 40       	sbci	r25, 0x00	; 0
     7f4:	e1 f7       	brne	.-8      	; 0x7ee <tela_SF+0x28>
     7f6:	00 c0       	rjmp	.+0      	; 0x7f8 <tela_SF+0x32>
     7f8:	00 00       	nop
     7fa:	08 95       	ret

000007fc <tela_cartaoEstorno>:
     7fc:	81 e0       	ldi	r24, 0x01	; 1
     7fe:	0e 94 58 01 	call	0x2b0	; 0x2b0 <writeInstruction>
     802:	80 e8       	ldi	r24, 0x80	; 128
     804:	0e 94 58 01 	call	0x2b0	; 0x2b0 <writeInstruction>
     808:	85 e3       	ldi	r24, 0x35	; 53
     80a:	92 e0       	ldi	r25, 0x02	; 2
     80c:	0e 94 2f 01 	call	0x25e	; 0x25e <writeString>
     810:	80 ec       	ldi	r24, 0xC0	; 192
     812:	0e 94 58 01 	call	0x2b0	; 0x2b0 <writeInstruction>
     816:	08 95       	ret

00000818 <tela_valorEstorno>:
     818:	81 e0       	ldi	r24, 0x01	; 1
     81a:	0e 94 58 01 	call	0x2b0	; 0x2b0 <writeInstruction>
     81e:	80 e8       	ldi	r24, 0x80	; 128
     820:	0e 94 58 01 	call	0x2b0	; 0x2b0 <writeInstruction>
     824:	85 e4       	ldi	r24, 0x45	; 69
     826:	92 e0       	ldi	r25, 0x02	; 2
     828:	0e 94 2f 01 	call	0x25e	; 0x25e <writeString>
     82c:	80 ec       	ldi	r24, 0xC0	; 192
     82e:	0e 94 58 01 	call	0x2b0	; 0x2b0 <writeInstruction>
     832:	84 e5       	ldi	r24, 0x54	; 84
     834:	92 e0       	ldi	r25, 0x02	; 2
     836:	0e 94 2f 01 	call	0x25e	; 0x25e <writeString>
     83a:	08 95       	ret

0000083c <tela_estorno>:
     83c:	81 e0       	ldi	r24, 0x01	; 1
     83e:	0e 94 58 01 	call	0x2b0	; 0x2b0 <writeInstruction>
     842:	80 e8       	ldi	r24, 0x80	; 128
     844:	0e 94 58 01 	call	0x2b0	; 0x2b0 <writeInstruction>
     848:	88 e5       	ldi	r24, 0x58	; 88
     84a:	92 e0       	ldi	r25, 0x02	; 2
     84c:	0e 94 2f 01 	call	0x25e	; 0x25e <writeString>
     850:	80 ec       	ldi	r24, 0xC0	; 192
     852:	0e 94 58 01 	call	0x2b0	; 0x2b0 <writeInstruction>
     856:	08 95       	ret

00000858 <tela_vendaAvista>:
     858:	81 e0       	ldi	r24, 0x01	; 1
     85a:	0e 94 58 01 	call	0x2b0	; 0x2b0 <writeInstruction>
     85e:	80 e8       	ldi	r24, 0x80	; 128
     860:	0e 94 58 01 	call	0x2b0	; 0x2b0 <writeInstruction>
     864:	84 e6       	ldi	r24, 0x64	; 100
     866:	92 e0       	ldi	r25, 0x02	; 2
     868:	0e 94 2f 01 	call	0x25e	; 0x25e <writeString>
     86c:	80 ec       	ldi	r24, 0xC0	; 192
     86e:	0e 94 58 01 	call	0x2b0	; 0x2b0 <writeInstruction>
     872:	84 e5       	ldi	r24, 0x54	; 84
     874:	92 e0       	ldi	r25, 0x02	; 2
     876:	0e 94 2f 01 	call	0x25e	; 0x25e <writeString>
     87a:	08 95       	ret

0000087c <tela_vendaParcelada>:
     87c:	81 e0       	ldi	r24, 0x01	; 1
     87e:	0e 94 58 01 	call	0x2b0	; 0x2b0 <writeInstruction>
     882:	80 e8       	ldi	r24, 0x80	; 128
     884:	0e 94 58 01 	call	0x2b0	; 0x2b0 <writeInstruction>
     888:	85 e7       	ldi	r24, 0x75	; 117
     88a:	92 e0       	ldi	r25, 0x02	; 2
     88c:	0e 94 2f 01 	call	0x25e	; 0x25e <writeString>
     890:	80 ec       	ldi	r24, 0xC0	; 192
     892:	0e 94 58 01 	call	0x2b0	; 0x2b0 <writeInstruction>
     896:	84 e5       	ldi	r24, 0x54	; 84
     898:	92 e0       	ldi	r25, 0x02	; 2
     89a:	0e 94 2f 01 	call	0x25e	; 0x25e <writeString>
     89e:	08 95       	ret

000008a0 <tela_nParcelas>:
     8a0:	81 e0       	ldi	r24, 0x01	; 1
     8a2:	0e 94 58 01 	call	0x2b0	; 0x2b0 <writeInstruction>
     8a6:	80 e8       	ldi	r24, 0x80	; 128
     8a8:	0e 94 58 01 	call	0x2b0	; 0x2b0 <writeInstruction>
     8ac:	84 e8       	ldi	r24, 0x84	; 132
     8ae:	92 e0       	ldi	r25, 0x02	; 2
     8b0:	0e 94 2f 01 	call	0x25e	; 0x25e <writeString>
     8b4:	80 ec       	ldi	r24, 0xC0	; 192
     8b6:	0e 94 58 01 	call	0x2b0	; 0x2b0 <writeInstruction>
     8ba:	08 95       	ret

000008bc <n_parcelas>:
     8bc:	0f 93       	push	r16
     8be:	1f 93       	push	r17
     8c0:	cf 93       	push	r28
     8c2:	df 93       	push	r29
     8c4:	0e 94 50 04 	call	0x8a0	; 0x8a0 <tela_nParcelas>
     8c8:	c0 e0       	ldi	r28, 0x00	; 0
     8ca:	d0 e0       	ldi	r29, 0x00	; 0
     8cc:	11 e3       	ldi	r17, 0x31	; 49
     8ce:	0e 94 94 00 	call	0x128	; 0x128 <teclaDebouce>
     8d2:	89 31       	cpi	r24, 0x19	; 25
     8d4:	e1 f3       	breq	.-8      	; 0x8ce <n_parcelas+0x12>
     8d6:	8f 5c       	subi	r24, 0xCF	; 207
     8d8:	8a 33       	cpi	r24, 0x3A	; 58
     8da:	99 f4       	brne	.+38     	; 0x902 <__stack+0x3>
     8dc:	1c 16       	cp	r1, r28
     8de:	1d 06       	cpc	r1, r29
     8e0:	b4 f7       	brge	.-20     	; 0x8ce <n_parcelas+0x12>
     8e2:	1c 2f       	mov	r17, r28
     8e4:	11 50       	subi	r17, 0x01	; 1
     8e6:	10 6c       	ori	r17, 0xC0	; 192
     8e8:	81 2f       	mov	r24, r17
     8ea:	0e 94 58 01 	call	0x2b0	; 0x2b0 <writeInstruction>
     8ee:	86 e5       	ldi	r24, 0x56	; 86
     8f0:	92 e0       	ldi	r25, 0x02	; 2
     8f2:	0e 94 2f 01 	call	0x25e	; 0x25e <writeString>
     8f6:	81 2f       	mov	r24, r17
     8f8:	0e 94 58 01 	call	0x2b0	; 0x2b0 <writeInstruction>
     8fc:	21 97       	sbiw	r28, 0x01	; 1
     8fe:	11 e3       	ldi	r17, 0x31	; 49
     900:	e6 cf       	rjmp	.-52     	; 0x8ce <n_parcelas+0x12>
     902:	8c 33       	cpi	r24, 0x3C	; 60
     904:	11 f4       	brne	.+4      	; 0x90a <__stack+0xb>
     906:	11 33       	cpi	r17, 0x31	; 49
     908:	c9 f4       	brne	.+50     	; 0x93c <__stack+0x3d>
     90a:	1c 16       	cp	r1, r28
     90c:	1d 06       	cpc	r1, r29
     90e:	fc f2       	brlt	.-66     	; 0x8ce <n_parcelas+0x12>
     910:	84 33       	cpi	r24, 0x34	; 52
     912:	e8 f6       	brcc	.-70     	; 0x8ce <n_parcelas+0x12>
     914:	82 33       	cpi	r24, 0x32	; 50
     916:	d8 f2       	brcs	.-74     	; 0x8ce <n_parcelas+0x12>
     918:	8b 33       	cpi	r24, 0x3B	; 59
     91a:	11 f0       	breq	.+4      	; 0x920 <__stack+0x21>
     91c:	18 2f       	mov	r17, r24
     91e:	01 c0       	rjmp	.+2      	; 0x922 <__stack+0x23>
     920:	10 e3       	ldi	r17, 0x30	; 48
     922:	0c 2f       	mov	r16, r28
     924:	00 6c       	ori	r16, 0xC0	; 192
     926:	80 2f       	mov	r24, r16
     928:	0e 94 58 01 	call	0x2b0	; 0x2b0 <writeInstruction>
     92c:	81 2f       	mov	r24, r17
     92e:	0e 94 1d 01 	call	0x23a	; 0x23a <writeCharacter>
     932:	80 2f       	mov	r24, r16
     934:	0e 94 58 01 	call	0x2b0	; 0x2b0 <writeInstruction>
     938:	21 96       	adiw	r28, 0x01	; 1
     93a:	c9 cf       	rjmp	.-110    	; 0x8ce <n_parcelas+0x12>
     93c:	81 2f       	mov	r24, r17
     93e:	df 91       	pop	r29
     940:	cf 91       	pop	r28
     942:	1f 91       	pop	r17
     944:	0f 91       	pop	r16
     946:	08 95       	ret

00000948 <tela_senhaCartao>:
     948:	81 e0       	ldi	r24, 0x01	; 1
     94a:	0e 94 58 01 	call	0x2b0	; 0x2b0 <writeInstruction>
     94e:	80 e8       	ldi	r24, 0x80	; 128
     950:	0e 94 58 01 	call	0x2b0	; 0x2b0 <writeInstruction>
     954:	85 e9       	ldi	r24, 0x95	; 149
     956:	92 e0       	ldi	r25, 0x02	; 2
     958:	0e 94 2f 01 	call	0x25e	; 0x25e <writeString>
     95c:	80 ec       	ldi	r24, 0xC0	; 192
     95e:	0e 94 58 01 	call	0x2b0	; 0x2b0 <writeInstruction>
     962:	08 95       	ret

00000964 <recebe_senha>:
     964:	ef 92       	push	r14
     966:	ff 92       	push	r15
     968:	1f 93       	push	r17
     96a:	cf 93       	push	r28
     96c:	df 93       	push	r29
     96e:	7c 01       	movw	r14, r24
     970:	0e 94 a4 04 	call	0x948	; 0x948 <tela_senhaCartao>
     974:	c0 e0       	ldi	r28, 0x00	; 0
     976:	d0 e0       	ldi	r29, 0x00	; 0
     978:	0e 94 94 00 	call	0x128	; 0x128 <teclaDebouce>
     97c:	89 31       	cpi	r24, 0x19	; 25
     97e:	e1 f3       	breq	.-8      	; 0x978 <recebe_senha+0x14>
     980:	8f 5c       	subi	r24, 0xCF	; 207
     982:	8a 33       	cpi	r24, 0x3A	; 58
     984:	b9 f4       	brne	.+46     	; 0x9b4 <recebe_senha+0x50>
     986:	1c 16       	cp	r1, r28
     988:	1d 06       	cpc	r1, r29
     98a:	b4 f7       	brge	.-20     	; 0x978 <recebe_senha+0x14>
     98c:	1c 2f       	mov	r17, r28
     98e:	11 50       	subi	r17, 0x01	; 1
     990:	10 6c       	ori	r17, 0xC0	; 192
     992:	81 2f       	mov	r24, r17
     994:	0e 94 58 01 	call	0x2b0	; 0x2b0 <writeInstruction>
     998:	86 e5       	ldi	r24, 0x56	; 86
     99a:	92 e0       	ldi	r25, 0x02	; 2
     99c:	0e 94 2f 01 	call	0x25e	; 0x25e <writeString>
     9a0:	81 2f       	mov	r24, r17
     9a2:	0e 94 58 01 	call	0x2b0	; 0x2b0 <writeInstruction>
     9a6:	21 97       	sbiw	r28, 0x01	; 1
     9a8:	f7 01       	movw	r30, r14
     9aa:	ec 0f       	add	r30, r28
     9ac:	fd 1f       	adc	r31, r29
     9ae:	80 e3       	ldi	r24, 0x30	; 48
     9b0:	80 83       	st	Z, r24
     9b2:	e2 cf       	rjmp	.-60     	; 0x978 <recebe_senha+0x14>
     9b4:	8c 33       	cpi	r24, 0x3C	; 60
     9b6:	c1 f0       	breq	.+48     	; 0x9e8 <recebe_senha+0x84>
     9b8:	c6 30       	cpi	r28, 0x06	; 6
     9ba:	d1 05       	cpc	r29, r1
     9bc:	ec f6       	brge	.-70     	; 0x978 <recebe_senha+0x14>
     9be:	8b 33       	cpi	r24, 0x3B	; 59
     9c0:	09 f4       	brne	.+2      	; 0x9c4 <recebe_senha+0x60>
     9c2:	80 e3       	ldi	r24, 0x30	; 48
     9c4:	f7 01       	movw	r30, r14
     9c6:	ec 0f       	add	r30, r28
     9c8:	fd 1f       	adc	r31, r29
     9ca:	80 83       	st	Z, r24
     9cc:	1c 2f       	mov	r17, r28
     9ce:	10 6c       	ori	r17, 0xC0	; 192
     9d0:	81 2f       	mov	r24, r17
     9d2:	0e 94 58 01 	call	0x2b0	; 0x2b0 <writeInstruction>
     9d6:	86 ea       	ldi	r24, 0xA6	; 166
     9d8:	92 e0       	ldi	r25, 0x02	; 2
     9da:	0e 94 2f 01 	call	0x25e	; 0x25e <writeString>
     9de:	81 2f       	mov	r24, r17
     9e0:	0e 94 58 01 	call	0x2b0	; 0x2b0 <writeInstruction>
     9e4:	21 96       	adiw	r28, 0x01	; 1
     9e6:	c8 cf       	rjmp	.-112    	; 0x978 <recebe_senha+0x14>
     9e8:	df 91       	pop	r29
     9ea:	cf 91       	pop	r28
     9ec:	1f 91       	pop	r17
     9ee:	ff 90       	pop	r15
     9f0:	ef 90       	pop	r14
     9f2:	08 95       	ret

000009f4 <tela_numCartao>:
     9f4:	81 e0       	ldi	r24, 0x01	; 1
     9f6:	0e 94 58 01 	call	0x2b0	; 0x2b0 <writeInstruction>
     9fa:	80 e8       	ldi	r24, 0x80	; 128
     9fc:	0e 94 58 01 	call	0x2b0	; 0x2b0 <writeInstruction>
     a00:	88 ea       	ldi	r24, 0xA8	; 168
     a02:	92 e0       	ldi	r25, 0x02	; 2
     a04:	0e 94 2f 01 	call	0x25e	; 0x25e <writeString>
     a08:	80 ec       	ldi	r24, 0xC0	; 192
     a0a:	0e 94 58 01 	call	0x2b0	; 0x2b0 <writeInstruction>
     a0e:	08 95       	ret

00000a10 <recebe_cartao>:
     a10:	ef 92       	push	r14
     a12:	ff 92       	push	r15
     a14:	0f 93       	push	r16
     a16:	1f 93       	push	r17
     a18:	cf 93       	push	r28
     a1a:	df 93       	push	r29
     a1c:	7c 01       	movw	r14, r24
     a1e:	0e 94 fa 04 	call	0x9f4	; 0x9f4 <tela_numCartao>
     a22:	00 e0       	ldi	r16, 0x00	; 0
     a24:	10 e0       	ldi	r17, 0x00	; 0
     a26:	0e 94 94 00 	call	0x128	; 0x128 <teclaDebouce>
     a2a:	89 31       	cpi	r24, 0x19	; 25
     a2c:	e1 f3       	breq	.-8      	; 0xa26 <recebe_cartao+0x16>
     a2e:	c1 e3       	ldi	r28, 0x31	; 49
     a30:	c8 0f       	add	r28, r24
     a32:	ca 33       	cpi	r28, 0x3A	; 58
     a34:	c1 f4       	brne	.+48     	; 0xa66 <recebe_cartao+0x56>
     a36:	10 16       	cp	r1, r16
     a38:	11 06       	cpc	r1, r17
     a3a:	ac f7       	brge	.-22     	; 0xa26 <recebe_cartao+0x16>
     a3c:	cf ef       	ldi	r28, 0xFF	; 255
     a3e:	c0 0f       	add	r28, r16
     a40:	c0 6c       	ori	r28, 0xC0	; 192
     a42:	8c 2f       	mov	r24, r28
     a44:	0e 94 58 01 	call	0x2b0	; 0x2b0 <writeInstruction>
     a48:	86 e5       	ldi	r24, 0x56	; 86
     a4a:	92 e0       	ldi	r25, 0x02	; 2
     a4c:	0e 94 2f 01 	call	0x25e	; 0x25e <writeString>
     a50:	8c 2f       	mov	r24, r28
     a52:	0e 94 58 01 	call	0x2b0	; 0x2b0 <writeInstruction>
     a56:	01 50       	subi	r16, 0x01	; 1
     a58:	11 09       	sbc	r17, r1
     a5a:	f7 01       	movw	r30, r14
     a5c:	e0 0f       	add	r30, r16
     a5e:	f1 1f       	adc	r31, r17
     a60:	80 e3       	ldi	r24, 0x30	; 48
     a62:	80 83       	st	Z, r24
     a64:	e0 cf       	rjmp	.-64     	; 0xa26 <recebe_cartao+0x16>
     a66:	cc 33       	cpi	r28, 0x3C	; 60
     a68:	c1 f0       	breq	.+48     	; 0xa9a <recebe_cartao+0x8a>
     a6a:	06 30       	cpi	r16, 0x06	; 6
     a6c:	11 05       	cpc	r17, r1
     a6e:	dc f6       	brge	.-74     	; 0xa26 <recebe_cartao+0x16>
     a70:	cb 33       	cpi	r28, 0x3B	; 59
     a72:	09 f4       	brne	.+2      	; 0xa76 <recebe_cartao+0x66>
     a74:	c0 e3       	ldi	r28, 0x30	; 48
     a76:	f7 01       	movw	r30, r14
     a78:	e0 0f       	add	r30, r16
     a7a:	f1 1f       	adc	r31, r17
     a7c:	c0 83       	st	Z, r28
     a7e:	d0 2f       	mov	r29, r16
     a80:	d0 6c       	ori	r29, 0xC0	; 192
     a82:	8d 2f       	mov	r24, r29
     a84:	0e 94 58 01 	call	0x2b0	; 0x2b0 <writeInstruction>
     a88:	8c 2f       	mov	r24, r28
     a8a:	0e 94 1d 01 	call	0x23a	; 0x23a <writeCharacter>
     a8e:	8d 2f       	mov	r24, r29
     a90:	0e 94 58 01 	call	0x2b0	; 0x2b0 <writeInstruction>
     a94:	0f 5f       	subi	r16, 0xFF	; 255
     a96:	1f 4f       	sbci	r17, 0xFF	; 255
     a98:	c6 cf       	rjmp	.-116    	; 0xa26 <recebe_cartao+0x16>
     a9a:	df 91       	pop	r29
     a9c:	cf 91       	pop	r28
     a9e:	1f 91       	pop	r17
     aa0:	0f 91       	pop	r16
     aa2:	ff 90       	pop	r15
     aa4:	ef 90       	pop	r14
     aa6:	08 95       	ret

00000aa8 <tela_processandoVenda>:
     aa8:	81 e0       	ldi	r24, 0x01	; 1
     aaa:	0e 94 58 01 	call	0x2b0	; 0x2b0 <writeInstruction>
     aae:	80 e8       	ldi	r24, 0x80	; 128
     ab0:	0e 94 58 01 	call	0x2b0	; 0x2b0 <writeInstruction>
     ab4:	8a eb       	ldi	r24, 0xBA	; 186
     ab6:	92 e0       	ldi	r25, 0x02	; 2
     ab8:	0e 94 2f 01 	call	0x25e	; 0x25e <writeString>
     abc:	80 ec       	ldi	r24, 0xC0	; 192
     abe:	0e 94 58 01 	call	0x2b0	; 0x2b0 <writeInstruction>
     ac2:	86 ec       	ldi	r24, 0xC6	; 198
     ac4:	92 e0       	ldi	r25, 0x02	; 2
     ac6:	0e 94 2f 01 	call	0x25e	; 0x25e <writeString>
     aca:	08 95       	ret

00000acc <requisicao_externa>:
     acc:	ef 92       	push	r14
     ace:	ff 92       	push	r15
     ad0:	0f 93       	push	r16
     ad2:	1f 93       	push	r17
     ad4:	cf 93       	push	r28
     ad6:	df 93       	push	r29
     ad8:	cd b7       	in	r28, 0x3d	; 61
     ada:	de b7       	in	r29, 0x3e	; 62
     adc:	65 97       	sbiw	r28, 0x15	; 21
     ade:	0f b6       	in	r0, 0x3f	; 63
     ae0:	f8 94       	cli
     ae2:	de bf       	out	0x3e, r29	; 62
     ae4:	0f be       	out	0x3f, r0	; 63
     ae6:	cd bf       	out	0x3d, r28	; 61
     ae8:	21 30       	cpi	r18, 0x01	; 1
     aea:	31 05       	cpc	r19, r1
     aec:	09 f0       	breq	.+2      	; 0xaf0 <requisicao_externa+0x24>
     aee:	43 c0       	rjmp	.+134    	; 0xb76 <requisicao_externa+0xaa>
     af0:	26 e5       	ldi	r18, 0x56	; 86
     af2:	29 83       	std	Y+1, r18	; 0x01
     af4:	2a 83       	std	Y+2, r18	; 0x02
     af6:	22 e0       	ldi	r18, 0x02	; 2
     af8:	30 e0       	ldi	r19, 0x00	; 0
     afa:	34 c0       	rjmp	.+104    	; 0xb64 <requisicao_externa+0x98>
     afc:	28 30       	cpi	r18, 0x08	; 8
     afe:	31 05       	cpc	r19, r1
     b00:	64 f4       	brge	.+24     	; 0xb1a <requisicao_externa+0x4e>
     b02:	fc 01       	movw	r30, r24
     b04:	e2 0f       	add	r30, r18
     b06:	f3 1f       	adc	r31, r19
     b08:	32 97       	sbiw	r30, 0x02	; 2
     b0a:	a0 81       	ld	r26, Z
     b0c:	e1 e0       	ldi	r30, 0x01	; 1
     b0e:	f0 e0       	ldi	r31, 0x00	; 0
     b10:	ec 0f       	add	r30, r28
     b12:	fd 1f       	adc	r31, r29
     b14:	e2 0f       	add	r30, r18
     b16:	f3 1f       	adc	r31, r19
     b18:	a0 83       	st	Z, r26
     b1a:	d9 01       	movw	r26, r18
     b1c:	f9 01       	movw	r30, r18
     b1e:	38 97       	sbiw	r30, 0x08	; 8
     b20:	e6 30       	cpi	r30, 0x06	; 6
     b22:	f1 05       	cpc	r31, r1
     b24:	50 f4       	brcc	.+20     	; 0xb3a <requisicao_externa+0x6e>
     b26:	e6 0f       	add	r30, r22
     b28:	f7 1f       	adc	r31, r23
     b2a:	10 81       	ld	r17, Z
     b2c:	e1 e0       	ldi	r30, 0x01	; 1
     b2e:	f0 e0       	ldi	r31, 0x00	; 0
     b30:	ec 0f       	add	r30, r28
     b32:	fd 1f       	adc	r31, r29
     b34:	e2 0f       	add	r30, r18
     b36:	f3 1f       	adc	r31, r19
     b38:	10 83       	st	Z, r17
     b3a:	2e 30       	cpi	r18, 0x0E	; 14
     b3c:	31 05       	cpc	r19, r1
     b3e:	7c f0       	brlt	.+30     	; 0xb5e <requisicao_externa+0x92>
     b40:	e2 e1       	ldi	r30, 0x12	; 18
     b42:	f0 e0       	ldi	r31, 0x00	; 0
     b44:	e2 1b       	sub	r30, r18
     b46:	f3 0b       	sbc	r31, r19
     b48:	e4 0f       	add	r30, r20
     b4a:	f5 1f       	adc	r31, r21
     b4c:	f0 80       	ld	r15, Z
     b4e:	01 e0       	ldi	r16, 0x01	; 1
     b50:	10 e0       	ldi	r17, 0x00	; 0
     b52:	0c 0f       	add	r16, r28
     b54:	1d 1f       	adc	r17, r29
     b56:	20 0f       	add	r18, r16
     b58:	31 1f       	adc	r19, r17
     b5a:	f9 01       	movw	r30, r18
     b5c:	f0 82       	st	Z, r15
     b5e:	9d 01       	movw	r18, r26
     b60:	2f 5f       	subi	r18, 0xFF	; 255
     b62:	3f 4f       	sbci	r19, 0xFF	; 255
     b64:	23 31       	cpi	r18, 0x13	; 19
     b66:	31 05       	cpc	r19, r1
     b68:	4c f2       	brlt	.-110    	; 0xafc <requisicao_externa+0x30>
     b6a:	0f 2e       	mov	r0, r31
     b6c:	f3 e1       	ldi	r31, 0x13	; 19
     b6e:	ef 2e       	mov	r14, r31
     b70:	f1 2c       	mov	r15, r1
     b72:	f0 2d       	mov	r31, r0
     b74:	80 c0       	rjmp	.+256    	; 0xc76 <requisicao_externa+0x1aa>
     b76:	21 15       	cp	r18, r1
     b78:	31 05       	cpc	r19, r1
     b7a:	81 f5       	brne	.+96     	; 0xbdc <requisicao_externa+0x110>
     b7c:	25 e4       	ldi	r18, 0x45	; 69
     b7e:	29 83       	std	Y+1, r18	; 0x01
     b80:	26 e5       	ldi	r18, 0x56	; 86
     b82:	2a 83       	std	Y+2, r18	; 0x02
     b84:	22 e0       	ldi	r18, 0x02	; 2
     b86:	30 e0       	ldi	r19, 0x00	; 0
     b88:	20 c0       	rjmp	.+64     	; 0xbca <requisicao_externa+0xfe>
     b8a:	28 30       	cpi	r18, 0x08	; 8
     b8c:	31 05       	cpc	r19, r1
     b8e:	6c f4       	brge	.+26     	; 0xbaa <requisicao_externa+0xde>
     b90:	fc 01       	movw	r30, r24
     b92:	e2 0f       	add	r30, r18
     b94:	f3 1f       	adc	r31, r19
     b96:	32 97       	sbiw	r30, 0x02	; 2
     b98:	60 81       	ld	r22, Z
     b9a:	e1 e0       	ldi	r30, 0x01	; 1
     b9c:	f0 e0       	ldi	r31, 0x00	; 0
     b9e:	ec 0f       	add	r30, r28
     ba0:	fd 1f       	adc	r31, r29
     ba2:	e2 0f       	add	r30, r18
     ba4:	f3 1f       	adc	r31, r19
     ba6:	60 83       	st	Z, r22
     ba8:	0e c0       	rjmp	.+28     	; 0xbc6 <requisicao_externa+0xfa>
     baa:	ec e0       	ldi	r30, 0x0C	; 12
     bac:	f0 e0       	ldi	r31, 0x00	; 0
     bae:	e2 1b       	sub	r30, r18
     bb0:	f3 0b       	sbc	r31, r19
     bb2:	e4 0f       	add	r30, r20
     bb4:	f5 1f       	adc	r31, r21
     bb6:	60 81       	ld	r22, Z
     bb8:	e1 e0       	ldi	r30, 0x01	; 1
     bba:	f0 e0       	ldi	r31, 0x00	; 0
     bbc:	ec 0f       	add	r30, r28
     bbe:	fd 1f       	adc	r31, r29
     bc0:	e2 0f       	add	r30, r18
     bc2:	f3 1f       	adc	r31, r19
     bc4:	60 83       	st	Z, r22
     bc6:	2f 5f       	subi	r18, 0xFF	; 255
     bc8:	3f 4f       	sbci	r19, 0xFF	; 255
     bca:	2d 30       	cpi	r18, 0x0D	; 13
     bcc:	31 05       	cpc	r19, r1
     bce:	ec f2       	brlt	.-70     	; 0xb8a <requisicao_externa+0xbe>
     bd0:	0f 2e       	mov	r0, r31
     bd2:	fd e0       	ldi	r31, 0x0D	; 13
     bd4:	ef 2e       	mov	r14, r31
     bd6:	f1 2c       	mov	r15, r1
     bd8:	f0 2d       	mov	r31, r0
     bda:	4d c0       	rjmp	.+154    	; 0xc76 <requisicao_externa+0x1aa>
     bdc:	e6 e5       	ldi	r30, 0x56	; 86
     bde:	e9 83       	std	Y+1, r30	; 0x01
     be0:	e0 e5       	ldi	r30, 0x50	; 80
     be2:	ea 83       	std	Y+2, r30	; 0x02
     be4:	e2 e0       	ldi	r30, 0x02	; 2
     be6:	f0 e0       	ldi	r31, 0x00	; 0
     be8:	3d c0       	rjmp	.+122    	; 0xc64 <requisicao_externa+0x198>
     bea:	e8 30       	cpi	r30, 0x08	; 8
     bec:	f1 05       	cpc	r31, r1
     bee:	64 f4       	brge	.+24     	; 0xc08 <requisicao_externa+0x13c>
     bf0:	dc 01       	movw	r26, r24
     bf2:	ae 0f       	add	r26, r30
     bf4:	bf 1f       	adc	r27, r31
     bf6:	12 97       	sbiw	r26, 0x02	; 2
     bf8:	1c 91       	ld	r17, X
     bfa:	a1 e0       	ldi	r26, 0x01	; 1
     bfc:	b0 e0       	ldi	r27, 0x00	; 0
     bfe:	ac 0f       	add	r26, r28
     c00:	bd 1f       	adc	r27, r29
     c02:	ae 0f       	add	r26, r30
     c04:	bf 1f       	adc	r27, r31
     c06:	1c 93       	st	X, r17
     c08:	8f 01       	movw	r16, r30
     c0a:	df 01       	movw	r26, r30
     c0c:	18 97       	sbiw	r26, 0x08	; 8
     c0e:	a6 30       	cpi	r26, 0x06	; 6
     c10:	b1 05       	cpc	r27, r1
     c12:	50 f4       	brcc	.+20     	; 0xc28 <requisicao_externa+0x15c>
     c14:	a6 0f       	add	r26, r22
     c16:	b7 1f       	adc	r27, r23
     c18:	fc 90       	ld	r15, X
     c1a:	a1 e0       	ldi	r26, 0x01	; 1
     c1c:	b0 e0       	ldi	r27, 0x00	; 0
     c1e:	ac 0f       	add	r26, r28
     c20:	bd 1f       	adc	r27, r29
     c22:	ae 0f       	add	r26, r30
     c24:	bf 1f       	adc	r27, r31
     c26:	fc 92       	st	X, r15
     c28:	ee 30       	cpi	r30, 0x0E	; 14
     c2a:	f1 05       	cpc	r31, r1
     c2c:	39 f4       	brne	.+14     	; 0xc3c <requisicao_externa+0x170>
     c2e:	a1 e0       	ldi	r26, 0x01	; 1
     c30:	b0 e0       	ldi	r27, 0x00	; 0
     c32:	ac 0f       	add	r26, r28
     c34:	bd 1f       	adc	r27, r29
     c36:	ae 0f       	add	r26, r30
     c38:	bf 1f       	adc	r27, r31
     c3a:	2c 93       	st	X, r18
     c3c:	ef 30       	cpi	r30, 0x0F	; 15
     c3e:	f1 05       	cpc	r31, r1
     c40:	7c f0       	brlt	.+30     	; 0xc60 <requisicao_externa+0x194>
     c42:	a3 e1       	ldi	r26, 0x13	; 19
     c44:	b0 e0       	ldi	r27, 0x00	; 0
     c46:	ae 1b       	sub	r26, r30
     c48:	bf 0b       	sbc	r27, r31
     c4a:	a4 0f       	add	r26, r20
     c4c:	b5 1f       	adc	r27, r21
     c4e:	ac 91       	ld	r26, X
     c50:	ee 24       	eor	r14, r14
     c52:	e3 94       	inc	r14
     c54:	f1 2c       	mov	r15, r1
     c56:	ec 0e       	add	r14, r28
     c58:	fd 1e       	adc	r15, r29
     c5a:	ee 0d       	add	r30, r14
     c5c:	ff 1d       	adc	r31, r15
     c5e:	a0 83       	st	Z, r26
     c60:	f8 01       	movw	r30, r16
     c62:	31 96       	adiw	r30, 0x01	; 1
     c64:	e4 31       	cpi	r30, 0x14	; 20
     c66:	f1 05       	cpc	r31, r1
     c68:	0c f4       	brge	.+2      	; 0xc6c <requisicao_externa+0x1a0>
     c6a:	bf cf       	rjmp	.-130    	; 0xbea <requisicao_externa+0x11e>
     c6c:	0f 2e       	mov	r0, r31
     c6e:	f4 e1       	ldi	r31, 0x14	; 20
     c70:	ef 2e       	mov	r14, r31
     c72:	f1 2c       	mov	r15, r1
     c74:	f0 2d       	mov	r31, r0
     c76:	00 e0       	ldi	r16, 0x00	; 0
     c78:	10 e0       	ldi	r17, 0x00	; 0
     c7a:	0b c0       	rjmp	.+22     	; 0xc92 <requisicao_externa+0x1c6>
     c7c:	e1 e0       	ldi	r30, 0x01	; 1
     c7e:	f0 e0       	ldi	r31, 0x00	; 0
     c80:	ec 0f       	add	r30, r28
     c82:	fd 1f       	adc	r31, r29
     c84:	e0 0f       	add	r30, r16
     c86:	f1 1f       	adc	r31, r17
     c88:	80 81       	ld	r24, Z
     c8a:	0e 94 e0 00 	call	0x1c0	; 0x1c0 <USART_envia>
     c8e:	0f 5f       	subi	r16, 0xFF	; 255
     c90:	1f 4f       	sbci	r17, 0xFF	; 255
     c92:	0e 15       	cp	r16, r14
     c94:	1f 05       	cpc	r17, r15
     c96:	94 f3       	brlt	.-28     	; 0xc7c <requisicao_externa+0x1b0>
     c98:	8d e0       	ldi	r24, 0x0D	; 13
     c9a:	0e 94 e0 00 	call	0x1c0	; 0x1c0 <USART_envia>
     c9e:	0e 94 54 05 	call	0xaa8	; 0xaa8 <tela_processandoVenda>
     ca2:	0e 94 e7 00 	call	0x1ce	; 0x1ce <USART_recebe>
     ca6:	8f 34       	cpi	r24, 0x4F	; 79
     ca8:	29 f0       	breq	.+10     	; 0xcb4 <requisicao_externa+0x1e8>
     caa:	83 35       	cpi	r24, 0x53	; 83
     cac:	69 f0       	breq	.+26     	; 0xcc8 <requisicao_externa+0x1fc>
     cae:	83 34       	cpi	r24, 0x43	; 67
     cb0:	c1 f7       	brne	.-16     	; 0xca2 <requisicao_externa+0x1d6>
     cb2:	05 c0       	rjmp	.+10     	; 0xcbe <requisicao_externa+0x1f2>
     cb4:	0e 94 92 03 	call	0x724	; 0x724 <tela_OK>
     cb8:	81 e0       	ldi	r24, 0x01	; 1
     cba:	90 e0       	ldi	r25, 0x00	; 0
     cbc:	15 c0       	rjmp	.+42     	; 0xce8 <requisicao_externa+0x21c>
     cbe:	0e 94 ad 03 	call	0x75a	; 0x75a <tela_CF>
     cc2:	81 e0       	ldi	r24, 0x01	; 1
     cc4:	90 e0       	ldi	r25, 0x00	; 0
     cc6:	10 c0       	rjmp	.+32     	; 0xce8 <requisicao_externa+0x21c>
     cc8:	0e 94 e7 00 	call	0x1ce	; 0x1ce <USART_recebe>
     ccc:	86 34       	cpi	r24, 0x46	; 70
     cce:	19 f0       	breq	.+6      	; 0xcd6 <requisicao_externa+0x20a>
     cd0:	89 34       	cpi	r24, 0x49	; 73
     cd2:	31 f0       	breq	.+12     	; 0xce0 <requisicao_externa+0x214>
     cd4:	e6 cf       	rjmp	.-52     	; 0xca2 <requisicao_externa+0x1d6>
     cd6:	0e 94 e3 03 	call	0x7c6	; 0x7c6 <tela_SF>
     cda:	82 e0       	ldi	r24, 0x02	; 2
     cdc:	90 e0       	ldi	r25, 0x00	; 0
     cde:	04 c0       	rjmp	.+8      	; 0xce8 <requisicao_externa+0x21c>
     ce0:	0e 94 c8 03 	call	0x790	; 0x790 <tela_SI>
     ce4:	81 e0       	ldi	r24, 0x01	; 1
     ce6:	90 e0       	ldi	r25, 0x00	; 0
     ce8:	65 96       	adiw	r28, 0x15	; 21
     cea:	0f b6       	in	r0, 0x3f	; 63
     cec:	f8 94       	cli
     cee:	de bf       	out	0x3e, r29	; 62
     cf0:	0f be       	out	0x3f, r0	; 63
     cf2:	cd bf       	out	0x3d, r28	; 61
     cf4:	df 91       	pop	r29
     cf6:	cf 91       	pop	r28
     cf8:	1f 91       	pop	r17
     cfa:	0f 91       	pop	r16
     cfc:	ff 90       	pop	r15
     cfe:	ef 90       	pop	r14
     d00:	08 95       	ret

00000d02 <processa_estorno>:
     d02:	af 92       	push	r10
     d04:	bf 92       	push	r11
     d06:	cf 92       	push	r12
     d08:	df 92       	push	r13
     d0a:	ef 92       	push	r14
     d0c:	ff 92       	push	r15
     d0e:	0f 93       	push	r16
     d10:	1f 93       	push	r17
     d12:	cf 93       	push	r28
     d14:	df 93       	push	r29
     d16:	6c 01       	movw	r12, r24
     d18:	5b 01       	movw	r10, r22
     d1a:	8a 01       	movw	r16, r20
     d1c:	80 e0       	ldi	r24, 0x00	; 0
     d1e:	90 e0       	ldi	r25, 0x00	; 0
     d20:	36 c0       	rjmp	.+108    	; 0xd8e <processa_estorno+0x8c>
     d22:	21 e0       	ldi	r18, 0x01	; 1
     d24:	c2 16       	cp	r12, r18
     d26:	d1 04       	cpc	r13, r1
     d28:	89 f4       	brne	.+34     	; 0xd4c <processa_estorno+0x4a>
     d2a:	02 97       	sbiw	r24, 0x02	; 2
     d2c:	51 f4       	brne	.+20     	; 0xd42 <processa_estorno+0x40>
     d2e:	0e c0       	rjmp	.+28     	; 0xd4c <processa_estorno+0x4a>
     d30:	78 01       	movw	r14, r16
     d32:	ec 0e       	add	r14, r28
     d34:	fd 1e       	adc	r15, r29
     d36:	0e 94 e7 00 	call	0x1ce	; 0x1ce <USART_recebe>
     d3a:	f7 01       	movw	r30, r14
     d3c:	80 83       	st	Z, r24
     d3e:	21 96       	adiw	r28, 0x01	; 1
     d40:	02 c0       	rjmp	.+4      	; 0xd46 <processa_estorno+0x44>
     d42:	c0 e0       	ldi	r28, 0x00	; 0
     d44:	d0 e0       	ldi	r29, 0x00	; 0
     d46:	c6 30       	cpi	r28, 0x06	; 6
     d48:	d1 05       	cpc	r29, r1
     d4a:	94 f3       	brlt	.-28     	; 0xd30 <processa_estorno+0x2e>
     d4c:	f2 e0       	ldi	r31, 0x02	; 2
     d4e:	cf 16       	cp	r12, r31
     d50:	d1 04       	cpc	r13, r1
     d52:	79 f4       	brne	.+30     	; 0xd72 <processa_estorno+0x70>
     d54:	09 c0       	rjmp	.+18     	; 0xd68 <processa_estorno+0x66>
     d56:	78 01       	movw	r14, r16
     d58:	ec 0e       	add	r14, r28
     d5a:	fd 1e       	adc	r15, r29
     d5c:	0e 94 e7 00 	call	0x1ce	; 0x1ce <USART_recebe>
     d60:	f7 01       	movw	r30, r14
     d62:	80 83       	st	Z, r24
     d64:	21 96       	adiw	r28, 0x01	; 1
     d66:	02 c0       	rjmp	.+4      	; 0xd6c <processa_estorno+0x6a>
     d68:	c0 e0       	ldi	r28, 0x00	; 0
     d6a:	d0 e0       	ldi	r29, 0x00	; 0
     d6c:	c6 30       	cpi	r28, 0x06	; 6
     d6e:	d1 05       	cpc	r29, r1
     d70:	94 f3       	brlt	.-28     	; 0xd56 <processa_estorno+0x54>
     d72:	f3 e0       	ldi	r31, 0x03	; 3
     d74:	cf 16       	cp	r12, r31
     d76:	d1 04       	cpc	r13, r1
     d78:	19 f4       	brne	.+6      	; 0xd80 <processa_estorno+0x7e>
     d7a:	c8 01       	movw	r24, r16
     d7c:	0e 94 08 05 	call	0xa10	; 0xa10 <recebe_cartao>
     d80:	20 e0       	ldi	r18, 0x00	; 0
     d82:	30 e0       	ldi	r19, 0x00	; 0
     d84:	a5 01       	movw	r20, r10
     d86:	b8 01       	movw	r22, r16
     d88:	c8 01       	movw	r24, r16
     d8a:	0e 94 66 05 	call	0xacc	; 0xacc <requisicao_externa>
     d8e:	81 30       	cpi	r24, 0x01	; 1
     d90:	91 05       	cpc	r25, r1
     d92:	39 f6       	brne	.-114    	; 0xd22 <processa_estorno+0x20>
     d94:	df 91       	pop	r29
     d96:	cf 91       	pop	r28
     d98:	1f 91       	pop	r17
     d9a:	0f 91       	pop	r16
     d9c:	ff 90       	pop	r15
     d9e:	ef 90       	pop	r14
     da0:	df 90       	pop	r13
     da2:	cf 90       	pop	r12
     da4:	bf 90       	pop	r11
     da6:	af 90       	pop	r10
     da8:	08 95       	ret

00000daa <estorno>:
     daa:	0f 93       	push	r16
     dac:	1f 93       	push	r17
     dae:	cf 93       	push	r28
     db0:	df 93       	push	r29
     db2:	cd b7       	in	r28, 0x3d	; 61
     db4:	de b7       	in	r29, 0x3e	; 62
     db6:	a3 97       	sbiw	r28, 0x23	; 35
     db8:	0f b6       	in	r0, 0x3f	; 63
     dba:	f8 94       	cli
     dbc:	de bf       	out	0x3e, r29	; 62
     dbe:	0f be       	out	0x3f, r0	; 63
     dc0:	cd bf       	out	0x3d, r28	; 61
     dc2:	86 e0       	ldi	r24, 0x06	; 6
     dc4:	ec e1       	ldi	r30, 0x1C	; 28
     dc6:	f1 e0       	ldi	r31, 0x01	; 1
     dc8:	de 01       	movw	r26, r28
     dca:	11 96       	adiw	r26, 0x01	; 1
     dcc:	01 90       	ld	r0, Z+
     dce:	0d 92       	st	X+, r0
     dd0:	8a 95       	dec	r24
     dd2:	e1 f7       	brne	.-8      	; 0xdcc <estorno+0x22>
     dd4:	86 e0       	ldi	r24, 0x06	; 6
     dd6:	ec e1       	ldi	r30, 0x1C	; 28
     dd8:	f1 e0       	ldi	r31, 0x01	; 1
     dda:	de 01       	movw	r26, r28
     ddc:	17 96       	adiw	r26, 0x07	; 7
     dde:	01 90       	ld	r0, Z+
     de0:	0d 92       	st	X+, r0
     de2:	8a 95       	dec	r24
     de4:	e1 f7       	brne	.-8      	; 0xdde <estorno+0x34>
     de6:	85 e0       	ldi	r24, 0x05	; 5
     de8:	e2 e2       	ldi	r30, 0x22	; 34
     dea:	f1 e0       	ldi	r31, 0x01	; 1
     dec:	de 01       	movw	r26, r28
     dee:	1d 96       	adiw	r26, 0x0d	; 13
     df0:	01 90       	ld	r0, Z+
     df2:	0d 92       	st	X+, r0
     df4:	8a 95       	dec	r24
     df6:	e1 f7       	brne	.-8      	; 0xdf0 <estorno+0x46>
     df8:	82 e1       	ldi	r24, 0x12	; 18
     dfa:	e7 e2       	ldi	r30, 0x27	; 39
     dfc:	f1 e0       	ldi	r31, 0x01	; 1
     dfe:	de 01       	movw	r26, r28
     e00:	52 96       	adiw	r26, 0x12	; 18
     e02:	01 90       	ld	r0, Z+
     e04:	0d 92       	st	X+, r0
     e06:	8a 95       	dec	r24
     e08:	e1 f7       	brne	.-8      	; 0xe02 <estorno+0x58>
     e0a:	0e 94 1e 04 	call	0x83c	; 0x83c <tela_estorno>
     e0e:	ce 01       	movw	r24, r28
     e10:	01 96       	adiw	r24, 0x01	; 1
     e12:	0e 94 b2 04 	call	0x964	; 0x964 <recebe_senha>
     e16:	80 e0       	ldi	r24, 0x00	; 0
     e18:	90 e0       	ldi	r25, 0x00	; 0
     e1a:	00 e0       	ldi	r16, 0x00	; 0
     e1c:	10 e0       	ldi	r17, 0x00	; 0
     e1e:	16 c0       	rjmp	.+44     	; 0xe4c <estorno+0xa2>
     e20:	00 97       	sbiw	r24, 0x00	; 0
     e22:	91 f4       	brne	.+36     	; 0xe48 <estorno+0x9e>
     e24:	b8 01       	movw	r22, r16
     e26:	66 0f       	add	r22, r22
     e28:	77 1f       	adc	r23, r23
     e2a:	60 0f       	add	r22, r16
     e2c:	71 1f       	adc	r23, r17
     e2e:	66 0f       	add	r22, r22
     e30:	77 1f       	adc	r23, r23
     e32:	82 e1       	ldi	r24, 0x12	; 18
     e34:	90 e0       	ldi	r25, 0x00	; 0
     e36:	8c 0f       	add	r24, r28
     e38:	9d 1f       	adc	r25, r29
     e3a:	68 0f       	add	r22, r24
     e3c:	79 1f       	adc	r23, r25
     e3e:	ce 01       	movw	r24, r28
     e40:	01 96       	adiw	r24, 0x01	; 1
     e42:	0e 94 3c 02 	call	0x478	; 0x478 <validarSenha>
     e46:	90 e0       	ldi	r25, 0x00	; 0
     e48:	0f 5f       	subi	r16, 0xFF	; 255
     e4a:	1f 4f       	sbci	r17, 0xFF	; 255
     e4c:	03 30       	cpi	r16, 0x03	; 3
     e4e:	11 05       	cpc	r17, r1
     e50:	3c f3       	brlt	.-50     	; 0xe20 <estorno+0x76>
     e52:	89 2b       	or	r24, r25
     e54:	c1 f0       	breq	.+48     	; 0xe86 <estorno+0xdc>
     e56:	0e 94 0c 04 	call	0x818	; 0x818 <tela_valorEstorno>
     e5a:	ce 01       	movw	r24, r28
     e5c:	0d 96       	adiw	r24, 0x0d	; 13
     e5e:	0e 94 e6 01 	call	0x3cc	; 0x3cc <recebe_valor>
     e62:	ce 01       	movw	r24, r28
     e64:	0d 96       	adiw	r24, 0x0d	; 13
     e66:	0e 94 93 01 	call	0x326	; 0x326 <formata_valor>
     e6a:	0e 94 fe 03 	call	0x7fc	; 0x7fc <tela_cartaoEstorno>
     e6e:	0e 94 6f 03 	call	0x6de	; 0x6de <aguarda_cartao>
     e72:	ae 01       	movw	r20, r28
     e74:	49 5f       	subi	r20, 0xF9	; 249
     e76:	5f 4f       	sbci	r21, 0xFF	; 255
     e78:	be 01       	movw	r22, r28
     e7a:	63 5f       	subi	r22, 0xF3	; 243
     e7c:	7f 4f       	sbci	r23, 0xFF	; 255
     e7e:	90 e0       	ldi	r25, 0x00	; 0
     e80:	0e 94 81 06 	call	0xd02	; 0xd02 <processa_estorno>
     e84:	02 c0       	rjmp	.+4      	; 0xe8a <estorno+0xe0>
     e86:	0e 94 e3 03 	call	0x7c6	; 0x7c6 <tela_SF>
     e8a:	9f ef       	ldi	r25, 0xFF	; 255
     e8c:	23 e2       	ldi	r18, 0x23	; 35
     e8e:	84 ef       	ldi	r24, 0xF4	; 244
     e90:	91 50       	subi	r25, 0x01	; 1
     e92:	20 40       	sbci	r18, 0x00	; 0
     e94:	80 40       	sbci	r24, 0x00	; 0
     e96:	e1 f7       	brne	.-8      	; 0xe90 <estorno+0xe6>
     e98:	00 c0       	rjmp	.+0      	; 0xe9a <estorno+0xf0>
     e9a:	00 00       	nop
     e9c:	a3 96       	adiw	r28, 0x23	; 35
     e9e:	0f b6       	in	r0, 0x3f	; 63
     ea0:	f8 94       	cli
     ea2:	de bf       	out	0x3e, r29	; 62
     ea4:	0f be       	out	0x3f, r0	; 63
     ea6:	cd bf       	out	0x3d, r28	; 61
     ea8:	df 91       	pop	r29
     eaa:	cf 91       	pop	r28
     eac:	1f 91       	pop	r17
     eae:	0f 91       	pop	r16
     eb0:	08 95       	ret

00000eb2 <processa_pagamento>:
     eb2:	4f 92       	push	r4
     eb4:	5f 92       	push	r5
     eb6:	6f 92       	push	r6
     eb8:	7f 92       	push	r7
     eba:	8f 92       	push	r8
     ebc:	9f 92       	push	r9
     ebe:	af 92       	push	r10
     ec0:	bf 92       	push	r11
     ec2:	cf 92       	push	r12
     ec4:	df 92       	push	r13
     ec6:	ef 92       	push	r14
     ec8:	ff 92       	push	r15
     eca:	0f 93       	push	r16
     ecc:	1f 93       	push	r17
     ece:	cf 93       	push	r28
     ed0:	df 93       	push	r29
     ed2:	3c 01       	movw	r6, r24
     ed4:	5b 01       	movw	r10, r22
     ed6:	29 01       	movw	r4, r18
     ed8:	81 2c       	mov	r8, r1
     eda:	91 2c       	mov	r9, r1
     edc:	51 c0       	rjmp	.+162    	; 0xf80 <processa_pagamento+0xce>
     ede:	81 e0       	ldi	r24, 0x01	; 1
     ee0:	a8 16       	cp	r10, r24
     ee2:	b1 04       	cpc	r11, r1
     ee4:	c1 f4       	brne	.+48     	; 0xf16 <processa_pagamento+0x64>
     ee6:	e2 e0       	ldi	r30, 0x02	; 2
     ee8:	8e 16       	cp	r8, r30
     eea:	91 04       	cpc	r9, r1
     eec:	59 f4       	brne	.+22     	; 0xf04 <processa_pagamento+0x52>
     eee:	10 c0       	rjmp	.+32     	; 0xf10 <processa_pagamento+0x5e>
     ef0:	e7 01       	movw	r28, r14
     ef2:	cc 0d       	add	r28, r12
     ef4:	dd 1d       	adc	r29, r13
     ef6:	0e 94 e7 00 	call	0x1ce	; 0x1ce <USART_recebe>
     efa:	88 83       	st	Y, r24
     efc:	ff ef       	ldi	r31, 0xFF	; 255
     efe:	cf 1a       	sub	r12, r31
     f00:	df 0a       	sbc	r13, r31
     f02:	02 c0       	rjmp	.+4      	; 0xf08 <processa_pagamento+0x56>
     f04:	c1 2c       	mov	r12, r1
     f06:	d1 2c       	mov	r13, r1
     f08:	86 e0       	ldi	r24, 0x06	; 6
     f0a:	c8 16       	cp	r12, r24
     f0c:	d1 04       	cpc	r13, r1
     f0e:	84 f3       	brlt	.-32     	; 0xef0 <processa_pagamento+0x3e>
     f10:	c8 01       	movw	r24, r16
     f12:	0e 94 b2 04 	call	0x964	; 0x964 <recebe_senha>
     f16:	e2 e0       	ldi	r30, 0x02	; 2
     f18:	ae 16       	cp	r10, r30
     f1a:	b1 04       	cpc	r11, r1
     f1c:	e1 f4       	brne	.+56     	; 0xf56 <processa_pagamento+0xa4>
     f1e:	16 c0       	rjmp	.+44     	; 0xf4c <processa_pagamento+0x9a>
     f20:	c6 30       	cpi	r28, 0x06	; 6
     f22:	d1 05       	cpc	r29, r1
     f24:	3c f4       	brge	.+14     	; 0xf34 <processa_pagamento+0x82>
     f26:	0e 94 e7 00 	call	0x1ce	; 0x1ce <USART_recebe>
     f2a:	f7 01       	movw	r30, r14
     f2c:	ec 0f       	add	r30, r28
     f2e:	fd 1f       	adc	r31, r29
     f30:	80 83       	st	Z, r24
     f32:	0a c0       	rjmp	.+20     	; 0xf48 <processa_pagamento+0x96>
     f34:	6e 01       	movw	r12, r28
     f36:	f6 e0       	ldi	r31, 0x06	; 6
     f38:	cf 1a       	sub	r12, r31
     f3a:	d1 08       	sbc	r13, r1
     f3c:	c0 0e       	add	r12, r16
     f3e:	d1 1e       	adc	r13, r17
     f40:	0e 94 e7 00 	call	0x1ce	; 0x1ce <USART_recebe>
     f44:	f6 01       	movw	r30, r12
     f46:	80 83       	st	Z, r24
     f48:	21 96       	adiw	r28, 0x01	; 1
     f4a:	02 c0       	rjmp	.+4      	; 0xf50 <processa_pagamento+0x9e>
     f4c:	c0 e0       	ldi	r28, 0x00	; 0
     f4e:	d0 e0       	ldi	r29, 0x00	; 0
     f50:	cc 30       	cpi	r28, 0x0C	; 12
     f52:	d1 05       	cpc	r29, r1
     f54:	2c f3       	brlt	.-54     	; 0xf20 <processa_pagamento+0x6e>
     f56:	f3 e0       	ldi	r31, 0x03	; 3
     f58:	af 16       	cp	r10, r31
     f5a:	b1 04       	cpc	r11, r1
     f5c:	51 f4       	brne	.+20     	; 0xf72 <processa_pagamento+0xc0>
     f5e:	82 e0       	ldi	r24, 0x02	; 2
     f60:	88 16       	cp	r8, r24
     f62:	91 04       	cpc	r9, r1
     f64:	19 f0       	breq	.+6      	; 0xf6c <processa_pagamento+0xba>
     f66:	c7 01       	movw	r24, r14
     f68:	0e 94 08 05 	call	0xa10	; 0xa10 <recebe_cartao>
     f6c:	c8 01       	movw	r24, r16
     f6e:	0e 94 b2 04 	call	0x964	; 0x964 <recebe_senha>
     f72:	93 01       	movw	r18, r6
     f74:	a2 01       	movw	r20, r4
     f76:	b8 01       	movw	r22, r16
     f78:	c7 01       	movw	r24, r14
     f7a:	0e 94 66 05 	call	0xacc	; 0xacc <requisicao_externa>
     f7e:	4c 01       	movw	r8, r24
     f80:	e1 e0       	ldi	r30, 0x01	; 1
     f82:	8e 16       	cp	r8, r30
     f84:	91 04       	cpc	r9, r1
     f86:	09 f0       	breq	.+2      	; 0xf8a <processa_pagamento+0xd8>
     f88:	aa cf       	rjmp	.-172    	; 0xede <processa_pagamento+0x2c>
     f8a:	df 91       	pop	r29
     f8c:	cf 91       	pop	r28
     f8e:	1f 91       	pop	r17
     f90:	0f 91       	pop	r16
     f92:	ff 90       	pop	r15
     f94:	ef 90       	pop	r14
     f96:	df 90       	pop	r13
     f98:	cf 90       	pop	r12
     f9a:	bf 90       	pop	r11
     f9c:	af 90       	pop	r10
     f9e:	9f 90       	pop	r9
     fa0:	8f 90       	pop	r8
     fa2:	7f 90       	pop	r7
     fa4:	6f 90       	pop	r6
     fa6:	5f 90       	pop	r5
     fa8:	4f 90       	pop	r4
     faa:	08 95       	ret

00000fac <venda_parcelada>:
     fac:	cf 92       	push	r12
     fae:	df 92       	push	r13
     fb0:	ef 92       	push	r14
     fb2:	ff 92       	push	r15
     fb4:	0f 93       	push	r16
     fb6:	1f 93       	push	r17
     fb8:	cf 93       	push	r28
     fba:	df 93       	push	r29
     fbc:	cd b7       	in	r28, 0x3d	; 61
     fbe:	de b7       	in	r29, 0x3e	; 62
     fc0:	61 97       	sbiw	r28, 0x11	; 17
     fc2:	0f b6       	in	r0, 0x3f	; 63
     fc4:	f8 94       	cli
     fc6:	de bf       	out	0x3e, r29	; 62
     fc8:	0f be       	out	0x3f, r0	; 63
     fca:	cd bf       	out	0x3d, r28	; 61
     fcc:	86 e0       	ldi	r24, 0x06	; 6
     fce:	ec e1       	ldi	r30, 0x1C	; 28
     fd0:	f1 e0       	ldi	r31, 0x01	; 1
     fd2:	de 01       	movw	r26, r28
     fd4:	11 96       	adiw	r26, 0x01	; 1
     fd6:	01 90       	ld	r0, Z+
     fd8:	0d 92       	st	X+, r0
     fda:	8a 95       	dec	r24
     fdc:	e1 f7       	brne	.-8      	; 0xfd6 <venda_parcelada+0x2a>
     fde:	86 e0       	ldi	r24, 0x06	; 6
     fe0:	ec e1       	ldi	r30, 0x1C	; 28
     fe2:	f1 e0       	ldi	r31, 0x01	; 1
     fe4:	de 01       	movw	r26, r28
     fe6:	17 96       	adiw	r26, 0x07	; 7
     fe8:	01 90       	ld	r0, Z+
     fea:	0d 92       	st	X+, r0
     fec:	8a 95       	dec	r24
     fee:	e1 f7       	brne	.-8      	; 0xfe8 <venda_parcelada+0x3c>
     ff0:	85 e0       	ldi	r24, 0x05	; 5
     ff2:	e2 e2       	ldi	r30, 0x22	; 34
     ff4:	f1 e0       	ldi	r31, 0x01	; 1
     ff6:	de 01       	movw	r26, r28
     ff8:	1d 96       	adiw	r26, 0x0d	; 13
     ffa:	01 90       	ld	r0, Z+
     ffc:	0d 92       	st	X+, r0
     ffe:	8a 95       	dec	r24
    1000:	e1 f7       	brne	.-8      	; 0xffa <venda_parcelada+0x4e>
    1002:	0e 94 3e 04 	call	0x87c	; 0x87c <tela_vendaParcelada>
    1006:	ce 01       	movw	r24, r28
    1008:	0d 96       	adiw	r24, 0x0d	; 13
    100a:	0e 94 e6 01 	call	0x3cc	; 0x3cc <recebe_valor>
    100e:	ce 01       	movw	r24, r28
    1010:	0d 96       	adiw	r24, 0x0d	; 13
    1012:	0e 94 93 01 	call	0x326	; 0x326 <formata_valor>
    1016:	0e 94 5e 04 	call	0x8bc	; 0x8bc <n_parcelas>
    101a:	d8 2e       	mov	r13, r24
    101c:	0e 94 55 03 	call	0x6aa	; 0x6aa <metodo_pagamento>
    1020:	c8 2e       	mov	r12, r24
    1022:	0e 94 6f 03 	call	0x6de	; 0x6de <aguarda_cartao>
    1026:	bc 01       	movw	r22, r24
    1028:	77 27       	eor	r23, r23
    102a:	ce 01       	movw	r24, r28
    102c:	07 96       	adiw	r24, 0x07	; 7
    102e:	7c 01       	movw	r14, r24
    1030:	8e 01       	movw	r16, r28
    1032:	0f 5f       	subi	r16, 0xFF	; 255
    1034:	1f 4f       	sbci	r17, 0xFF	; 255
    1036:	9e 01       	movw	r18, r28
    1038:	23 5f       	subi	r18, 0xF3	; 243
    103a:	3f 4f       	sbci	r19, 0xFF	; 255
    103c:	4c 2d       	mov	r20, r12
    103e:	8d 2d       	mov	r24, r13
    1040:	90 e0       	ldi	r25, 0x00	; 0
    1042:	0e 94 59 07 	call	0xeb2	; 0xeb2 <processa_pagamento>
    1046:	61 96       	adiw	r28, 0x11	; 17
    1048:	0f b6       	in	r0, 0x3f	; 63
    104a:	f8 94       	cli
    104c:	de bf       	out	0x3e, r29	; 62
    104e:	0f be       	out	0x3f, r0	; 63
    1050:	cd bf       	out	0x3d, r28	; 61
    1052:	df 91       	pop	r29
    1054:	cf 91       	pop	r28
    1056:	1f 91       	pop	r17
    1058:	0f 91       	pop	r16
    105a:	ff 90       	pop	r15
    105c:	ef 90       	pop	r14
    105e:	df 90       	pop	r13
    1060:	cf 90       	pop	r12
    1062:	08 95       	ret

00001064 <venda_avista>:
    1064:	df 92       	push	r13
    1066:	ef 92       	push	r14
    1068:	ff 92       	push	r15
    106a:	0f 93       	push	r16
    106c:	1f 93       	push	r17
    106e:	cf 93       	push	r28
    1070:	df 93       	push	r29
    1072:	cd b7       	in	r28, 0x3d	; 61
    1074:	de b7       	in	r29, 0x3e	; 62
    1076:	61 97       	sbiw	r28, 0x11	; 17
    1078:	0f b6       	in	r0, 0x3f	; 63
    107a:	f8 94       	cli
    107c:	de bf       	out	0x3e, r29	; 62
    107e:	0f be       	out	0x3f, r0	; 63
    1080:	cd bf       	out	0x3d, r28	; 61
    1082:	86 e0       	ldi	r24, 0x06	; 6
    1084:	ec e1       	ldi	r30, 0x1C	; 28
    1086:	f1 e0       	ldi	r31, 0x01	; 1
    1088:	de 01       	movw	r26, r28
    108a:	11 96       	adiw	r26, 0x01	; 1
    108c:	01 90       	ld	r0, Z+
    108e:	0d 92       	st	X+, r0
    1090:	8a 95       	dec	r24
    1092:	e1 f7       	brne	.-8      	; 0x108c <venda_avista+0x28>
    1094:	86 e0       	ldi	r24, 0x06	; 6
    1096:	ec e1       	ldi	r30, 0x1C	; 28
    1098:	f1 e0       	ldi	r31, 0x01	; 1
    109a:	de 01       	movw	r26, r28
    109c:	17 96       	adiw	r26, 0x07	; 7
    109e:	01 90       	ld	r0, Z+
    10a0:	0d 92       	st	X+, r0
    10a2:	8a 95       	dec	r24
    10a4:	e1 f7       	brne	.-8      	; 0x109e <venda_avista+0x3a>
    10a6:	85 e0       	ldi	r24, 0x05	; 5
    10a8:	e2 e2       	ldi	r30, 0x22	; 34
    10aa:	f1 e0       	ldi	r31, 0x01	; 1
    10ac:	de 01       	movw	r26, r28
    10ae:	1d 96       	adiw	r26, 0x0d	; 13
    10b0:	01 90       	ld	r0, Z+
    10b2:	0d 92       	st	X+, r0
    10b4:	8a 95       	dec	r24
    10b6:	e1 f7       	brne	.-8      	; 0x10b0 <venda_avista+0x4c>
    10b8:	0e 94 2c 04 	call	0x858	; 0x858 <tela_vendaAvista>
    10bc:	ce 01       	movw	r24, r28
    10be:	0d 96       	adiw	r24, 0x0d	; 13
    10c0:	0e 94 e6 01 	call	0x3cc	; 0x3cc <recebe_valor>
    10c4:	0e 94 55 03 	call	0x6aa	; 0x6aa <metodo_pagamento>
    10c8:	d8 2e       	mov	r13, r24
    10ca:	0e 94 6f 03 	call	0x6de	; 0x6de <aguarda_cartao>
    10ce:	bc 01       	movw	r22, r24
    10d0:	77 27       	eor	r23, r23
    10d2:	ce 01       	movw	r24, r28
    10d4:	07 96       	adiw	r24, 0x07	; 7
    10d6:	7c 01       	movw	r14, r24
    10d8:	8e 01       	movw	r16, r28
    10da:	0f 5f       	subi	r16, 0xFF	; 255
    10dc:	1f 4f       	sbci	r17, 0xFF	; 255
    10de:	9e 01       	movw	r18, r28
    10e0:	23 5f       	subi	r18, 0xF3	; 243
    10e2:	3f 4f       	sbci	r19, 0xFF	; 255
    10e4:	4d 2d       	mov	r20, r13
    10e6:	81 e0       	ldi	r24, 0x01	; 1
    10e8:	90 e0       	ldi	r25, 0x00	; 0
    10ea:	0e 94 59 07 	call	0xeb2	; 0xeb2 <processa_pagamento>
    10ee:	61 96       	adiw	r28, 0x11	; 17
    10f0:	0f b6       	in	r0, 0x3f	; 63
    10f2:	f8 94       	cli
    10f4:	de bf       	out	0x3e, r29	; 62
    10f6:	0f be       	out	0x3f, r0	; 63
    10f8:	cd bf       	out	0x3d, r28	; 61
    10fa:	df 91       	pop	r29
    10fc:	cf 91       	pop	r28
    10fe:	1f 91       	pop	r17
    1100:	0f 91       	pop	r16
    1102:	ff 90       	pop	r15
    1104:	ef 90       	pop	r14
    1106:	df 90       	pop	r13
    1108:	08 95       	ret

0000110a <processa_venda>:
    110a:	81 33       	cpi	r24, 0x31	; 49
    110c:	91 05       	cpc	r25, r1
    110e:	19 f4       	brne	.+6      	; 0x1116 <processa_venda+0xc>
    1110:	0e 94 32 08 	call	0x1064	; 0x1064 <venda_avista>
    1114:	08 95       	ret
    1116:	82 33       	cpi	r24, 0x32	; 50
    1118:	91 05       	cpc	r25, r1
    111a:	19 f4       	brne	.+6      	; 0x1122 <processa_venda+0x18>
    111c:	0e 94 d6 07 	call	0xfac	; 0xfac <venda_parcelada>
    1120:	08 95       	ret
    1122:	c3 97       	sbiw	r24, 0x33	; 51
    1124:	11 f4       	brne	.+4      	; 0x112a <processa_venda+0x20>
    1126:	0e 94 d5 06 	call	0xdaa	; 0xdaa <estorno>
    112a:	08 95       	ret

0000112c <menuADM>:
    112c:	2f ef       	ldi	r18, 0xFF	; 255
    112e:	8e e9       	ldi	r24, 0x9E	; 158
    1130:	94 e2       	ldi	r25, 0x24	; 36
    1132:	21 50       	subi	r18, 0x01	; 1
    1134:	80 40       	sbci	r24, 0x00	; 0
    1136:	90 40       	sbci	r25, 0x00	; 0
    1138:	e1 f7       	brne	.-8      	; 0x1132 <menuADM+0x6>
    113a:	00 c0       	rjmp	.+0      	; 0x113c <menuADM+0x10>
    113c:	00 00       	nop
    113e:	83 e0       	ldi	r24, 0x03	; 3
    1140:	0e 94 58 01 	call	0x2b0	; 0x2b0 <writeInstruction>
    1144:	83 ed       	ldi	r24, 0xD3	; 211
    1146:	92 e0       	ldi	r25, 0x02	; 2
    1148:	0e 94 2f 01 	call	0x25e	; 0x25e <writeString>
    114c:	80 ec       	ldi	r24, 0xC0	; 192
    114e:	0e 94 58 01 	call	0x2b0	; 0x2b0 <writeInstruction>
    1152:	83 ee       	ldi	r24, 0xE3	; 227
    1154:	92 e0       	ldi	r25, 0x02	; 2
    1156:	0e 94 2f 01 	call	0x25e	; 0x25e <writeString>
    115a:	2f ef       	ldi	r18, 0xFF	; 255
    115c:	8d e3       	ldi	r24, 0x3D	; 61
    115e:	99 e4       	ldi	r25, 0x49	; 73
    1160:	21 50       	subi	r18, 0x01	; 1
    1162:	80 40       	sbci	r24, 0x00	; 0
    1164:	90 40       	sbci	r25, 0x00	; 0
    1166:	e1 f7       	brne	.-8      	; 0x1160 <menuADM+0x34>
    1168:	00 c0       	rjmp	.+0      	; 0x116a <menuADM+0x3e>
    116a:	00 00       	nop
    116c:	81 e0       	ldi	r24, 0x01	; 1
    116e:	0e 94 58 01 	call	0x2b0	; 0x2b0 <writeInstruction>
    1172:	80 e8       	ldi	r24, 0x80	; 128
    1174:	0e 94 58 01 	call	0x2b0	; 0x2b0 <writeInstruction>
    1178:	84 ef       	ldi	r24, 0xF4	; 244
    117a:	92 e0       	ldi	r25, 0x02	; 2
    117c:	0e 94 2f 01 	call	0x25e	; 0x25e <writeString>
    1180:	80 ec       	ldi	r24, 0xC0	; 192
    1182:	0e 94 58 01 	call	0x2b0	; 0x2b0 <writeInstruction>
    1186:	85 e0       	ldi	r24, 0x05	; 5
    1188:	93 e0       	ldi	r25, 0x03	; 3
    118a:	0e 94 2f 01 	call	0x25e	; 0x25e <writeString>
    118e:	08 95       	ret

00001190 <tela_instrucoes_configOper>:
    1190:	81 e0       	ldi	r24, 0x01	; 1
    1192:	0e 94 58 01 	call	0x2b0	; 0x2b0 <writeInstruction>
    1196:	80 e8       	ldi	r24, 0x80	; 128
    1198:	0e 94 58 01 	call	0x2b0	; 0x2b0 <writeInstruction>
    119c:	86 e1       	ldi	r24, 0x16	; 22
    119e:	93 e0       	ldi	r25, 0x03	; 3
    11a0:	0e 94 2f 01 	call	0x25e	; 0x25e <writeString>
    11a4:	80 ec       	ldi	r24, 0xC0	; 192
    11a6:	0e 94 58 01 	call	0x2b0	; 0x2b0 <writeInstruction>
    11aa:	87 e2       	ldi	r24, 0x27	; 39
    11ac:	93 e0       	ldi	r25, 0x03	; 3
    11ae:	0e 94 2f 01 	call	0x25e	; 0x25e <writeString>
    11b2:	2f ef       	ldi	r18, 0xFF	; 255
    11b4:	8d e3       	ldi	r24, 0x3D	; 61
    11b6:	99 e4       	ldi	r25, 0x49	; 73
    11b8:	21 50       	subi	r18, 0x01	; 1
    11ba:	80 40       	sbci	r24, 0x00	; 0
    11bc:	90 40       	sbci	r25, 0x00	; 0
    11be:	e1 f7       	brne	.-8      	; 0x11b8 <tela_instrucoes_configOper+0x28>
    11c0:	00 c0       	rjmp	.+0      	; 0x11c2 <tela_instrucoes_configOper+0x32>
    11c2:	00 00       	nop
    11c4:	08 95       	ret

000011c6 <tela_continuar_modo_atual>:
    11c6:	81 e0       	ldi	r24, 0x01	; 1
    11c8:	0e 94 58 01 	call	0x2b0	; 0x2b0 <writeInstruction>
    11cc:	80 e8       	ldi	r24, 0x80	; 128
    11ce:	0e 94 58 01 	call	0x2b0	; 0x2b0 <writeInstruction>
    11d2:	86 e3       	ldi	r24, 0x36	; 54
    11d4:	93 e0       	ldi	r25, 0x03	; 3
    11d6:	0e 94 2f 01 	call	0x25e	; 0x25e <writeString>
    11da:	80 ec       	ldi	r24, 0xC0	; 192
    11dc:	0e 94 58 01 	call	0x2b0	; 0x2b0 <writeInstruction>
    11e0:	86 e4       	ldi	r24, 0x46	; 70
    11e2:	93 e0       	ldi	r25, 0x03	; 3
    11e4:	0e 94 2f 01 	call	0x25e	; 0x25e <writeString>
    11e8:	08 95       	ret

000011ea <continuar_modo_atual>:
    11ea:	cf 93       	push	r28
    11ec:	df 93       	push	r29
    11ee:	ec 01       	movw	r28, r24
    11f0:	0e 94 e3 08 	call	0x11c6	; 0x11c6 <tela_continuar_modo_atual>
    11f4:	89 e1       	ldi	r24, 0x19	; 25
    11f6:	88 83       	st	Y, r24
    11f8:	03 c0       	rjmp	.+6      	; 0x1200 <continuar_modo_atual+0x16>
    11fa:	0e 94 94 00 	call	0x128	; 0x128 <teclaDebouce>
    11fe:	88 83       	st	Y, r24
    1200:	98 81       	ld	r25, Y
    1202:	9b 30       	cpi	r25, 0x0B	; 11
    1204:	11 f0       	breq	.+4      	; 0x120a <continuar_modo_atual+0x20>
    1206:	99 30       	cpi	r25, 0x09	; 9
    1208:	c1 f7       	brne	.-16     	; 0x11fa <continuar_modo_atual+0x10>
    120a:	81 e0       	ldi	r24, 0x01	; 1
    120c:	9b 30       	cpi	r25, 0x0B	; 11
    120e:	09 f4       	brne	.+2      	; 0x1212 <continuar_modo_atual+0x28>
    1210:	80 e0       	ldi	r24, 0x00	; 0
    1212:	df 91       	pop	r29
    1214:	cf 91       	pop	r28
    1216:	08 95       	ret

00001218 <mudarStatusOper>:
    1218:	fc 01       	movw	r30, r24
    121a:	80 81       	ld	r24, Z
    121c:	90 e0       	ldi	r25, 0x00	; 0
    121e:	fc 01       	movw	r30, r24
    1220:	ee 5f       	subi	r30, 0xFE	; 254
    1222:	fe 4f       	sbci	r31, 0xFE	; 254
    1224:	20 81       	ld	r18, Z
    1226:	21 30       	cpi	r18, 0x01	; 1
    1228:	29 f4       	brne	.+10     	; 0x1234 <mudarStatusOper+0x1c>
    122a:	fc 01       	movw	r30, r24
    122c:	ee 5f       	subi	r30, 0xFE	; 254
    122e:	fe 4f       	sbci	r31, 0xFE	; 254
    1230:	10 82       	st	Z, r1
    1232:	05 c0       	rjmp	.+10     	; 0x123e <mudarStatusOper+0x26>
    1234:	fc 01       	movw	r30, r24
    1236:	ee 5f       	subi	r30, 0xFE	; 254
    1238:	fe 4f       	sbci	r31, 0xFE	; 254
    123a:	21 e0       	ldi	r18, 0x01	; 1
    123c:	20 83       	st	Z, r18
    123e:	81 e0       	ldi	r24, 0x01	; 1
    1240:	0e 94 58 01 	call	0x2b0	; 0x2b0 <writeInstruction>
    1244:	80 e8       	ldi	r24, 0x80	; 128
    1246:	0e 94 58 01 	call	0x2b0	; 0x2b0 <writeInstruction>
    124a:	85 e5       	ldi	r24, 0x55	; 85
    124c:	93 e0       	ldi	r25, 0x03	; 3
    124e:	0e 94 2f 01 	call	0x25e	; 0x25e <writeString>
    1252:	80 ec       	ldi	r24, 0xC0	; 192
    1254:	0e 94 58 01 	call	0x2b0	; 0x2b0 <writeInstruction>
    1258:	8e e5       	ldi	r24, 0x5E	; 94
    125a:	93 e0       	ldi	r25, 0x03	; 3
    125c:	0e 94 2f 01 	call	0x25e	; 0x25e <writeString>
    1260:	ff ef       	ldi	r31, 0xFF	; 255
    1262:	23 ed       	ldi	r18, 0xD3	; 211
    1264:	80 e3       	ldi	r24, 0x30	; 48
    1266:	f1 50       	subi	r31, 0x01	; 1
    1268:	20 40       	sbci	r18, 0x00	; 0
    126a:	80 40       	sbci	r24, 0x00	; 0
    126c:	e1 f7       	brne	.-8      	; 0x1266 <mudarStatusOper+0x4e>
    126e:	00 c0       	rjmp	.+0      	; 0x1270 <mudarStatusOper+0x58>
    1270:	00 00       	nop
    1272:	08 95       	ret

00001274 <tela_status_oper>:
    1274:	83 e0       	ldi	r24, 0x03	; 3
    1276:	0e 94 58 01 	call	0x2b0	; 0x2b0 <writeInstruction>
    127a:	89 e6       	ldi	r24, 0x69	; 105
    127c:	93 e0       	ldi	r25, 0x03	; 3
    127e:	0e 94 2f 01 	call	0x25e	; 0x25e <writeString>
    1282:	80 91 02 01 	lds	r24, 0x0102	; 0x800102 <statusOperadores>
    1286:	81 30       	cpi	r24, 0x01	; 1
    1288:	29 f4       	brne	.+10     	; 0x1294 <tela_status_oper+0x20>
    128a:	80 e7       	ldi	r24, 0x70	; 112
    128c:	93 e0       	ldi	r25, 0x03	; 3
    128e:	0e 94 2f 01 	call	0x25e	; 0x25e <writeString>
    1292:	04 c0       	rjmp	.+8      	; 0x129c <tela_status_oper+0x28>
    1294:	8b e7       	ldi	r24, 0x7B	; 123
    1296:	93 e0       	ldi	r25, 0x03	; 3
    1298:	0e 94 2f 01 	call	0x25e	; 0x25e <writeString>
    129c:	80 ec       	ldi	r24, 0xC0	; 192
    129e:	0e 94 58 01 	call	0x2b0	; 0x2b0 <writeInstruction>
    12a2:	86 e8       	ldi	r24, 0x86	; 134
    12a4:	93 e0       	ldi	r25, 0x03	; 3
    12a6:	0e 94 2f 01 	call	0x25e	; 0x25e <writeString>
    12aa:	80 91 03 01 	lds	r24, 0x0103	; 0x800103 <statusOperadores+0x1>
    12ae:	81 30       	cpi	r24, 0x01	; 1
    12b0:	29 f4       	brne	.+10     	; 0x12bc <tela_status_oper+0x48>
    12b2:	8d e8       	ldi	r24, 0x8D	; 141
    12b4:	93 e0       	ldi	r25, 0x03	; 3
    12b6:	0e 94 2f 01 	call	0x25e	; 0x25e <writeString>
    12ba:	08 95       	ret
    12bc:	88 e9       	ldi	r24, 0x98	; 152
    12be:	93 e0       	ldi	r25, 0x03	; 3
    12c0:	0e 94 2f 01 	call	0x25e	; 0x25e <writeString>
    12c4:	08 95       	ret

000012c6 <modoADM>:
    12c6:	cf 93       	push	r28
    12c8:	df 93       	push	r29
    12ca:	ec 01       	movw	r28, r24
    12cc:	88 81       	ld	r24, Y
    12ce:	88 23       	and	r24, r24
    12d0:	49 f1       	breq	.+82     	; 0x1324 <modoADM+0x5e>
    12d2:	81 30       	cpi	r24, 0x01	; 1
    12d4:	39 f1       	breq	.+78     	; 0x1324 <modoADM+0x5e>
    12d6:	82 30       	cpi	r24, 0x02	; 2
    12d8:	29 f5       	brne	.+74     	; 0x1324 <modoADM+0x5e>
    12da:	0e 94 c8 08 	call	0x1190	; 0x1190 <tela_instrucoes_configOper>
    12de:	0e 94 3a 09 	call	0x1274	; 0x1274 <tela_status_oper>
    12e2:	89 e1       	ldi	r24, 0x19	; 25
    12e4:	88 83       	st	Y, r24
    12e6:	03 c0       	rjmp	.+6      	; 0x12ee <modoADM+0x28>
    12e8:	0e 94 94 00 	call	0x128	; 0x128 <teclaDebouce>
    12ec:	88 83       	st	Y, r24
    12ee:	88 81       	ld	r24, Y
    12f0:	89 31       	cpi	r24, 0x19	; 25
    12f2:	d1 f3       	breq	.-12     	; 0x12e8 <modoADM+0x22>
    12f4:	82 30       	cpi	r24, 0x02	; 2
    12f6:	20 f4       	brcc	.+8      	; 0x1300 <modoADM+0x3a>
    12f8:	ce 01       	movw	r24, r28
    12fa:	0e 94 0c 09 	call	0x1218	; 0x1218 <mudarStatusOper>
    12fe:	10 c0       	rjmp	.+32     	; 0x1320 <modoADM+0x5a>
    1300:	83 e0       	ldi	r24, 0x03	; 3
    1302:	0e 94 58 01 	call	0x2b0	; 0x2b0 <writeInstruction>
    1306:	83 ea       	ldi	r24, 0xA3	; 163
    1308:	93 e0       	ldi	r25, 0x03	; 3
    130a:	0e 94 2f 01 	call	0x25e	; 0x25e <writeString>
    130e:	2f ef       	ldi	r18, 0xFF	; 255
    1310:	83 ed       	ldi	r24, 0xD3	; 211
    1312:	90 e3       	ldi	r25, 0x30	; 48
    1314:	21 50       	subi	r18, 0x01	; 1
    1316:	80 40       	sbci	r24, 0x00	; 0
    1318:	90 40       	sbci	r25, 0x00	; 0
    131a:	e1 f7       	brne	.-8      	; 0x1314 <modoADM+0x4e>
    131c:	00 c0       	rjmp	.+0      	; 0x131e <modoADM+0x58>
    131e:	00 00       	nop
    1320:	89 e1       	ldi	r24, 0x19	; 25
    1322:	88 83       	st	Y, r24
    1324:	89 e1       	ldi	r24, 0x19	; 25
    1326:	88 83       	st	Y, r24
    1328:	df 91       	pop	r29
    132a:	cf 91       	pop	r28
    132c:	08 95       	ret

0000132e <__vector_11>:
//////////////////////////////////////////////////////////////////////////
						//INTERUPES//
//////////////////////////////////////////////////////////////////////////


ISR(TIMER1_COMPA_vect){
    132e:	1f 92       	push	r1
    1330:	0f 92       	push	r0
    1332:	0f b6       	in	r0, 0x3f	; 63
    1334:	0f 92       	push	r0
    1336:	11 24       	eor	r1, r1
    1338:	2f 93       	push	r18
    133a:	3f 93       	push	r19
    133c:	4f 93       	push	r20
    133e:	5f 93       	push	r21
    1340:	6f 93       	push	r22
    1342:	7f 93       	push	r23
    1344:	8f 93       	push	r24
    1346:	9f 93       	push	r25
    1348:	af 93       	push	r26
    134a:	bf 93       	push	r27
    134c:	ef 93       	push	r30
    134e:	ff 93       	push	r31
	//writeString("."); //fica escrevendo uns pontos na tela pra gente ver +- se ta 1 seg
	if (teclaG == KEY_CONFIRMA)
    1350:	80 91 01 01 	lds	r24, 0x0101	; 0x800101 <teclaG>
    1354:	8b 30       	cpi	r24, 0x0B	; 11
    1356:	31 f4       	brne	.+12     	; 0x1364 <__vector_11+0x36>
	contTelaOnOff++;
    1358:	80 91 b3 03 	lds	r24, 0x03B3	; 0x8003b3 <contTelaOnOff>
    135c:	8f 5f       	subi	r24, 0xFF	; 255
    135e:	80 93 b3 03 	sts	0x03B3, r24	; 0x8003b3 <contTelaOnOff>
    1362:	02 c0       	rjmp	.+4      	; 0x1368 <__vector_11+0x3a>
	else
	contTelaOnOff = 0;
    1364:	10 92 b3 03 	sts	0x03B3, r1	; 0x8003b3 <contTelaOnOff>
	
	if(contTelaOnOff == 3){ // se for # por 3 segundos
    1368:	80 91 b3 03 	lds	r24, 0x03B3	; 0x8003b3 <contTelaOnOff>
    136c:	83 30       	cpi	r24, 0x03	; 3
    136e:	c1 f4       	brne	.+48     	; 0x13a0 <__vector_11+0x72>
		if (telaOnOf){
    1370:	80 91 b2 03 	lds	r24, 0x03B2	; 0x8003b2 <__data_end>
    1374:	88 23       	and	r24, r24
    1376:	49 f0       	breq	.+18     	; 0x138a <__vector_11+0x5c>
				writeInstruction(lcd_LineOne | lcd_SetCursor);
    1378:	80 e8       	ldi	r24, 0x80	; 128
    137a:	0e 94 58 01 	call	0x2b0	; 0x2b0 <writeInstruction>
				writeInstruction(lcd_DisplayOff); //desliga se tiver ligada
    137e:	88 e0       	ldi	r24, 0x08	; 8
    1380:	0e 94 58 01 	call	0x2b0	; 0x2b0 <writeInstruction>
				telaOnOf = 0;
    1384:	10 92 b2 03 	sts	0x03B2, r1	; 0x8003b2 <__data_end>
    1388:	09 c0       	rjmp	.+18     	; 0x139c <__vector_11+0x6e>
			}else{
				writeInstruction(lcd_LineOne | lcd_SetCursor);
    138a:	80 e8       	ldi	r24, 0x80	; 128
    138c:	0e 94 58 01 	call	0x2b0	; 0x2b0 <writeInstruction>
				writeInstruction(lcd_DisplayOn); //liga se tiver desligada
    1390:	8c e0       	ldi	r24, 0x0C	; 12
    1392:	0e 94 58 01 	call	0x2b0	; 0x2b0 <writeInstruction>
				telaOnOf = 1;
    1396:	81 e0       	ldi	r24, 0x01	; 1
    1398:	80 93 b2 03 	sts	0x03B2, r24	; 0x8003b2 <__data_end>
		}
		contTelaOnOff = 0;
    139c:	10 92 b3 03 	sts	0x03B3, r1	; 0x8003b3 <contTelaOnOff>
	}
}
    13a0:	ff 91       	pop	r31
    13a2:	ef 91       	pop	r30
    13a4:	bf 91       	pop	r27
    13a6:	af 91       	pop	r26
    13a8:	9f 91       	pop	r25
    13aa:	8f 91       	pop	r24
    13ac:	7f 91       	pop	r23
    13ae:	6f 91       	pop	r22
    13b0:	5f 91       	pop	r21
    13b2:	4f 91       	pop	r20
    13b4:	3f 91       	pop	r19
    13b6:	2f 91       	pop	r18
    13b8:	0f 90       	pop	r0
    13ba:	0f be       	out	0x3f, r0	; 63
    13bc:	0f 90       	pop	r0
    13be:	1f 90       	pop	r1
    13c0:	18 95       	reti

000013c2 <setTimer1_UmSeg>:

void setTimer1_UmSeg(){
	// 16 MHz -> 1 instruo = 62.5ns
	// Pre scaler de 256 -> 62500Hz logo 62500 contagens para 1 seg

	TCCR1A = 4; //modo comparao
    13c2:	84 e0       	ldi	r24, 0x04	; 4
    13c4:	80 93 80 00 	sts	0x0080, r24	; 0x800080 <__TEXT_REGION_LENGTH__+0x7f8080>
	TCCR1B = 0x4; //pre scaler de 256
    13c8:	80 93 81 00 	sts	0x0081, r24	; 0x800081 <__TEXT_REGION_LENGTH__+0x7f8081>
	TCNT1 = 0;  //contagem comea do zero
    13cc:	10 92 85 00 	sts	0x0085, r1	; 0x800085 <__TEXT_REGION_LENGTH__+0x7f8085>
    13d0:	10 92 84 00 	sts	0x0084, r1	; 0x800084 <__TEXT_REGION_LENGTH__+0x7f8084>
	OCR1A = 62500; //at onde tem q contar
    13d4:	84 e2       	ldi	r24, 0x24	; 36
    13d6:	94 ef       	ldi	r25, 0xF4	; 244
    13d8:	90 93 89 00 	sts	0x0089, r25	; 0x800089 <__TEXT_REGION_LENGTH__+0x7f8089>
    13dc:	80 93 88 00 	sts	0x0088, r24	; 0x800088 <__TEXT_REGION_LENGTH__+0x7f8088>
	TIMSK1 |= (1<<OCIE1A); //habilita interrupo por comparao em 
    13e0:	ef e6       	ldi	r30, 0x6F	; 111
    13e2:	f0 e0       	ldi	r31, 0x00	; 0
    13e4:	80 81       	ld	r24, Z
    13e6:	82 60       	ori	r24, 0x02	; 2
    13e8:	80 83       	st	Z, r24
	sei(); // talvez colocar no mais ??
    13ea:	78 94       	sei
    13ec:	08 95       	ret

000013ee <main>:
}

int main(){
	
	USART_INIT(UBRR);
    13ee:	83 e3       	ldi	r24, 0x33	; 51
    13f0:	90 e0       	ldi	r25, 0x00	; 0
    13f2:	0e 94 d5 00 	call	0x1aa	; 0x1aa <USART_INIT>
	setup_lcd();
    13f6:	0e 94 6e 01 	call	0x2dc	; 0x2dc <setup_lcd>
	setupBotoes();
	setTimer1_UmSeg();
    13fa:	0e 94 e1 09 	call	0x13c2	; 0x13c2 <setTimer1_UmSeg>
	*/
	
	//rotina para ligar 1 vez
	// ...
	
	writeInstruction(lcd_DisplayOn);
    13fe:	8c e0       	ldi	r24, 0x0C	; 12
    1400:	0e 94 58 01 	call	0x2b0	; 0x2b0 <writeInstruction>
	tela_bloqueio_inicial(); //comenta se quiser testar mais rapido
    1404:	0e 94 2b 03 	call	0x656	; 0x656 <tela_bloqueio_inicial>
	
	USART_INIT(UBRR);
	setup_lcd();
	setupBotoes();
	setTimer1_UmSeg();
	char loop1 = 1; //para ele agir diferente no 1 loop
    1408:	c1 e0       	ldi	r28, 0x01	; 1
	writeInstruction(lcd_DisplayOn);
	tela_bloqueio_inicial(); //comenta se quiser testar mais rapido
	
	while(1){
		//writeInstruction(lcd_DisplayOn); // comentar quando colocar a rotina de ligar a tela
		if(loop1){
    140a:	cc 23       	and	r28, r28
    140c:	41 f0       	breq	.+16     	; 0x141e <main+0x30>
			userIndex = login(&teclaG); //o que faz tudo com relao a senha inicial, retorna quem entrou (0 adm, 1 e 2 operadores 1 e 2)
    140e:	81 e0       	ldi	r24, 0x01	; 1
    1410:	91 e0       	ldi	r25, 0x01	; 1
    1412:	0e 94 bc 02 	call	0x578	; 0x578 <login>
    1416:	80 93 00 01 	sts	0x0100, r24	; 0x800100 <__DATA_REGION_ORIGIN__>
			loop1 = 0;
    141a:	c0 e0       	ldi	r28, 0x00	; 0
    141c:	0c c0       	rjmp	.+24     	; 0x1436 <main+0x48>
		}else{
			continuar = continuar_modo_atual(&teclaG);
    141e:	81 e0       	ldi	r24, 0x01	; 1
    1420:	91 e0       	ldi	r25, 0x01	; 1
    1422:	0e 94 f5 08 	call	0x11ea	; 0x11ea <continuar_modo_atual>
			if(!continuar)
    1426:	81 11       	cpse	r24, r1
    1428:	06 c0       	rjmp	.+12     	; 0x1436 <main+0x48>
				userIndex = login(&teclaG); //pode mudar o modo adm <-> oper
    142a:	81 e0       	ldi	r24, 0x01	; 1
    142c:	91 e0       	ldi	r25, 0x01	; 1
    142e:	0e 94 bc 02 	call	0x578	; 0x578 <login>
    1432:	80 93 00 01 	sts	0x0100, r24	; 0x800100 <__DATA_REGION_ORIGIN__>
		}
		teclaG = TECLA_INVALIDA;
    1436:	89 e1       	ldi	r24, 0x19	; 25
    1438:	80 93 01 01 	sts	0x0101, r24	; 0x800101 <teclaG>
		if(userIndex != 0){
    143c:	80 91 00 01 	lds	r24, 0x0100	; 0x800100 <__DATA_REGION_ORIGIN__>
    1440:	88 23       	and	r24, r24
    1442:	99 f0       	breq	.+38     	; 0x146a <main+0x7c>
			while(1){
				writeInstruction(lcd_Home | lcd_Clear);
    1444:	83 e0       	ldi	r24, 0x03	; 3
    1446:	0e 94 58 01 	call	0x2b0	; 0x2b0 <writeInstruction>
				menu_vendas();
    144a:	0e 94 19 03 	call	0x632	; 0x632 <menu_vendas>
				while(teclaG+49 > 51){
    144e:	04 c0       	rjmp	.+8      	; 0x1458 <main+0x6a>
					teclaG = teclaDebouce();
    1450:	0e 94 94 00 	call	0x128	; 0x128 <teclaDebouce>
    1454:	80 93 01 01 	sts	0x0101, r24	; 0x800101 <teclaG>
		teclaG = TECLA_INVALIDA;
		if(userIndex != 0){
			while(1){
				writeInstruction(lcd_Home | lcd_Clear);
				menu_vendas();
				while(teclaG+49 > 51){
    1458:	80 91 01 01 	lds	r24, 0x0101	; 0x800101 <teclaG>
    145c:	90 e0       	ldi	r25, 0x00	; 0
    145e:	c1 96       	adiw	r24, 0x31	; 49
    1460:	84 33       	cpi	r24, 0x34	; 52
    1462:	91 05       	cpc	r25, r1
    1464:	ac f7       	brge	.-22     	; 0x1450 <main+0x62>
					teclaG = teclaDebouce();
				}
				processa_venda(teclaG+49);	// para testar carto por aprox coloca CW + 6dig docartao + 6 dig da senha no serial
    1466:	0e 94 85 08 	call	0x110a	; 0x110a <processa_venda>
				break;
			}
		}
		
		if(userIndex == 0){
    146a:	80 91 00 01 	lds	r24, 0x0100	; 0x800100 <__DATA_REGION_ORIGIN__>
    146e:	81 11       	cpse	r24, r1
    1470:	cc cf       	rjmp	.-104    	; 0x140a <main+0x1c>
			menuADM();
    1472:	0e 94 96 08 	call	0x112c	; 0x112c <menuADM>
			teclaG = TECLA_INVALIDA;
    1476:	89 e1       	ldi	r24, 0x19	; 25
    1478:	80 93 01 01 	sts	0x0101, r24	; 0x800101 <teclaG>
			while(teclaG == TECLA_INVALIDA){
    147c:	04 c0       	rjmp	.+8      	; 0x1486 <main+0x98>
				teclaG = teclaDebouce();
    147e:	0e 94 94 00 	call	0x128	; 0x128 <teclaDebouce>
    1482:	80 93 01 01 	sts	0x0101, r24	; 0x800101 <teclaG>
		}
		
		if(userIndex == 0){
			menuADM();
			teclaG = TECLA_INVALIDA;
			while(teclaG == TECLA_INVALIDA){
    1486:	80 91 01 01 	lds	r24, 0x0101	; 0x800101 <teclaG>
    148a:	89 31       	cpi	r24, 0x19	; 25
    148c:	c1 f3       	breq	.-16     	; 0x147e <main+0x90>
				teclaG = teclaDebouce();
			}
			modoADM(&teclaG);
    148e:	81 e0       	ldi	r24, 0x01	; 1
    1490:	91 e0       	ldi	r25, 0x01	; 1
    1492:	0e 94 63 09 	call	0x12c6	; 0x12c6 <modoADM>
    1496:	b9 cf       	rjmp	.-142    	; 0x140a <main+0x1c>

00001498 <__tablejump2__>:
    1498:	ee 0f       	add	r30, r30
    149a:	ff 1f       	adc	r31, r31
    149c:	05 90       	lpm	r0, Z+
    149e:	f4 91       	lpm	r31, Z
    14a0:	e0 2d       	mov	r30, r0
    14a2:	09 94       	ijmp

000014a4 <_exit>:
    14a4:	f8 94       	cli

000014a6 <__stop_program>:
    14a6:	ff cf       	rjmp	.-2      	; 0x14a6 <__stop_program>
