
mic_pay.elf:     file format elf32-avr

Sections:
Idx Name          Size      VMA       LMA       File off  Algn
  0 .data         0000036a  00800100  0000064c  000006e0  2**0
                  CONTENTS, ALLOC, LOAD, DATA
  1 .text         0000064c  00000000  00000000  00000094  2**1
                  CONTENTS, ALLOC, LOAD, READONLY, CODE
  2 .bss          00000064  0080046a  0080046a  00000a4a  2**0
                  ALLOC
  3 .comment      00000030  00000000  00000000  00000a4a  2**0
                  CONTENTS, READONLY
  4 .note.gnu.avr.deviceinfo 00000040  00000000  00000000  00000a7c  2**2
                  CONTENTS, READONLY
  5 .debug_aranges 000002e0  00000000  00000000  00000abc  2**0
                  CONTENTS, READONLY, DEBUGGING
  6 .debug_info   00003e08  00000000  00000000  00000d9c  2**0
                  CONTENTS, READONLY, DEBUGGING
  7 .debug_abbrev 00000962  00000000  00000000  00004ba4  2**0
                  CONTENTS, READONLY, DEBUGGING
  8 .debug_line   00002372  00000000  00000000  00005506  2**0
                  CONTENTS, READONLY, DEBUGGING
  9 .debug_frame  00000970  00000000  00000000  00007878  2**2
                  CONTENTS, READONLY, DEBUGGING
 10 .debug_str    00000bd4  00000000  00000000  000081e8  2**0
                  CONTENTS, READONLY, DEBUGGING
 11 .debug_loc    00003078  00000000  00000000  00008dbc  2**0
                  CONTENTS, READONLY, DEBUGGING
 12 .debug_ranges 000002e8  00000000  00000000  0000be34  2**0
                  CONTENTS, READONLY, DEBUGGING

Disassembly of section .text:

00000000 <__vectors>:
   0:	0c 94 40 00 	jmp	0x80	; 0x80 <__ctors_end>
   4:	0c 94 5d 00 	jmp	0xba	; 0xba <__bad_interrupt>
   8:	0c 94 5d 00 	jmp	0xba	; 0xba <__bad_interrupt>
   c:	0c 94 5d 00 	jmp	0xba	; 0xba <__bad_interrupt>
  10:	0c 94 5d 00 	jmp	0xba	; 0xba <__bad_interrupt>
  14:	0c 94 5d 00 	jmp	0xba	; 0xba <__bad_interrupt>
  18:	0c 94 5d 00 	jmp	0xba	; 0xba <__bad_interrupt>
  1c:	0c 94 5d 00 	jmp	0xba	; 0xba <__bad_interrupt>
  20:	0c 94 5d 00 	jmp	0xba	; 0xba <__bad_interrupt>
  24:	0c 94 5d 00 	jmp	0xba	; 0xba <__bad_interrupt>
  28:	0c 94 5d 00 	jmp	0xba	; 0xba <__bad_interrupt>
  2c:	0c 94 62 02 	jmp	0x4c4	; 0x4c4 <__vector_11>
  30:	0c 94 5d 00 	jmp	0xba	; 0xba <__bad_interrupt>
  34:	0c 94 5d 00 	jmp	0xba	; 0xba <__bad_interrupt>
  38:	0c 94 5d 00 	jmp	0xba	; 0xba <__bad_interrupt>
  3c:	0c 94 5d 00 	jmp	0xba	; 0xba <__bad_interrupt>
  40:	0c 94 5d 00 	jmp	0xba	; 0xba <__bad_interrupt>
  44:	0c 94 5d 00 	jmp	0xba	; 0xba <__bad_interrupt>
  48:	0c 94 5d 00 	jmp	0xba	; 0xba <__bad_interrupt>
  4c:	0c 94 5d 00 	jmp	0xba	; 0xba <__bad_interrupt>
  50:	0c 94 5d 00 	jmp	0xba	; 0xba <__bad_interrupt>
  54:	0c 94 5d 00 	jmp	0xba	; 0xba <__bad_interrupt>
  58:	0c 94 5d 00 	jmp	0xba	; 0xba <__bad_interrupt>
  5c:	0c 94 5d 00 	jmp	0xba	; 0xba <__bad_interrupt>
  60:	0c 94 5d 00 	jmp	0xba	; 0xba <__bad_interrupt>
  64:	0c 94 5d 00 	jmp	0xba	; 0xba <__bad_interrupt>
  68:	4d 02       	muls	r20, r29
  6a:	52 02       	muls	r21, r18
  6c:	4d 02       	muls	r20, r29
  6e:	5d 02       	muls	r21, r29
  70:	4d 02       	muls	r20, r29
  72:	5d 02       	muls	r21, r29
  74:	4d 02       	muls	r20, r29
  76:	4d 02       	muls	r20, r29
  78:	5d 02       	muls	r21, r29
  7a:	4d 02       	muls	r20, r29
  7c:	5d 02       	muls	r21, r29
  7e:	4d 02       	muls	r20, r29

00000080 <__ctors_end>:
  80:	11 24       	eor	r1, r1
  82:	1f be       	out	0x3f, r1	; 63
  84:	cf ef       	ldi	r28, 0xFF	; 255
  86:	d8 e0       	ldi	r29, 0x08	; 8
  88:	de bf       	out	0x3e, r29	; 62
  8a:	cd bf       	out	0x3d, r28	; 61

0000008c <__do_copy_data>:
  8c:	14 e0       	ldi	r17, 0x04	; 4
  8e:	a0 e0       	ldi	r26, 0x00	; 0
  90:	b1 e0       	ldi	r27, 0x01	; 1
  92:	ec e4       	ldi	r30, 0x4C	; 76
  94:	f6 e0       	ldi	r31, 0x06	; 6
  96:	02 c0       	rjmp	.+4      	; 0x9c <__do_copy_data+0x10>
  98:	05 90       	lpm	r0, Z+
  9a:	0d 92       	st	X+, r0
  9c:	aa 36       	cpi	r26, 0x6A	; 106
  9e:	b1 07       	cpc	r27, r17
  a0:	d9 f7       	brne	.-10     	; 0x98 <__do_copy_data+0xc>

000000a2 <__do_clear_bss>:
  a2:	24 e0       	ldi	r18, 0x04	; 4
  a4:	aa e6       	ldi	r26, 0x6A	; 106
  a6:	b4 e0       	ldi	r27, 0x04	; 4
  a8:	01 c0       	rjmp	.+2      	; 0xac <.do_clear_bss_start>

000000aa <.do_clear_bss_loop>:
  aa:	1d 92       	st	X+, r1

000000ac <.do_clear_bss_start>:
  ac:	ae 3c       	cpi	r26, 0xCE	; 206
  ae:	b2 07       	cpc	r27, r18
  b0:	e1 f7       	brne	.-8      	; 0xaa <.do_clear_bss_loop>
  b2:	0e 94 d1 02 	call	0x5a2	; 0x5a2 <main>
  b6:	0c 94 24 03 	jmp	0x648	; 0x648 <_exit>

000000ba <__bad_interrupt>:
  ba:	0c 94 00 00 	jmp	0	; 0x0 <__vectors>

000000be <carregaSaldo>:
	stringDATA[4] = mes%10 + 48;
	stringDATA[6] = ano/10 + 48;
	stringDATA[7] = ano%10 + 48;
}

void AtualizaStringDataHora(){
  be:	dc 01       	movw	r26, r24
  c0:	90 e0       	ldi	r25, 0x00	; 0
  c2:	17 c0       	rjmp	.+46     	; 0xf2 <carregaSaldo+0x34>
  c4:	20 91 70 04 	lds	r18, 0x0470	; 0x800470 <cartoesCadastrados>
  c8:	30 e0       	ldi	r19, 0x00	; 0
  ca:	49 2f       	mov	r20, r25
  cc:	50 e0       	ldi	r21, 0x00	; 0
  ce:	fd 01       	movw	r30, r26
  d0:	e4 0f       	add	r30, r20
  d2:	f5 1f       	adc	r31, r21
  d4:	60 81       	ld	r22, Z
  d6:	f9 01       	movw	r30, r18
  d8:	ee 0f       	add	r30, r30
  da:	ff 1f       	adc	r31, r31
  dc:	ee 0f       	add	r30, r30
  de:	ff 1f       	adc	r31, r31
  e0:	2e 0f       	add	r18, r30
  e2:	3f 1f       	adc	r19, r31
  e4:	2f 58       	subi	r18, 0x8F	; 143
  e6:	3b 4f       	sbci	r19, 0xFB	; 251
  e8:	f9 01       	movw	r30, r18
  ea:	e4 0f       	add	r30, r20
  ec:	f5 1f       	adc	r31, r21
  ee:	60 83       	st	Z, r22
  f0:	9f 5f       	subi	r25, 0xFF	; 255
  f2:	95 30       	cpi	r25, 0x05	; 5
  f4:	38 f3       	brcs	.-50     	; 0xc4 <carregaSaldo+0x6>
  f6:	08 95       	ret

000000f8 <carregaNumCartao>:
  f8:	dc 01       	movw	r26, r24
  fa:	90 e0       	ldi	r25, 0x00	; 0
  fc:	17 c0       	rjmp	.+46     	; 0x12c <carregaNumCartao+0x34>
  fe:	20 91 70 04 	lds	r18, 0x0470	; 0x800470 <cartoesCadastrados>
 102:	30 e0       	ldi	r19, 0x00	; 0
 104:	49 2f       	mov	r20, r25
 106:	50 e0       	ldi	r21, 0x00	; 0
 108:	fd 01       	movw	r30, r26
 10a:	e4 0f       	add	r30, r20
 10c:	f5 1f       	adc	r31, r21
 10e:	60 81       	ld	r22, Z
 110:	f9 01       	movw	r30, r18
 112:	ee 0f       	add	r30, r30
 114:	ff 1f       	adc	r31, r31
 116:	2e 0f       	add	r18, r30
 118:	3f 1f       	adc	r19, r31
 11a:	22 0f       	add	r18, r18
 11c:	33 1f       	adc	r19, r19
 11e:	23 55       	subi	r18, 0x53	; 83
 120:	3b 4f       	sbci	r19, 0xFB	; 251
 122:	f9 01       	movw	r30, r18
 124:	e4 0f       	add	r30, r20
 126:	f5 1f       	adc	r31, r21
 128:	60 83       	st	Z, r22
 12a:	9f 5f       	subi	r25, 0xFF	; 255
 12c:	96 30       	cpi	r25, 0x06	; 6
 12e:	38 f3       	brcs	.-50     	; 0xfe <carregaNumCartao+0x6>
 130:	08 95       	ret

00000132 <carregaSenha>:
 132:	dc 01       	movw	r26, r24
 134:	90 e0       	ldi	r25, 0x00	; 0
 136:	17 c0       	rjmp	.+46     	; 0x166 <carregaSenha+0x34>
 138:	20 91 70 04 	lds	r18, 0x0470	; 0x800470 <cartoesCadastrados>
 13c:	30 e0       	ldi	r19, 0x00	; 0
 13e:	49 2f       	mov	r20, r25
 140:	50 e0       	ldi	r21, 0x00	; 0
 142:	fd 01       	movw	r30, r26
 144:	e4 0f       	add	r30, r20
 146:	f5 1f       	adc	r31, r21
 148:	60 81       	ld	r22, Z
 14a:	f9 01       	movw	r30, r18
 14c:	ee 0f       	add	r30, r30
 14e:	ff 1f       	adc	r31, r31
 150:	2e 0f       	add	r18, r30
 152:	3f 1f       	adc	r19, r31
 154:	22 0f       	add	r18, r18
 156:	33 1f       	adc	r19, r19
 158:	21 57       	subi	r18, 0x71	; 113
 15a:	3b 4f       	sbci	r19, 0xFB	; 251
 15c:	f9 01       	movw	r30, r18
 15e:	e4 0f       	add	r30, r20
 160:	f5 1f       	adc	r31, r21
 162:	60 83       	st	Z, r22
 164:	9f 5f       	subi	r25, 0xFF	; 255
 166:	96 30       	cpi	r25, 0x06	; 6
 168:	38 f3       	brcs	.-50     	; 0x138 <carregaSenha+0x6>
 16a:	08 95       	ret

0000016c <addCartao>:
 16c:	0f 93       	push	r16
 16e:	1f 93       	push	r17
 170:	cf 93       	push	r28
 172:	df 93       	push	r29
 174:	20 91 70 04 	lds	r18, 0x0470	; 0x800470 <cartoesCadastrados>
 178:	25 30       	cpi	r18, 0x05	; 5
 17a:	b8 f4       	brcc	.+46     	; 0x1aa <addCartao+0x3e>
 17c:	eb 01       	movw	r28, r22
 17e:	8c 01       	movw	r16, r24
 180:	ca 01       	movw	r24, r20
 182:	0e 94 5f 00 	call	0xbe	; 0xbe <carregaSaldo>
 186:	c8 01       	movw	r24, r16
 188:	0e 94 7c 00 	call	0xf8	; 0xf8 <carregaNumCartao>
 18c:	ce 01       	movw	r24, r28
 18e:	0e 94 99 00 	call	0x132	; 0x132 <carregaSenha>
 192:	80 91 70 04 	lds	r24, 0x0470	; 0x800470 <cartoesCadastrados>
 196:	e8 2f       	mov	r30, r24
 198:	f0 e0       	ldi	r31, 0x00	; 0
 19a:	e6 57       	subi	r30, 0x76	; 118
 19c:	fb 4f       	sbci	r31, 0xFB	; 251
 19e:	10 82       	st	Z, r1
 1a0:	8f 5f       	subi	r24, 0xFF	; 255
 1a2:	80 93 70 04 	sts	0x0470, r24	; 0x800470 <cartoesCadastrados>
 1a6:	81 e0       	ldi	r24, 0x01	; 1
 1a8:	01 c0       	rjmp	.+2      	; 0x1ac <addCartao+0x40>
 1aa:	80 e0       	ldi	r24, 0x00	; 0
 1ac:	df 91       	pop	r29
 1ae:	cf 91       	pop	r28
 1b0:	1f 91       	pop	r17
 1b2:	0f 91       	pop	r16
 1b4:	08 95       	ret

000001b6 <tecla_lida>:
 1b6:	87 b1       	in	r24, 0x07	; 7
 1b8:	80 7f       	andi	r24, 0xF0	; 240
 1ba:	87 b9       	out	0x07, r24	; 7
 1bc:	8a b1       	in	r24, 0x0a	; 10
 1be:	8f 78       	andi	r24, 0x8F	; 143
 1c0:	8a b9       	out	0x0a, r24	; 10
 1c2:	88 b1       	in	r24, 0x08	; 8
 1c4:	8f 60       	ori	r24, 0x0F	; 15
 1c6:	88 b9       	out	0x08, r24	; 8
 1c8:	80 e0       	ldi	r24, 0x00	; 0
 1ca:	26 c0       	rjmp	.+76     	; 0x218 <tecla_lida+0x62>
 1cc:	9a b1       	in	r25, 0x0a	; 10
 1ce:	20 e1       	ldi	r18, 0x10	; 16
 1d0:	30 e0       	ldi	r19, 0x00	; 0
 1d2:	08 2e       	mov	r0, r24
 1d4:	02 c0       	rjmp	.+4      	; 0x1da <tecla_lida+0x24>
 1d6:	22 0f       	add	r18, r18
 1d8:	33 1f       	adc	r19, r19
 1da:	0a 94       	dec	r0
 1dc:	e2 f7       	brpl	.-8      	; 0x1d6 <tecla_lida+0x20>
 1de:	29 2b       	or	r18, r25
 1e0:	2a b9       	out	0x0a, r18	; 10
 1e2:	e7 ec       	ldi	r30, 0xC7	; 199
 1e4:	f0 e0       	ldi	r31, 0x00	; 0
 1e6:	31 97       	sbiw	r30, 0x01	; 1
 1e8:	f1 f7       	brne	.-4      	; 0x1e6 <tecla_lida+0x30>
 1ea:	00 c0       	rjmp	.+0      	; 0x1ec <tecla_lida+0x36>
 1ec:	00 00       	nop
 1ee:	90 e0       	ldi	r25, 0x00	; 0
 1f0:	10 c0       	rjmp	.+32     	; 0x212 <tecla_lida+0x5c>
 1f2:	26 b1       	in	r18, 0x06	; 6
 1f4:	30 e0       	ldi	r19, 0x00	; 0
 1f6:	09 2e       	mov	r0, r25
 1f8:	02 c0       	rjmp	.+4      	; 0x1fe <tecla_lida+0x48>
 1fa:	35 95       	asr	r19
 1fc:	27 95       	ror	r18
 1fe:	0a 94       	dec	r0
 200:	e2 f7       	brpl	.-8      	; 0x1fa <tecla_lida+0x44>
 202:	20 fd       	sbrc	r18, 0
 204:	05 c0       	rjmp	.+10     	; 0x210 <tecla_lida+0x5a>
 206:	29 2f       	mov	r18, r25
 208:	22 0f       	add	r18, r18
 20a:	92 0f       	add	r25, r18
 20c:	89 0f       	add	r24, r25
 20e:	08 95       	ret
 210:	9f 5f       	subi	r25, 0xFF	; 255
 212:	94 30       	cpi	r25, 0x04	; 4
 214:	70 f3       	brcs	.-36     	; 0x1f2 <tecla_lida+0x3c>
 216:	8f 5f       	subi	r24, 0xFF	; 255
 218:	83 30       	cpi	r24, 0x03	; 3
 21a:	c0 f2       	brcs	.-80     	; 0x1cc <tecla_lida+0x16>
 21c:	89 e1       	ldi	r24, 0x19	; 25
 21e:	08 95       	ret

00000220 <teclaDebouce>:
 220:	1f 93       	push	r17
 222:	cf 93       	push	r28
 224:	df 93       	push	r29
 226:	0e 94 db 00 	call	0x1b6	; 0x1b6 <tecla_lida>
 22a:	18 2f       	mov	r17, r24
 22c:	d0 e0       	ldi	r29, 0x00	; 0
 22e:	0f c0       	rjmp	.+30     	; 0x24e <teclaDebouce+0x2e>
 230:	8f e7       	ldi	r24, 0x7F	; 127
 232:	9e e3       	ldi	r25, 0x3E	; 62
 234:	01 97       	sbiw	r24, 0x01	; 1
 236:	f1 f7       	brne	.-4      	; 0x234 <teclaDebouce+0x14>
 238:	00 c0       	rjmp	.+0      	; 0x23a <teclaDebouce+0x1a>
 23a:	00 00       	nop
 23c:	0e 94 db 00 	call	0x1b6	; 0x1b6 <tecla_lida>
 240:	c8 2f       	mov	r28, r24
 242:	18 13       	cpse	r17, r24
 244:	02 c0       	rjmp	.+4      	; 0x24a <teclaDebouce+0x2a>
 246:	df 5f       	subi	r29, 0xFF	; 255
 248:	01 c0       	rjmp	.+2      	; 0x24c <teclaDebouce+0x2c>
 24a:	d0 e0       	ldi	r29, 0x00	; 0
 24c:	1c 2f       	mov	r17, r28
 24e:	da 30       	cpi	r29, 0x0A	; 10
 250:	78 f3       	brcs	.-34     	; 0x230 <teclaDebouce+0x10>
 252:	8c 2f       	mov	r24, r28
 254:	df 91       	pop	r29
 256:	cf 91       	pop	r28
 258:	1f 91       	pop	r17
 25a:	08 95       	ret

0000025c <USART_INIT>:
 25c:	90 93 c5 00 	sts	0x00C5, r25	; 0x8000c5 <__TEXT_REGION_LENGTH__+0x7f80c5>
 260:	80 93 c4 00 	sts	0x00C4, r24	; 0x8000c4 <__TEXT_REGION_LENGTH__+0x7f80c4>
 264:	88 e1       	ldi	r24, 0x18	; 24
 266:	80 93 c1 00 	sts	0x00C1, r24	; 0x8000c1 <__TEXT_REGION_LENGTH__+0x7f80c1>
 26a:	89 e0       	ldi	r24, 0x09	; 9
 26c:	80 93 c2 00 	sts	0x00C2, r24	; 0x8000c2 <__TEXT_REGION_LENGTH__+0x7f80c2>
 270:	08 95       	ret

00000272 <write>:
 272:	95 b1       	in	r25, 0x05	; 5
 274:	9f 77       	andi	r25, 0x7F	; 127
 276:	95 b9       	out	0x05, r25	; 5
 278:	95 b1       	in	r25, 0x05	; 5
 27a:	9f 7b       	andi	r25, 0xBF	; 191
 27c:	95 b9       	out	0x05, r25	; 5
 27e:	95 b1       	in	r25, 0x05	; 5
 280:	9f 7d       	andi	r25, 0xDF	; 223
 282:	95 b9       	out	0x05, r25	; 5
 284:	95 b1       	in	r25, 0x05	; 5
 286:	9f 7e       	andi	r25, 0xEF	; 239
 288:	95 b9       	out	0x05, r25	; 5
 28a:	88 23       	and	r24, r24
 28c:	1c f4       	brge	.+6      	; 0x294 <write+0x22>
 28e:	95 b1       	in	r25, 0x05	; 5
 290:	90 68       	ori	r25, 0x80	; 128
 292:	95 b9       	out	0x05, r25	; 5
 294:	86 ff       	sbrs	r24, 6
 296:	03 c0       	rjmp	.+6      	; 0x29e <write+0x2c>
 298:	95 b1       	in	r25, 0x05	; 5
 29a:	90 64       	ori	r25, 0x40	; 64
 29c:	95 b9       	out	0x05, r25	; 5
 29e:	85 ff       	sbrs	r24, 5
 2a0:	03 c0       	rjmp	.+6      	; 0x2a8 <write+0x36>
 2a2:	95 b1       	in	r25, 0x05	; 5
 2a4:	90 62       	ori	r25, 0x20	; 32
 2a6:	95 b9       	out	0x05, r25	; 5
 2a8:	84 ff       	sbrs	r24, 4
 2aa:	03 c0       	rjmp	.+6      	; 0x2b2 <write+0x40>
 2ac:	85 b1       	in	r24, 0x05	; 5
 2ae:	80 61       	ori	r24, 0x10	; 16
 2b0:	85 b9       	out	0x05, r24	; 5
 2b2:	85 b1       	in	r24, 0x05	; 5
 2b4:	82 60       	ori	r24, 0x02	; 2
 2b6:	85 b9       	out	0x05, r24	; 5
 2b8:	85 e0       	ldi	r24, 0x05	; 5
 2ba:	8a 95       	dec	r24
 2bc:	f1 f7       	brne	.-4      	; 0x2ba <write+0x48>
 2be:	00 00       	nop
 2c0:	85 b1       	in	r24, 0x05	; 5
 2c2:	8d 7f       	andi	r24, 0xFD	; 253
 2c4:	85 b9       	out	0x05, r24	; 5
 2c6:	85 e0       	ldi	r24, 0x05	; 5
 2c8:	8a 95       	dec	r24
 2ca:	f1 f7       	brne	.-4      	; 0x2c8 <write+0x56>
 2cc:	00 00       	nop
 2ce:	08 95       	ret

000002d0 <writeCharacter>:
 2d0:	cf 93       	push	r28
 2d2:	c8 2f       	mov	r28, r24
 2d4:	85 b1       	in	r24, 0x05	; 5
 2d6:	81 60       	ori	r24, 0x01	; 1
 2d8:	85 b9       	out	0x05, r24	; 5
 2da:	85 b1       	in	r24, 0x05	; 5
 2dc:	8d 7f       	andi	r24, 0xFD	; 253
 2de:	85 b9       	out	0x05, r24	; 5
 2e0:	8c 2f       	mov	r24, r28
 2e2:	0e 94 39 01 	call	0x272	; 0x272 <write>
 2e6:	8c 2f       	mov	r24, r28
 2e8:	82 95       	swap	r24
 2ea:	80 7f       	andi	r24, 0xF0	; 240
 2ec:	0e 94 39 01 	call	0x272	; 0x272 <write>
 2f0:	cf 91       	pop	r28
 2f2:	08 95       	ret

000002f4 <writeString>:
 2f4:	0f 93       	push	r16
 2f6:	1f 93       	push	r17
 2f8:	cf 93       	push	r28
 2fa:	df 93       	push	r29
 2fc:	00 d0       	rcall	.+0      	; 0x2fe <writeString+0xa>
 2fe:	cd b7       	in	r28, 0x3d	; 61
 300:	de b7       	in	r29, 0x3e	; 62
 302:	8c 01       	movw	r16, r24
 304:	1a 82       	std	Y+2, r1	; 0x02
 306:	19 82       	std	Y+1, r1	; 0x01
 308:	10 c0       	rjmp	.+32     	; 0x32a <writeString+0x36>
 30a:	e9 81       	ldd	r30, Y+1	; 0x01
 30c:	fa 81       	ldd	r31, Y+2	; 0x02
 30e:	e0 0f       	add	r30, r16
 310:	f1 1f       	adc	r31, r17
 312:	80 81       	ld	r24, Z
 314:	0e 94 68 01 	call	0x2d0	; 0x2d0 <writeCharacter>
 318:	89 81       	ldd	r24, Y+1	; 0x01
 31a:	9a 81       	ldd	r25, Y+2	; 0x02
 31c:	01 96       	adiw	r24, 0x01	; 1
 31e:	9a 83       	std	Y+2, r25	; 0x02
 320:	89 83       	std	Y+1, r24	; 0x01
 322:	85 ed       	ldi	r24, 0xD5	; 213
 324:	8a 95       	dec	r24
 326:	f1 f7       	brne	.-4      	; 0x324 <writeString+0x30>
 328:	00 00       	nop
 32a:	e9 81       	ldd	r30, Y+1	; 0x01
 32c:	fa 81       	ldd	r31, Y+2	; 0x02
 32e:	e0 0f       	add	r30, r16
 330:	f1 1f       	adc	r31, r17
 332:	80 81       	ld	r24, Z
 334:	81 11       	cpse	r24, r1
 336:	e9 cf       	rjmp	.-46     	; 0x30a <writeString+0x16>
 338:	0f 90       	pop	r0
 33a:	0f 90       	pop	r0
 33c:	df 91       	pop	r29
 33e:	cf 91       	pop	r28
 340:	1f 91       	pop	r17
 342:	0f 91       	pop	r16
 344:	08 95       	ret

00000346 <writeInstruction>:
 346:	cf 93       	push	r28
 348:	c8 2f       	mov	r28, r24
 34a:	85 b1       	in	r24, 0x05	; 5
 34c:	8e 7f       	andi	r24, 0xFE	; 254
 34e:	85 b9       	out	0x05, r24	; 5
 350:	85 b1       	in	r24, 0x05	; 5
 352:	8d 7f       	andi	r24, 0xFD	; 253
 354:	85 b9       	out	0x05, r24	; 5
 356:	8c 2f       	mov	r24, r28
 358:	0e 94 39 01 	call	0x272	; 0x272 <write>
 35c:	8c 2f       	mov	r24, r28
 35e:	82 95       	swap	r24
 360:	80 7f       	andi	r24, 0xF0	; 240
 362:	0e 94 39 01 	call	0x272	; 0x272 <write>
 366:	85 ed       	ldi	r24, 0xD5	; 213
 368:	8a 95       	dec	r24
 36a:	f1 f7       	brne	.-4      	; 0x368 <writeInstruction+0x22>
 36c:	00 00       	nop
 36e:	cf 91       	pop	r28
 370:	08 95       	ret

00000372 <setup_lcd>:
 372:	83 ef       	ldi	r24, 0xF3	; 243
 374:	84 b9       	out	0x04, r24	; 4
 376:	85 b1       	in	r24, 0x05	; 5
 378:	8e 7f       	andi	r24, 0xFE	; 254
 37a:	85 b9       	out	0x05, r24	; 5
 37c:	85 b1       	in	r24, 0x05	; 5
 37e:	8d 7f       	andi	r24, 0xFD	; 253
 380:	85 b9       	out	0x05, r24	; 5
 382:	80 e3       	ldi	r24, 0x30	; 48
 384:	0e 94 39 01 	call	0x272	; 0x272 <write>
 388:	8f e3       	ldi	r24, 0x3F	; 63
 38a:	9c e9       	ldi	r25, 0x9C	; 156
 38c:	01 97       	sbiw	r24, 0x01	; 1
 38e:	f1 f7       	brne	.-4      	; 0x38c <setup_lcd+0x1a>
 390:	00 c0       	rjmp	.+0      	; 0x392 <setup_lcd+0x20>
 392:	00 00       	nop
 394:	88 e2       	ldi	r24, 0x28	; 40
 396:	0e 94 39 01 	call	0x272	; 0x272 <write>
 39a:	95 ed       	ldi	r25, 0xD5	; 213
 39c:	9a 95       	dec	r25
 39e:	f1 f7       	brne	.-4      	; 0x39c <setup_lcd+0x2a>
 3a0:	00 00       	nop
 3a2:	88 e2       	ldi	r24, 0x28	; 40
 3a4:	0e 94 a3 01 	call	0x346	; 0x346 <writeInstruction>
 3a8:	88 e0       	ldi	r24, 0x08	; 8
 3aa:	0e 94 a3 01 	call	0x346	; 0x346 <writeInstruction>
 3ae:	81 e0       	ldi	r24, 0x01	; 1
 3b0:	0e 94 a3 01 	call	0x346	; 0x346 <writeInstruction>
 3b4:	86 e0       	ldi	r24, 0x06	; 6
 3b6:	0e 94 a3 01 	call	0x346	; 0x346 <writeInstruction>
 3ba:	08 95       	ret

000003bc <tela_bloqueio_inicial>:
 3bc:	81 e8       	ldi	r24, 0x81	; 129
 3be:	91 e0       	ldi	r25, 0x01	; 1
 3c0:	0e 94 7a 01 	call	0x2f4	; 0x2f4 <writeString>
 3c4:	80 ec       	ldi	r24, 0xC0	; 192
 3c6:	0e 94 a3 01 	call	0x346	; 0x346 <writeInstruction>
 3ca:	8d e8       	ldi	r24, 0x8D	; 141
 3cc:	91 e0       	ldi	r25, 0x01	; 1
 3ce:	0e 94 7a 01 	call	0x2f4	; 0x2f4 <writeString>
 3d2:	2f ef       	ldi	r18, 0xFF	; 255
 3d4:	83 ed       	ldi	r24, 0xD3	; 211
 3d6:	90 e3       	ldi	r25, 0x30	; 48
 3d8:	21 50       	subi	r18, 0x01	; 1
 3da:	80 40       	sbci	r24, 0x00	; 0
 3dc:	90 40       	sbci	r25, 0x00	; 0
 3de:	e1 f7       	brne	.-8      	; 0x3d8 <tela_bloqueio_inicial+0x1c>
 3e0:	00 c0       	rjmp	.+0      	; 0x3e2 <tela_bloqueio_inicial+0x26>
 3e2:	00 00       	nop
 3e4:	83 e0       	ldi	r24, 0x03	; 3
 3e6:	0e 94 a3 01 	call	0x346	; 0x346 <writeInstruction>
 3ea:	08 95       	ret

000003ec <anoZero>:
 3ec:	10 92 6f 04 	sts	0x046F, r1	; 0x80046f <horas>
 3f0:	10 92 6e 04 	sts	0x046E, r1	; 0x80046e <minutos>
 3f4:	10 92 6d 04 	sts	0x046D, r1	; 0x80046d <segundos>
 3f8:	81 e0       	ldi	r24, 0x01	; 1
 3fa:	80 93 6c 04 	sts	0x046C, r24	; 0x80046c <dia>
 3fe:	80 93 6b 04 	sts	0x046B, r24	; 0x80046b <mes>
 402:	86 e1       	ldi	r24, 0x16	; 22
 404:	80 93 6a 04 	sts	0x046A, r24	; 0x80046a <__data_end>
 408:	08 95       	ret

0000040a <atualizaMesAno>:
 40a:	81 e0       	ldi	r24, 0x01	; 1
 40c:	80 93 6c 04 	sts	0x046C, r24	; 0x80046c <dia>
 410:	80 91 6b 04 	lds	r24, 0x046B	; 0x80046b <mes>
 414:	8f 5f       	subi	r24, 0xFF	; 255
 416:	80 93 6b 04 	sts	0x046B, r24	; 0x80046b <mes>
 41a:	8d 30       	cpi	r24, 0x0D	; 13
 41c:	61 f4       	brne	.+24     	; 0x436 <atualizaMesAno+0x2c>
 41e:	81 e0       	ldi	r24, 0x01	; 1
 420:	80 93 6b 04 	sts	0x046B, r24	; 0x80046b <mes>
 424:	80 91 6a 04 	lds	r24, 0x046A	; 0x80046a <__data_end>
 428:	8f 5f       	subi	r24, 0xFF	; 255
 42a:	80 93 6a 04 	sts	0x046A, r24	; 0x80046a <__data_end>
 42e:	84 36       	cpi	r24, 0x64	; 100
 430:	11 f4       	brne	.+4      	; 0x436 <atualizaMesAno+0x2c>
 432:	10 92 6a 04 	sts	0x046A, r1	; 0x80046a <__data_end>
 436:	08 95       	ret

00000438 <updateDate>:
 438:	80 91 6d 04 	lds	r24, 0x046D	; 0x80046d <segundos>
 43c:	8f 5f       	subi	r24, 0xFF	; 255
 43e:	80 93 6d 04 	sts	0x046D, r24	; 0x80046d <segundos>
 442:	8c 33       	cpi	r24, 0x3C	; 60
 444:	39 f4       	brne	.+14     	; 0x454 <updateDate+0x1c>
 446:	10 92 6d 04 	sts	0x046D, r1	; 0x80046d <segundos>
 44a:	80 91 6e 04 	lds	r24, 0x046E	; 0x80046e <minutos>
 44e:	8f 5f       	subi	r24, 0xFF	; 255
 450:	80 93 6e 04 	sts	0x046E, r24	; 0x80046e <minutos>
 454:	80 91 6e 04 	lds	r24, 0x046E	; 0x80046e <minutos>
 458:	8c 33       	cpi	r24, 0x3C	; 60
 45a:	39 f4       	brne	.+14     	; 0x46a <updateDate+0x32>
 45c:	10 92 6e 04 	sts	0x046E, r1	; 0x80046e <minutos>
 460:	80 91 6f 04 	lds	r24, 0x046F	; 0x80046f <horas>
 464:	8f 5f       	subi	r24, 0xFF	; 255
 466:	80 93 6f 04 	sts	0x046F, r24	; 0x80046f <horas>
 46a:	80 91 6f 04 	lds	r24, 0x046F	; 0x80046f <horas>
 46e:	88 31       	cpi	r24, 0x18	; 24
 470:	41 f5       	brne	.+80     	; 0x4c2 <updateDate+0x8a>
 472:	10 92 6f 04 	sts	0x046F, r1	; 0x80046f <horas>
 476:	20 91 6c 04 	lds	r18, 0x046C	; 0x80046c <dia>
 47a:	2f 5f       	subi	r18, 0xFF	; 255
 47c:	20 93 6c 04 	sts	0x046C, r18	; 0x80046c <dia>
 480:	e0 91 6b 04 	lds	r30, 0x046B	; 0x80046b <mes>
 484:	8e 2f       	mov	r24, r30
 486:	90 e0       	ldi	r25, 0x00	; 0
 488:	fc 01       	movw	r30, r24
 48a:	31 97       	sbiw	r30, 0x01	; 1
 48c:	ec 30       	cpi	r30, 0x0C	; 12
 48e:	f1 05       	cpc	r31, r1
 490:	a0 f4       	brcc	.+40     	; 0x4ba <updateDate+0x82>
 492:	ec 5c       	subi	r30, 0xCC	; 204
 494:	ff 4f       	sbci	r31, 0xFF	; 255
 496:	0c 94 1e 03 	jmp	0x63c	; 0x63c <__tablejump2__>
 49a:	20 32       	cpi	r18, 0x20	; 32
 49c:	91 f4       	brne	.+36     	; 0x4c2 <updateDate+0x8a>
 49e:	0e 94 05 02 	call	0x40a	; 0x40a <atualizaMesAno>
 4a2:	08 95       	ret
 4a4:	2d 31       	cpi	r18, 0x1D	; 29
 4a6:	21 f4       	brne	.+8      	; 0x4b0 <updateDate+0x78>
 4a8:	80 91 6a 04 	lds	r24, 0x046A	; 0x80046a <__data_end>
 4ac:	83 70       	andi	r24, 0x03	; 3
 4ae:	11 f4       	brne	.+4      	; 0x4b4 <updateDate+0x7c>
 4b0:	2e 31       	cpi	r18, 0x1E	; 30
 4b2:	39 f4       	brne	.+14     	; 0x4c2 <updateDate+0x8a>
 4b4:	0e 94 05 02 	call	0x40a	; 0x40a <atualizaMesAno>
 4b8:	08 95       	ret
 4ba:	2f 31       	cpi	r18, 0x1F	; 31
 4bc:	11 f4       	brne	.+4      	; 0x4c2 <updateDate+0x8a>
 4be:	0e 94 05 02 	call	0x40a	; 0x40a <atualizaMesAno>
 4c2:	08 95       	ret

000004c4 <__vector_11>:
//////////////////////////////////////////////////////////////////////////
						//INTERUPÇÕES//
//////////////////////////////////////////////////////////////////////////


ISR(TIMER1_COMPA_vect){
 4c4:	1f 92       	push	r1
 4c6:	0f 92       	push	r0
 4c8:	0f b6       	in	r0, 0x3f	; 63
 4ca:	0f 92       	push	r0
 4cc:	11 24       	eor	r1, r1
 4ce:	2f 93       	push	r18
 4d0:	3f 93       	push	r19
 4d2:	4f 93       	push	r20
 4d4:	5f 93       	push	r21
 4d6:	6f 93       	push	r22
 4d8:	7f 93       	push	r23
 4da:	8f 93       	push	r24
 4dc:	9f 93       	push	r25
 4de:	af 93       	push	r26
 4e0:	bf 93       	push	r27
 4e2:	ef 93       	push	r30
 4e4:	ff 93       	push	r31
	//writeString("."); //fica escrevendo uns pontos na tela pra gente ver +- se ta 1 seg
	if (teclaG == KEY_CONFIRMA)
 4e6:	80 91 00 01 	lds	r24, 0x0100	; 0x800100 <__DATA_REGION_ORIGIN__>
 4ea:	8b 30       	cpi	r24, 0x0B	; 11
 4ec:	31 f4       	brne	.+12     	; 0x4fa <__vector_11+0x36>
		contTelaOn++;
 4ee:	90 91 cd 04 	lds	r25, 0x04CD	; 0x8004cd <contTelaOn>
 4f2:	9f 5f       	subi	r25, 0xFF	; 255
 4f4:	90 93 cd 04 	sts	0x04CD, r25	; 0x8004cd <contTelaOn>
 4f8:	02 c0       	rjmp	.+4      	; 0x4fe <__vector_11+0x3a>
	else
		contTelaOn = 0;
 4fa:	10 92 cd 04 	sts	0x04CD, r1	; 0x8004cd <contTelaOn>
	
	if (teclaG == KEY_APAGAR)
 4fe:	89 30       	cpi	r24, 0x09	; 9
 500:	31 f4       	brne	.+12     	; 0x50e <__vector_11+0x4a>
		contTelaOff++;
 502:	80 91 cc 04 	lds	r24, 0x04CC	; 0x8004cc <contTelaOff>
 506:	8f 5f       	subi	r24, 0xFF	; 255
 508:	80 93 cc 04 	sts	0x04CC, r24	; 0x8004cc <contTelaOff>
 50c:	02 c0       	rjmp	.+4      	; 0x512 <__vector_11+0x4e>
	else
		contTelaOff = 0;
 50e:	10 92 cc 04 	sts	0x04CC, r1	; 0x8004cc <contTelaOff>
	
	if(contTelaOn == 3 && telaOnOff==0){ // se for # por 3 segundos e tiver desligada -> liga tela
 512:	80 91 cd 04 	lds	r24, 0x04CD	; 0x8004cd <contTelaOn>
 516:	83 30       	cpi	r24, 0x03	; 3
 518:	61 f4       	brne	.+24     	; 0x532 <__vector_11+0x6e>
 51a:	80 91 cb 04 	lds	r24, 0x04CB	; 0x8004cb <telaOnOff>
 51e:	81 11       	cpse	r24, r1
 520:	08 c0       	rjmp	.+16     	; 0x532 <__vector_11+0x6e>
		writeInstruction(lcd_DisplayOn);
 522:	8c e0       	ldi	r24, 0x0C	; 12
 524:	0e 94 a3 01 	call	0x346	; 0x346 <writeInstruction>
		contTelaOn = 0;
 528:	10 92 cd 04 	sts	0x04CD, r1	; 0x8004cd <contTelaOn>
		telaOnOff = 1;
 52c:	81 e0       	ldi	r24, 0x01	; 1
 52e:	80 93 cb 04 	sts	0x04CB, r24	; 0x8004cb <telaOnOff>
		
	}
	if (contTelaOff == 4 && telaOnOff==1){ //se * por 4 segs e tiver ligada -> desliga
 532:	80 91 cc 04 	lds	r24, 0x04CC	; 0x8004cc <contTelaOff>
 536:	84 30       	cpi	r24, 0x04	; 4
 538:	59 f4       	brne	.+22     	; 0x550 <__vector_11+0x8c>
 53a:	80 91 cb 04 	lds	r24, 0x04CB	; 0x8004cb <telaOnOff>
 53e:	81 30       	cpi	r24, 0x01	; 1
 540:	39 f4       	brne	.+14     	; 0x550 <__vector_11+0x8c>
		writeInstruction(lcd_DisplayOff);
 542:	88 e0       	ldi	r24, 0x08	; 8
 544:	0e 94 a3 01 	call	0x346	; 0x346 <writeInstruction>
		contTelaOff = 0;
 548:	10 92 cc 04 	sts	0x04CC, r1	; 0x8004cc <contTelaOff>
		telaOnOff = 0;
 54c:	10 92 cb 04 	sts	0x04CB, r1	; 0x8004cb <telaOnOff>
	}
	
	updateDate();
 550:	0e 94 1c 02 	call	0x438	; 0x438 <updateDate>
	//AtualizaStringDataHora(); // opcional estariamos disperdição processamento uma vez que essa função só converte a data atual para string
									//acho q vamos usar ela no modo adm pra guardar o momento das pendencias 
								 
}
 554:	ff 91       	pop	r31
 556:	ef 91       	pop	r30
 558:	bf 91       	pop	r27
 55a:	af 91       	pop	r26
 55c:	9f 91       	pop	r25
 55e:	8f 91       	pop	r24
 560:	7f 91       	pop	r23
 562:	6f 91       	pop	r22
 564:	5f 91       	pop	r21
 566:	4f 91       	pop	r20
 568:	3f 91       	pop	r19
 56a:	2f 91       	pop	r18
 56c:	0f 90       	pop	r0
 56e:	0f be       	out	0x3f, r0	; 63
 570:	0f 90       	pop	r0
 572:	1f 90       	pop	r1
 574:	18 95       	reti

00000576 <setTimer1_UmSeg>:

void setTimer1_UmSeg(){
	// 16 MHz -> 1 instrução = 62.5ns
	// Pre scaler de 256 -> 62500Hz logo 62500 contagens para 1 seg
	
	TCCR1A = 4; //modo comparação
 576:	84 e0       	ldi	r24, 0x04	; 4
 578:	80 93 80 00 	sts	0x0080, r24	; 0x800080 <__TEXT_REGION_LENGTH__+0x7f8080>
	TCCR1B = 0x4; //pre scaler de 256
 57c:	80 93 81 00 	sts	0x0081, r24	; 0x800081 <__TEXT_REGION_LENGTH__+0x7f8081>
	TCNT1 = 0;  //contagem começa do zero
 580:	10 92 85 00 	sts	0x0085, r1	; 0x800085 <__TEXT_REGION_LENGTH__+0x7f8085>
 584:	10 92 84 00 	sts	0x0084, r1	; 0x800084 <__TEXT_REGION_LENGTH__+0x7f8084>
	OCR1A = 62500; //até onde tem q contar
 588:	84 e2       	ldi	r24, 0x24	; 36
 58a:	94 ef       	ldi	r25, 0xF4	; 244
 58c:	90 93 89 00 	sts	0x0089, r25	; 0x800089 <__TEXT_REGION_LENGTH__+0x7f8089>
 590:	80 93 88 00 	sts	0x0088, r24	; 0x800088 <__TEXT_REGION_LENGTH__+0x7f8088>
	TIMSK1 |= (1<<OCIE1A); //habilita interrupção por comparação em 
 594:	ef e6       	ldi	r30, 0x6F	; 111
 596:	f0 e0       	ldi	r31, 0x00	; 0
 598:	80 81       	ld	r24, Z
 59a:	82 60       	ori	r24, 0x02	; 2
 59c:	80 83       	st	Z, r24
	sei(); // talvez colocar no mais ??
 59e:	78 94       	sei
 5a0:	08 95       	ret

000005a2 <main>:
}

int main(){
 5a2:	cf 93       	push	r28
 5a4:	df 93       	push	r29
 5a6:	cd b7       	in	r28, 0x3d	; 61
 5a8:	de b7       	in	r29, 0x3e	; 62
 5aa:	2c 97       	sbiw	r28, 0x0c	; 12
 5ac:	0f b6       	in	r0, 0x3f	; 63
 5ae:	f8 94       	cli
 5b0:	de bf       	out	0x3e, r29	; 62
 5b2:	0f be       	out	0x3f, r0	; 63
 5b4:	cd bf       	out	0x3d, r28	; 61
	anoZero(); // inicia o relogio
 5b6:	0e 94 f6 01 	call	0x3ec	; 0x3ec <anoZero>
	USART_INIT(UBRR);
 5ba:	83 e3       	ldi	r24, 0x33	; 51
 5bc:	90 e0       	ldi	r25, 0x00	; 0
 5be:	0e 94 2e 01 	call	0x25c	; 0x25c <USART_INIT>
	setup_lcd();
 5c2:	0e 94 b9 01 	call	0x372	; 0x372 <setup_lcd>
	setupBotoes();
	setTimer1_UmSeg();
 5c6:	0e 94 bb 02 	call	0x576	; 0x576 <setTimer1_UmSeg>
	char loop1 = 1; //para ele agir diferente no 1 loop
	char continuar;

	writeInstruction(lcd_DisplayOff);
 5ca:	88 e0       	ldi	r24, 0x08	; 8
 5cc:	0e 94 a3 01 	call	0x346	; 0x346 <writeInstruction>
	while(telaOnOff==0)
 5d0:	04 c0       	rjmp	.+8      	; 0x5da <main+0x38>
		teclaG = teclaDebouce();
 5d2:	0e 94 10 01 	call	0x220	; 0x220 <teclaDebouce>
 5d6:	80 93 00 01 	sts	0x0100, r24	; 0x800100 <__DATA_REGION_ORIGIN__>
	setTimer1_UmSeg();
	char loop1 = 1; //para ele agir diferente no 1 loop
	char continuar;

	writeInstruction(lcd_DisplayOff);
	while(telaOnOff==0)
 5da:	80 91 cb 04 	lds	r24, 0x04CB	; 0x8004cb <telaOnOff>
 5de:	88 23       	and	r24, r24
 5e0:	c1 f3       	breq	.-16     	; 0x5d2 <main+0x30>
		teclaG = teclaDebouce();

	writeInstruction(lcd_DisplayOn);
 5e2:	8c e0       	ldi	r24, 0x0C	; 12
 5e4:	0e 94 a3 01 	call	0x346	; 0x346 <writeInstruction>
	tela_bloqueio_inicial(); //comenta se quiser testar mais rapido
 5e8:	0e 94 de 01 	call	0x3bc	; 0x3bc <tela_bloqueio_inicial>
	
	
	// inserindo cartões pra teste
	char cartao_teste[] = {8+48,0+48,0+48,0+48,0+48,0+48};
 5ec:	86 e0       	ldi	r24, 0x06	; 6
 5ee:	ee e1       	ldi	r30, 0x1E	; 30
 5f0:	f1 e0       	ldi	r31, 0x01	; 1
 5f2:	de 01       	movw	r26, r28
 5f4:	11 96       	adiw	r26, 0x01	; 1
 5f6:	01 90       	ld	r0, Z+
 5f8:	0d 92       	st	X+, r0
 5fa:	8a 95       	dec	r24
 5fc:	e1 f7       	brne	.-8      	; 0x5f6 <main+0x54>
	char cartao_teste_2[] = {0+48,0+48,2+48,0+48,0+48,0+48};
 5fe:	86 e0       	ldi	r24, 0x06	; 6
 600:	e4 e2       	ldi	r30, 0x24	; 36
 602:	f1 e0       	ldi	r31, 0x01	; 1
 604:	de 01       	movw	r26, r28
 606:	17 96       	adiw	r26, 0x07	; 7
 608:	01 90       	ld	r0, Z+
 60a:	0d 92       	st	X+, r0
 60c:	8a 95       	dec	r24
 60e:	e1 f7       	brne	.-8      	; 0x608 <main+0x66>
	addCartao("123456","123456",cartao_teste);	// inserindo cartão pra teste 80000 (800,00)
 610:	ae 01       	movw	r20, r28
 612:	4f 5f       	subi	r20, 0xFF	; 255
 614:	5f 4f       	sbci	r21, 0xFF	; 255
 616:	65 e5       	ldi	r22, 0x55	; 85
 618:	74 e0       	ldi	r23, 0x04	; 4
 61a:	cb 01       	movw	r24, r22
 61c:	0e 94 b6 00 	call	0x16c	; 0x16c <addCartao>
	addCartao("000001","111111",cartao_teste_2);	// inserindo cartão pra teste 00200	(2,00)
 620:	ae 01       	movw	r20, r28
 622:	49 5f       	subi	r20, 0xF9	; 249
 624:	5f 4f       	sbci	r21, 0xFF	; 255
 626:	6c e5       	ldi	r22, 0x5C	; 92
 628:	74 e0       	ldi	r23, 0x04	; 4
 62a:	83 e6       	ldi	r24, 0x63	; 99
 62c:	94 e0       	ldi	r25, 0x04	; 4
 62e:	0e 94 b6 00 	call	0x16c	; 0x16c <addCartao>
	/////
	
	while(1){
		teclaG = teclaDebouce();
 632:	0e 94 10 01 	call	0x220	; 0x220 <teclaDebouce>
 636:	80 93 00 01 	sts	0x0100, r24	; 0x800100 <__DATA_REGION_ORIGIN__>
 63a:	fb cf       	rjmp	.-10     	; 0x632 <main+0x90>

0000063c <__tablejump2__>:
 63c:	ee 0f       	add	r30, r30
 63e:	ff 1f       	adc	r31, r31
 640:	05 90       	lpm	r0, Z+
 642:	f4 91       	lpm	r31, Z
 644:	e0 2d       	mov	r30, r0
 646:	09 94       	ijmp

00000648 <_exit>:
 648:	f8 94       	cli

0000064a <__stop_program>:
 64a:	ff cf       	rjmp	.-2      	; 0x64a <__stop_program>
