
mic_pay.elf:     file format elf32-avr

Sections:
Idx Name          Size      VMA       LMA       File off  Algn
  0 .data         0000036e  00800100  00002104  00002198  2**0
                  CONTENTS, ALLOC, LOAD, DATA
  1 .text         00002104  00000000  00000000  00000094  2**1
                  CONTENTS, ALLOC, LOAD, READONLY, CODE
  2 .bss          00000061  0080046e  0080046e  00002506  2**0
                  ALLOC
  3 .comment      00000030  00000000  00000000  00002506  2**0
                  CONTENTS, READONLY
  4 .note.gnu.avr.deviceinfo 00000040  00000000  00000000  00002538  2**2
                  CONTENTS, READONLY
  5 .debug_aranges 000002d0  00000000  00000000  00002578  2**0
                  CONTENTS, READONLY, DEBUGGING
  6 .debug_info   00003d2d  00000000  00000000  00002848  2**0
                  CONTENTS, READONLY, DEBUGGING
  7 .debug_abbrev 00000953  00000000  00000000  00006575  2**0
                  CONTENTS, READONLY, DEBUGGING
  8 .debug_line   00002279  00000000  00000000  00006ec8  2**0
                  CONTENTS, READONLY, DEBUGGING
  9 .debug_frame  00000948  00000000  00000000  00009144  2**2
                  CONTENTS, READONLY, DEBUGGING
 10 .debug_str    00000b82  00000000  00000000  00009a8c  2**0
                  CONTENTS, READONLY, DEBUGGING
 11 .debug_loc    00002f3e  00000000  00000000  0000a60e  2**0
                  CONTENTS, READONLY, DEBUGGING
 12 .debug_ranges 000002d8  00000000  00000000  0000d54c  2**0
                  CONTENTS, READONLY, DEBUGGING

Disassembly of section .text:

00000000 <__vectors>:
       0:	0c 94 4c 00 	jmp	0x98	; 0x98 <__ctors_end>
       4:	0c 94 69 00 	jmp	0xd2	; 0xd2 <__bad_interrupt>
       8:	0c 94 69 00 	jmp	0xd2	; 0xd2 <__bad_interrupt>
       c:	0c 94 69 00 	jmp	0xd2	; 0xd2 <__bad_interrupt>
      10:	0c 94 69 00 	jmp	0xd2	; 0xd2 <__bad_interrupt>
      14:	0c 94 69 00 	jmp	0xd2	; 0xd2 <__bad_interrupt>
      18:	0c 94 69 00 	jmp	0xd2	; 0xd2 <__bad_interrupt>
      1c:	0c 94 69 00 	jmp	0xd2	; 0xd2 <__bad_interrupt>
      20:	0c 94 69 00 	jmp	0xd2	; 0xd2 <__bad_interrupt>
      24:	0c 94 69 00 	jmp	0xd2	; 0xd2 <__bad_interrupt>
      28:	0c 94 69 00 	jmp	0xd2	; 0xd2 <__bad_interrupt>
      2c:	0c 94 94 0f 	jmp	0x1f28	; 0x1f28 <__vector_11>
      30:	0c 94 69 00 	jmp	0xd2	; 0xd2 <__bad_interrupt>
      34:	0c 94 69 00 	jmp	0xd2	; 0xd2 <__bad_interrupt>
      38:	0c 94 69 00 	jmp	0xd2	; 0xd2 <__bad_interrupt>
      3c:	0c 94 69 00 	jmp	0xd2	; 0xd2 <__bad_interrupt>
      40:	0c 94 69 00 	jmp	0xd2	; 0xd2 <__bad_interrupt>
      44:	0c 94 69 00 	jmp	0xd2	; 0xd2 <__bad_interrupt>
      48:	0c 94 69 00 	jmp	0xd2	; 0xd2 <__bad_interrupt>
      4c:	0c 94 69 00 	jmp	0xd2	; 0xd2 <__bad_interrupt>
      50:	0c 94 69 00 	jmp	0xd2	; 0xd2 <__bad_interrupt>
      54:	0c 94 69 00 	jmp	0xd2	; 0xd2 <__bad_interrupt>
      58:	0c 94 69 00 	jmp	0xd2	; 0xd2 <__bad_interrupt>
      5c:	0c 94 69 00 	jmp	0xd2	; 0xd2 <__bad_interrupt>
      60:	0c 94 69 00 	jmp	0xd2	; 0xd2 <__bad_interrupt>
      64:	0c 94 69 00 	jmp	0xd2	; 0xd2 <__bad_interrupt>
      68:	93 03       	fmuls	r17, r19
      6a:	ab 03       	fmulsu	r18, r19
      6c:	95 03       	fmuls	r17, r21
      6e:	97 03       	fmuls	r17, r23
      70:	99 03       	fmulsu	r17, r17
      72:	9b 03       	fmulsu	r17, r19
      74:	9d 03       	fmulsu	r17, r21
      76:	9f 03       	fmulsu	r17, r23
      78:	a1 03       	fmuls	r18, r17
      7a:	a3 03       	fmuls	r18, r19
      7c:	a5 03       	fmuls	r18, r21
      7e:	a7 03       	fmuls	r18, r23
      80:	7f 0f       	add	r23, r31
      82:	84 0f       	add	r24, r20
      84:	7f 0f       	add	r23, r31
      86:	8f 0f       	add	r24, r31
      88:	7f 0f       	add	r23, r31
      8a:	8f 0f       	add	r24, r31
      8c:	7f 0f       	add	r23, r31
      8e:	7f 0f       	add	r23, r31
      90:	8f 0f       	add	r24, r31
      92:	7f 0f       	add	r23, r31
      94:	8f 0f       	add	r24, r31
      96:	7f 0f       	add	r23, r31

00000098 <__ctors_end>:
      98:	11 24       	eor	r1, r1
      9a:	1f be       	out	0x3f, r1	; 63
      9c:	cf ef       	ldi	r28, 0xFF	; 255
      9e:	d8 e0       	ldi	r29, 0x08	; 8
      a0:	de bf       	out	0x3e, r29	; 62
      a2:	cd bf       	out	0x3d, r28	; 61

000000a4 <__do_copy_data>:
      a4:	14 e0       	ldi	r17, 0x04	; 4
      a6:	a0 e0       	ldi	r26, 0x00	; 0
      a8:	b1 e0       	ldi	r27, 0x01	; 1
      aa:	e4 e0       	ldi	r30, 0x04	; 4
      ac:	f1 e2       	ldi	r31, 0x21	; 33
      ae:	02 c0       	rjmp	.+4      	; 0xb4 <__do_copy_data+0x10>
      b0:	05 90       	lpm	r0, Z+
      b2:	0d 92       	st	X+, r0
      b4:	ae 36       	cpi	r26, 0x6E	; 110
      b6:	b1 07       	cpc	r27, r17
      b8:	d9 f7       	brne	.-10     	; 0xb0 <__do_copy_data+0xc>

000000ba <__do_clear_bss>:
      ba:	24 e0       	ldi	r18, 0x04	; 4
      bc:	ae e6       	ldi	r26, 0x6E	; 110
      be:	b4 e0       	ldi	r27, 0x04	; 4
      c0:	01 c0       	rjmp	.+2      	; 0xc4 <.do_clear_bss_start>

000000c2 <.do_clear_bss_loop>:
      c2:	1d 92       	st	X+, r1

000000c4 <.do_clear_bss_start>:
      c4:	af 3c       	cpi	r26, 0xCF	; 207
      c6:	b2 07       	cpc	r27, r18
      c8:	e1 f7       	brne	.-8      	; 0xc2 <.do_clear_bss_loop>
      ca:	0e 94 ce 0f 	call	0x1f9c	; 0x1f9c <main>
      ce:	0c 94 80 10 	jmp	0x2100	; 0x2100 <_exit>

000000d2 <__bad_interrupt>:
      d2:	0c 94 00 00 	jmp	0	; 0x0 <__vectors>

000000d6 <verificarContasLocais>:
	stringDATA[4] = mes%10 + 48;
	stringDATA[6] = ano/10 + 48;
	stringDATA[7] = ano%10 + 48;
}

void AtualizaStringDataHora(){
      d6:	dc 01       	movw	r26, r24
      d8:	60 e0       	ldi	r22, 0x00	; 0
      da:	22 c0       	rjmp	.+68     	; 0x120 <verificarContasLocais+0x4a>
      dc:	26 2f       	mov	r18, r22
      de:	30 e0       	ldi	r19, 0x00	; 0
      e0:	49 2f       	mov	r20, r25
      e2:	50 e0       	ldi	r21, 0x00	; 0
      e4:	f9 01       	movw	r30, r18
      e6:	ee 0f       	add	r30, r30
      e8:	ff 1f       	adc	r31, r31
      ea:	e2 0f       	add	r30, r18
      ec:	f3 1f       	adc	r31, r19
      ee:	ee 0f       	add	r30, r30
      f0:	ff 1f       	adc	r31, r31
      f2:	ef 54       	subi	r30, 0x4F	; 79
      f4:	fb 4f       	sbci	r31, 0xFB	; 251
      f6:	9a 01       	movw	r18, r20
      f8:	e2 0f       	add	r30, r18
      fa:	f3 1f       	adc	r31, r19
      fc:	40 81       	ld	r20, Z
      fe:	fd 01       	movw	r30, r26
     100:	e2 0f       	add	r30, r18
     102:	f3 1f       	adc	r31, r19
     104:	80 81       	ld	r24, Z
     106:	48 13       	cpse	r20, r24
     108:	0a c0       	rjmp	.+20     	; 0x11e <verificarContasLocais+0x48>
     10a:	95 30       	cpi	r25, 0x05	; 5
     10c:	19 f4       	brne	.+6      	; 0x114 <verificarContasLocais+0x3e>
     10e:	81 e0       	ldi	r24, 0x01	; 1
     110:	86 0f       	add	r24, r22
     112:	08 95       	ret
     114:	9f 5f       	subi	r25, 0xFF	; 255
     116:	01 c0       	rjmp	.+2      	; 0x11a <verificarContasLocais+0x44>
     118:	90 e0       	ldi	r25, 0x00	; 0
     11a:	96 30       	cpi	r25, 0x06	; 6
     11c:	f8 f2       	brcs	.-66     	; 0xdc <verificarContasLocais+0x6>
     11e:	6f 5f       	subi	r22, 0xFF	; 255
     120:	65 30       	cpi	r22, 0x05	; 5
     122:	d0 f3       	brcs	.-12     	; 0x118 <verificarContasLocais+0x42>
     124:	80 e0       	ldi	r24, 0x00	; 0
     126:	08 95       	ret

00000128 <verificaCashBack>:
     128:	e8 2f       	mov	r30, r24
     12a:	f0 e0       	ldi	r31, 0x00	; 0
     12c:	e3 57       	subi	r30, 0x73	; 115
     12e:	fb 4f       	sbci	r31, 0xFB	; 251
     130:	80 81       	ld	r24, Z
     132:	83 30       	cpi	r24, 0x03	; 3
     134:	11 f4       	brne	.+4      	; 0x13a <verificaCashBack+0x12>
     136:	81 e0       	ldi	r24, 0x01	; 1
     138:	08 95       	ret
     13a:	80 e0       	ldi	r24, 0x00	; 0
     13c:	08 95       	ret

0000013e <carregaSaldo>:
     13e:	dc 01       	movw	r26, r24
     140:	90 e0       	ldi	r25, 0x00	; 0
     142:	17 c0       	rjmp	.+46     	; 0x172 <carregaSaldo+0x34>
     144:	20 91 74 04 	lds	r18, 0x0474	; 0x800474 <cartoesCadastrados>
     148:	30 e0       	ldi	r19, 0x00	; 0
     14a:	49 2f       	mov	r20, r25
     14c:	50 e0       	ldi	r21, 0x00	; 0
     14e:	fd 01       	movw	r30, r26
     150:	e4 0f       	add	r30, r20
     152:	f5 1f       	adc	r31, r21
     154:	60 81       	ld	r22, Z
     156:	f9 01       	movw	r30, r18
     158:	ee 0f       	add	r30, r30
     15a:	ff 1f       	adc	r31, r31
     15c:	ee 0f       	add	r30, r30
     15e:	ff 1f       	adc	r31, r31
     160:	2e 0f       	add	r18, r30
     162:	3f 1f       	adc	r19, r31
     164:	2b 58       	subi	r18, 0x8B	; 139
     166:	3b 4f       	sbci	r19, 0xFB	; 251
     168:	f9 01       	movw	r30, r18
     16a:	e4 0f       	add	r30, r20
     16c:	f5 1f       	adc	r31, r21
     16e:	60 83       	st	Z, r22
     170:	9f 5f       	subi	r25, 0xFF	; 255
     172:	95 30       	cpi	r25, 0x05	; 5
     174:	38 f3       	brcs	.-50     	; 0x144 <carregaSaldo+0x6>
     176:	08 95       	ret

00000178 <carregaNumCartao>:
     178:	dc 01       	movw	r26, r24
     17a:	90 e0       	ldi	r25, 0x00	; 0
     17c:	17 c0       	rjmp	.+46     	; 0x1ac <carregaNumCartao+0x34>
     17e:	20 91 74 04 	lds	r18, 0x0474	; 0x800474 <cartoesCadastrados>
     182:	30 e0       	ldi	r19, 0x00	; 0
     184:	49 2f       	mov	r20, r25
     186:	50 e0       	ldi	r21, 0x00	; 0
     188:	fd 01       	movw	r30, r26
     18a:	e4 0f       	add	r30, r20
     18c:	f5 1f       	adc	r31, r21
     18e:	60 81       	ld	r22, Z
     190:	f9 01       	movw	r30, r18
     192:	ee 0f       	add	r30, r30
     194:	ff 1f       	adc	r31, r31
     196:	2e 0f       	add	r18, r30
     198:	3f 1f       	adc	r19, r31
     19a:	22 0f       	add	r18, r18
     19c:	33 1f       	adc	r19, r19
     19e:	2f 54       	subi	r18, 0x4F	; 79
     1a0:	3b 4f       	sbci	r19, 0xFB	; 251
     1a2:	f9 01       	movw	r30, r18
     1a4:	e4 0f       	add	r30, r20
     1a6:	f5 1f       	adc	r31, r21
     1a8:	60 83       	st	Z, r22
     1aa:	9f 5f       	subi	r25, 0xFF	; 255
     1ac:	96 30       	cpi	r25, 0x06	; 6
     1ae:	38 f3       	brcs	.-50     	; 0x17e <carregaNumCartao+0x6>
     1b0:	08 95       	ret

000001b2 <carregaSenha>:
     1b2:	dc 01       	movw	r26, r24
     1b4:	90 e0       	ldi	r25, 0x00	; 0
     1b6:	17 c0       	rjmp	.+46     	; 0x1e6 <carregaSenha+0x34>
     1b8:	20 91 74 04 	lds	r18, 0x0474	; 0x800474 <cartoesCadastrados>
     1bc:	30 e0       	ldi	r19, 0x00	; 0
     1be:	49 2f       	mov	r20, r25
     1c0:	50 e0       	ldi	r21, 0x00	; 0
     1c2:	fd 01       	movw	r30, r26
     1c4:	e4 0f       	add	r30, r20
     1c6:	f5 1f       	adc	r31, r21
     1c8:	60 81       	ld	r22, Z
     1ca:	f9 01       	movw	r30, r18
     1cc:	ee 0f       	add	r30, r30
     1ce:	ff 1f       	adc	r31, r31
     1d0:	2e 0f       	add	r18, r30
     1d2:	3f 1f       	adc	r19, r31
     1d4:	22 0f       	add	r18, r18
     1d6:	33 1f       	adc	r19, r19
     1d8:	2d 56       	subi	r18, 0x6D	; 109
     1da:	3b 4f       	sbci	r19, 0xFB	; 251
     1dc:	f9 01       	movw	r30, r18
     1de:	e4 0f       	add	r30, r20
     1e0:	f5 1f       	adc	r31, r21
     1e2:	60 83       	st	Z, r22
     1e4:	9f 5f       	subi	r25, 0xFF	; 255
     1e6:	96 30       	cpi	r25, 0x06	; 6
     1e8:	38 f3       	brcs	.-50     	; 0x1b8 <carregaSenha+0x6>
     1ea:	08 95       	ret

000001ec <addCartao>:
     1ec:	0f 93       	push	r16
     1ee:	1f 93       	push	r17
     1f0:	cf 93       	push	r28
     1f2:	df 93       	push	r29
     1f4:	20 91 74 04 	lds	r18, 0x0474	; 0x800474 <cartoesCadastrados>
     1f8:	25 30       	cpi	r18, 0x05	; 5
     1fa:	b8 f4       	brcc	.+46     	; 0x22a <addCartao+0x3e>
     1fc:	eb 01       	movw	r28, r22
     1fe:	8c 01       	movw	r16, r24
     200:	ca 01       	movw	r24, r20
     202:	0e 94 9f 00 	call	0x13e	; 0x13e <carregaSaldo>
     206:	c8 01       	movw	r24, r16
     208:	0e 94 bc 00 	call	0x178	; 0x178 <carregaNumCartao>
     20c:	ce 01       	movw	r24, r28
     20e:	0e 94 d9 00 	call	0x1b2	; 0x1b2 <carregaSenha>
     212:	80 91 74 04 	lds	r24, 0x0474	; 0x800474 <cartoesCadastrados>
     216:	e8 2f       	mov	r30, r24
     218:	f0 e0       	ldi	r31, 0x00	; 0
     21a:	e2 57       	subi	r30, 0x72	; 114
     21c:	fb 4f       	sbci	r31, 0xFB	; 251
     21e:	10 82       	st	Z, r1
     220:	8f 5f       	subi	r24, 0xFF	; 255
     222:	80 93 74 04 	sts	0x0474, r24	; 0x800474 <cartoesCadastrados>
     226:	81 e0       	ldi	r24, 0x01	; 1
     228:	01 c0       	rjmp	.+2      	; 0x22c <addCartao+0x40>
     22a:	80 e0       	ldi	r24, 0x00	; 0
     22c:	df 91       	pop	r29
     22e:	cf 91       	pop	r28
     230:	1f 91       	pop	r17
     232:	0f 91       	pop	r16
     234:	08 95       	ret

00000236 <subtraiSaldo>:
     236:	cf 92       	push	r12
     238:	df 92       	push	r13
     23a:	ef 92       	push	r14
     23c:	ff 92       	push	r15
     23e:	0f 93       	push	r16
     240:	1f 93       	push	r17
     242:	cf 93       	push	r28
     244:	df 93       	push	r29
     246:	81 50       	subi	r24, 0x01	; 1
     248:	e0 e0       	ldi	r30, 0x00	; 0
     24a:	f0 e0       	ldi	r31, 0x00	; 0
     24c:	c1 2c       	mov	r12, r1
     24e:	d1 2c       	mov	r13, r1
     250:	90 e0       	ldi	r25, 0x00	; 0
     252:	67 c0       	rjmp	.+206    	; 0x322 <subtraiSaldo+0xec>
     254:	92 30       	cpi	r25, 0x02	; 2
     256:	59 f0       	breq	.+22     	; 0x26e <subtraiSaldo+0x38>
     258:	28 f4       	brcc	.+10     	; 0x264 <subtraiSaldo+0x2e>
     25a:	99 23       	and	r25, r25
     25c:	41 f0       	breq	.+16     	; 0x26e <subtraiSaldo+0x38>
     25e:	91 30       	cpi	r25, 0x01	; 1
     260:	79 f0       	breq	.+30     	; 0x280 <subtraiSaldo+0x4a>
     262:	0b c0       	rjmp	.+22     	; 0x27a <subtraiSaldo+0x44>
     264:	93 30       	cpi	r25, 0x03	; 3
     266:	61 f0       	breq	.+24     	; 0x280 <subtraiSaldo+0x4a>
     268:	94 30       	cpi	r25, 0x04	; 4
     26a:	21 f0       	breq	.+8      	; 0x274 <subtraiSaldo+0x3e>
     26c:	06 c0       	rjmp	.+12     	; 0x27a <subtraiSaldo+0x44>
     26e:	41 e0       	ldi	r20, 0x01	; 1
     270:	50 e0       	ldi	r21, 0x00	; 0
     272:	08 c0       	rjmp	.+16     	; 0x284 <subtraiSaldo+0x4e>
     274:	44 e6       	ldi	r20, 0x64	; 100
     276:	50 e0       	ldi	r21, 0x00	; 0
     278:	05 c0       	rjmp	.+10     	; 0x284 <subtraiSaldo+0x4e>
     27a:	40 e0       	ldi	r20, 0x00	; 0
     27c:	50 e0       	ldi	r21, 0x00	; 0
     27e:	02 c0       	rjmp	.+4      	; 0x284 <subtraiSaldo+0x4e>
     280:	4a e0       	ldi	r20, 0x0A	; 10
     282:	50 e0       	ldi	r21, 0x00	; 0
     284:	92 30       	cpi	r25, 0x02	; 2
     286:	38 f5       	brcc	.+78     	; 0x2d6 <subtraiSaldo+0xa0>
     288:	a9 2f       	mov	r26, r25
     28a:	b0 e0       	ldi	r27, 0x00	; 0
     28c:	24 e0       	ldi	r18, 0x04	; 4
     28e:	30 e0       	ldi	r19, 0x00	; 0
     290:	89 01       	movw	r16, r18
     292:	0a 1b       	sub	r16, r26
     294:	1b 0b       	sbc	r17, r27
     296:	28 2f       	mov	r18, r24
     298:	30 e0       	ldi	r19, 0x00	; 0
     29a:	79 01       	movw	r14, r18
     29c:	ee 0c       	add	r14, r14
     29e:	ff 1c       	adc	r15, r15
     2a0:	ee 0c       	add	r14, r14
     2a2:	ff 1c       	adc	r15, r15
     2a4:	2e 0d       	add	r18, r14
     2a6:	3f 1d       	adc	r19, r15
     2a8:	2b 58       	subi	r18, 0x8B	; 139
     2aa:	3b 4f       	sbci	r19, 0xFB	; 251
     2ac:	20 0f       	add	r18, r16
     2ae:	31 1f       	adc	r19, r17
     2b0:	e9 01       	movw	r28, r18
     2b2:	28 81       	ld	r18, Y
     2b4:	ed 01       	movw	r28, r26
     2b6:	c6 0f       	add	r28, r22
     2b8:	d7 1f       	adc	r29, r23
     2ba:	c8 81       	ld	r28, Y
     2bc:	30 e0       	ldi	r19, 0x00	; 0
     2be:	2c 1b       	sub	r18, r28
     2c0:	31 09       	sbc	r19, r1
     2c2:	42 9f       	mul	r20, r18
     2c4:	e0 01       	movw	r28, r0
     2c6:	43 9f       	mul	r20, r19
     2c8:	d0 0d       	add	r29, r0
     2ca:	52 9f       	mul	r21, r18
     2cc:	d0 0d       	add	r29, r0
     2ce:	11 24       	eor	r1, r1
     2d0:	cc 0e       	add	r12, r28
     2d2:	dd 1e       	adc	r13, r29
     2d4:	25 c0       	rjmp	.+74     	; 0x320 <subtraiSaldo+0xea>
     2d6:	c9 2f       	mov	r28, r25
     2d8:	d0 e0       	ldi	r29, 0x00	; 0
     2da:	24 e0       	ldi	r18, 0x04	; 4
     2dc:	30 e0       	ldi	r19, 0x00	; 0
     2de:	89 01       	movw	r16, r18
     2e0:	0c 1b       	sub	r16, r28
     2e2:	1d 0b       	sbc	r17, r29
     2e4:	28 2f       	mov	r18, r24
     2e6:	30 e0       	ldi	r19, 0x00	; 0
     2e8:	79 01       	movw	r14, r18
     2ea:	ee 0c       	add	r14, r14
     2ec:	ff 1c       	adc	r15, r15
     2ee:	ee 0c       	add	r14, r14
     2f0:	ff 1c       	adc	r15, r15
     2f2:	2e 0d       	add	r18, r14
     2f4:	3f 1d       	adc	r19, r15
     2f6:	2b 58       	subi	r18, 0x8B	; 139
     2f8:	3b 4f       	sbci	r19, 0xFB	; 251
     2fa:	20 0f       	add	r18, r16
     2fc:	31 1f       	adc	r19, r17
     2fe:	d9 01       	movw	r26, r18
     300:	2c 91       	ld	r18, X
     302:	c6 0f       	add	r28, r22
     304:	d7 1f       	adc	r29, r23
     306:	c8 81       	ld	r28, Y
     308:	30 e0       	ldi	r19, 0x00	; 0
     30a:	2c 1b       	sub	r18, r28
     30c:	31 09       	sbc	r19, r1
     30e:	42 9f       	mul	r20, r18
     310:	e0 01       	movw	r28, r0
     312:	43 9f       	mul	r20, r19
     314:	d0 0d       	add	r29, r0
     316:	52 9f       	mul	r21, r18
     318:	d0 0d       	add	r29, r0
     31a:	11 24       	eor	r1, r1
     31c:	ec 0f       	add	r30, r28
     31e:	fd 1f       	adc	r31, r29
     320:	9f 5f       	subi	r25, 0xFF	; 255
     322:	95 30       	cpi	r25, 0x05	; 5
     324:	08 f4       	brcc	.+2      	; 0x328 <subtraiSaldo+0xf2>
     326:	96 cf       	rjmp	.-212    	; 0x254 <subtraiSaldo+0x1e>
     328:	dd 20       	and	r13, r13
     32a:	24 f4       	brge	.+8      	; 0x334 <subtraiSaldo+0xfe>
     32c:	31 97       	sbiw	r30, 0x01	; 1
     32e:	b4 e6       	ldi	r27, 0x64	; 100
     330:	cb 0e       	add	r12, r27
     332:	d1 1c       	adc	r13, r1
     334:	c8 2f       	mov	r28, r24
     336:	d0 e0       	ldi	r29, 0x00	; 0
     338:	2a e0       	ldi	r18, 0x0A	; 10
     33a:	30 e0       	ldi	r19, 0x00	; 0
     33c:	c6 01       	movw	r24, r12
     33e:	b9 01       	movw	r22, r18
     340:	0e 94 52 10 	call	0x20a4	; 0x20a4 <__divmodhi4>
     344:	ae 01       	movw	r20, r28
     346:	44 0f       	add	r20, r20
     348:	55 1f       	adc	r21, r21
     34a:	44 0f       	add	r20, r20
     34c:	55 1f       	adc	r21, r21
     34e:	c4 0f       	add	r28, r20
     350:	d5 1f       	adc	r29, r21
     352:	cb 58       	subi	r28, 0x8B	; 139
     354:	db 4f       	sbci	r29, 0xFB	; 251
     356:	80 5d       	subi	r24, 0xD0	; 208
     358:	8c 83       	std	Y+4, r24	; 0x04
     35a:	60 5d       	subi	r22, 0xD0	; 208
     35c:	6b 83       	std	Y+3, r22	; 0x03
     35e:	cf 01       	movw	r24, r30
     360:	64 e6       	ldi	r22, 0x64	; 100
     362:	70 e0       	ldi	r23, 0x00	; 0
     364:	0e 94 52 10 	call	0x20a4	; 0x20a4 <__divmodhi4>
     368:	cf 01       	movw	r24, r30
     36a:	44 e6       	ldi	r20, 0x64	; 100
     36c:	64 9f       	mul	r22, r20
     36e:	80 19       	sub	r24, r0
     370:	91 09       	sbc	r25, r1
     372:	11 24       	eor	r1, r1
     374:	60 5d       	subi	r22, 0xD0	; 208
     376:	68 83       	st	Y, r22
     378:	b9 01       	movw	r22, r18
     37a:	0e 94 52 10 	call	0x20a4	; 0x20a4 <__divmodhi4>
     37e:	60 5d       	subi	r22, 0xD0	; 208
     380:	69 83       	std	Y+1, r22	; 0x01
     382:	80 5d       	subi	r24, 0xD0	; 208
     384:	8a 83       	std	Y+2, r24	; 0x02
     386:	df 91       	pop	r29
     388:	cf 91       	pop	r28
     38a:	1f 91       	pop	r17
     38c:	0f 91       	pop	r16
     38e:	ff 90       	pop	r15
     390:	ef 90       	pop	r14
     392:	df 90       	pop	r13
     394:	cf 90       	pop	r12
     396:	08 95       	ret

00000398 <verificaSaldo>:
     398:	81 50       	subi	r24, 0x01	; 1
     39a:	90 e0       	ldi	r25, 0x00	; 0
     39c:	fc 01       	movw	r30, r24
     39e:	ee 0f       	add	r30, r30
     3a0:	ff 1f       	adc	r31, r31
     3a2:	ee 0f       	add	r30, r30
     3a4:	ff 1f       	adc	r31, r31
     3a6:	e8 0f       	add	r30, r24
     3a8:	f9 1f       	adc	r31, r25
     3aa:	eb 58       	subi	r30, 0x8B	; 139
     3ac:	fb 4f       	sbci	r31, 0xFB	; 251
     3ae:	30 81       	ld	r19, Z
     3b0:	fb 01       	movw	r30, r22
     3b2:	24 81       	ldd	r18, Z+4	; 0x04
     3b4:	23 17       	cp	r18, r19
     3b6:	08 f4       	brcc	.+2      	; 0x3ba <verificaSaldo+0x22>
     3b8:	9a c0       	rjmp	.+308    	; 0x4ee <__EEPROM_REGION_LENGTH__+0xee>
     3ba:	32 13       	cpse	r19, r18
     3bc:	0f c0       	rjmp	.+30     	; 0x3dc <verificaSaldo+0x44>
     3be:	fc 01       	movw	r30, r24
     3c0:	ee 0f       	add	r30, r30
     3c2:	ff 1f       	adc	r31, r31
     3c4:	ee 0f       	add	r30, r30
     3c6:	ff 1f       	adc	r31, r31
     3c8:	e8 0f       	add	r30, r24
     3ca:	f9 1f       	adc	r31, r25
     3cc:	eb 58       	subi	r30, 0x8B	; 139
     3ce:	fb 4f       	sbci	r31, 0xFB	; 251
     3d0:	51 81       	ldd	r21, Z+1	; 0x01
     3d2:	fb 01       	movw	r30, r22
     3d4:	43 81       	ldd	r20, Z+3	; 0x03
     3d6:	45 17       	cp	r20, r21
     3d8:	08 f4       	brcc	.+2      	; 0x3dc <verificaSaldo+0x44>
     3da:	8b c0       	rjmp	.+278    	; 0x4f2 <__EEPROM_REGION_LENGTH__+0xf2>
     3dc:	32 13       	cpse	r19, r18
     3de:	1d c0       	rjmp	.+58     	; 0x41a <__EEPROM_REGION_LENGTH__+0x1a>
     3e0:	fc 01       	movw	r30, r24
     3e2:	ee 0f       	add	r30, r30
     3e4:	ff 1f       	adc	r31, r31
     3e6:	ee 0f       	add	r30, r30
     3e8:	ff 1f       	adc	r31, r31
     3ea:	e8 0f       	add	r30, r24
     3ec:	f9 1f       	adc	r31, r25
     3ee:	eb 58       	subi	r30, 0x8B	; 139
     3f0:	fb 4f       	sbci	r31, 0xFB	; 251
     3f2:	51 81       	ldd	r21, Z+1	; 0x01
     3f4:	fb 01       	movw	r30, r22
     3f6:	43 81       	ldd	r20, Z+3	; 0x03
     3f8:	54 13       	cpse	r21, r20
     3fa:	0f c0       	rjmp	.+30     	; 0x41a <__EEPROM_REGION_LENGTH__+0x1a>
     3fc:	fc 01       	movw	r30, r24
     3fe:	ee 0f       	add	r30, r30
     400:	ff 1f       	adc	r31, r31
     402:	ee 0f       	add	r30, r30
     404:	ff 1f       	adc	r31, r31
     406:	e8 0f       	add	r30, r24
     408:	f9 1f       	adc	r31, r25
     40a:	eb 58       	subi	r30, 0x8B	; 139
     40c:	fb 4f       	sbci	r31, 0xFB	; 251
     40e:	52 81       	ldd	r21, Z+2	; 0x02
     410:	fb 01       	movw	r30, r22
     412:	42 81       	ldd	r20, Z+2	; 0x02
     414:	45 17       	cp	r20, r21
     416:	08 f4       	brcc	.+2      	; 0x41a <__EEPROM_REGION_LENGTH__+0x1a>
     418:	6e c0       	rjmp	.+220    	; 0x4f6 <__EEPROM_REGION_LENGTH__+0xf6>
     41a:	32 13       	cpse	r19, r18
     41c:	2b c0       	rjmp	.+86     	; 0x474 <__EEPROM_REGION_LENGTH__+0x74>
     41e:	fc 01       	movw	r30, r24
     420:	ee 0f       	add	r30, r30
     422:	ff 1f       	adc	r31, r31
     424:	ee 0f       	add	r30, r30
     426:	ff 1f       	adc	r31, r31
     428:	e8 0f       	add	r30, r24
     42a:	f9 1f       	adc	r31, r25
     42c:	eb 58       	subi	r30, 0x8B	; 139
     42e:	fb 4f       	sbci	r31, 0xFB	; 251
     430:	51 81       	ldd	r21, Z+1	; 0x01
     432:	fb 01       	movw	r30, r22
     434:	43 81       	ldd	r20, Z+3	; 0x03
     436:	54 13       	cpse	r21, r20
     438:	1d c0       	rjmp	.+58     	; 0x474 <__EEPROM_REGION_LENGTH__+0x74>
     43a:	fc 01       	movw	r30, r24
     43c:	ee 0f       	add	r30, r30
     43e:	ff 1f       	adc	r31, r31
     440:	ee 0f       	add	r30, r30
     442:	ff 1f       	adc	r31, r31
     444:	e8 0f       	add	r30, r24
     446:	f9 1f       	adc	r31, r25
     448:	eb 58       	subi	r30, 0x8B	; 139
     44a:	fb 4f       	sbci	r31, 0xFB	; 251
     44c:	52 81       	ldd	r21, Z+2	; 0x02
     44e:	fb 01       	movw	r30, r22
     450:	42 81       	ldd	r20, Z+2	; 0x02
     452:	54 13       	cpse	r21, r20
     454:	0f c0       	rjmp	.+30     	; 0x474 <__EEPROM_REGION_LENGTH__+0x74>
     456:	fc 01       	movw	r30, r24
     458:	ee 0f       	add	r30, r30
     45a:	ff 1f       	adc	r31, r31
     45c:	ee 0f       	add	r30, r30
     45e:	ff 1f       	adc	r31, r31
     460:	e8 0f       	add	r30, r24
     462:	f9 1f       	adc	r31, r25
     464:	eb 58       	subi	r30, 0x8B	; 139
     466:	fb 4f       	sbci	r31, 0xFB	; 251
     468:	53 81       	ldd	r21, Z+3	; 0x03
     46a:	fb 01       	movw	r30, r22
     46c:	41 81       	ldd	r20, Z+1	; 0x01
     46e:	45 17       	cp	r20, r21
     470:	08 f4       	brcc	.+2      	; 0x474 <__EEPROM_REGION_LENGTH__+0x74>
     472:	43 c0       	rjmp	.+134    	; 0x4fa <__EEPROM_REGION_LENGTH__+0xfa>
     474:	32 13       	cpse	r19, r18
     476:	43 c0       	rjmp	.+134    	; 0x4fe <__EEPROM_REGION_LENGTH__+0xfe>
     478:	fc 01       	movw	r30, r24
     47a:	ee 0f       	add	r30, r30
     47c:	ff 1f       	adc	r31, r31
     47e:	ee 0f       	add	r30, r30
     480:	ff 1f       	adc	r31, r31
     482:	e8 0f       	add	r30, r24
     484:	f9 1f       	adc	r31, r25
     486:	eb 58       	subi	r30, 0x8B	; 139
     488:	fb 4f       	sbci	r31, 0xFB	; 251
     48a:	31 81       	ldd	r19, Z+1	; 0x01
     48c:	fb 01       	movw	r30, r22
     48e:	23 81       	ldd	r18, Z+3	; 0x03
     490:	32 13       	cpse	r19, r18
     492:	37 c0       	rjmp	.+110    	; 0x502 <__EEPROM_REGION_LENGTH__+0x102>
     494:	fc 01       	movw	r30, r24
     496:	ee 0f       	add	r30, r30
     498:	ff 1f       	adc	r31, r31
     49a:	ee 0f       	add	r30, r30
     49c:	ff 1f       	adc	r31, r31
     49e:	e8 0f       	add	r30, r24
     4a0:	f9 1f       	adc	r31, r25
     4a2:	eb 58       	subi	r30, 0x8B	; 139
     4a4:	fb 4f       	sbci	r31, 0xFB	; 251
     4a6:	32 81       	ldd	r19, Z+2	; 0x02
     4a8:	fb 01       	movw	r30, r22
     4aa:	22 81       	ldd	r18, Z+2	; 0x02
     4ac:	32 13       	cpse	r19, r18
     4ae:	2b c0       	rjmp	.+86     	; 0x506 <__EEPROM_REGION_LENGTH__+0x106>
     4b0:	fc 01       	movw	r30, r24
     4b2:	ee 0f       	add	r30, r30
     4b4:	ff 1f       	adc	r31, r31
     4b6:	ee 0f       	add	r30, r30
     4b8:	ff 1f       	adc	r31, r31
     4ba:	e8 0f       	add	r30, r24
     4bc:	f9 1f       	adc	r31, r25
     4be:	eb 58       	subi	r30, 0x8B	; 139
     4c0:	fb 4f       	sbci	r31, 0xFB	; 251
     4c2:	33 81       	ldd	r19, Z+3	; 0x03
     4c4:	fb 01       	movw	r30, r22
     4c6:	21 81       	ldd	r18, Z+1	; 0x01
     4c8:	32 13       	cpse	r19, r18
     4ca:	1f c0       	rjmp	.+62     	; 0x50a <__EEPROM_REGION_LENGTH__+0x10a>
     4cc:	fc 01       	movw	r30, r24
     4ce:	ee 0f       	add	r30, r30
     4d0:	ff 1f       	adc	r31, r31
     4d2:	ee 0f       	add	r30, r30
     4d4:	ff 1f       	adc	r31, r31
     4d6:	8e 0f       	add	r24, r30
     4d8:	9f 1f       	adc	r25, r31
     4da:	fc 01       	movw	r30, r24
     4dc:	eb 58       	subi	r30, 0x8B	; 139
     4de:	fb 4f       	sbci	r31, 0xFB	; 251
     4e0:	94 81       	ldd	r25, Z+4	; 0x04
     4e2:	fb 01       	movw	r30, r22
     4e4:	80 81       	ld	r24, Z
     4e6:	98 17       	cp	r25, r24
     4e8:	90 f4       	brcc	.+36     	; 0x50e <__EEPROM_REGION_LENGTH__+0x10e>
     4ea:	80 e0       	ldi	r24, 0x00	; 0
     4ec:	08 95       	ret
     4ee:	81 e0       	ldi	r24, 0x01	; 1
     4f0:	08 95       	ret
     4f2:	81 e0       	ldi	r24, 0x01	; 1
     4f4:	08 95       	ret
     4f6:	81 e0       	ldi	r24, 0x01	; 1
     4f8:	08 95       	ret
     4fa:	81 e0       	ldi	r24, 0x01	; 1
     4fc:	08 95       	ret
     4fe:	80 e0       	ldi	r24, 0x00	; 0
     500:	08 95       	ret
     502:	80 e0       	ldi	r24, 0x00	; 0
     504:	08 95       	ret
     506:	80 e0       	ldi	r24, 0x00	; 0
     508:	08 95       	ret
     50a:	80 e0       	ldi	r24, 0x00	; 0
     50c:	08 95       	ret
     50e:	81 e0       	ldi	r24, 0x01	; 1
     510:	08 95       	ret

00000512 <verificaSenha>:
     512:	fb 01       	movw	r30, r22
     514:	90 e0       	ldi	r25, 0x00	; 0
     516:	1c c0       	rjmp	.+56     	; 0x550 <verificaSenha+0x3e>
     518:	49 2f       	mov	r20, r25
     51a:	50 e0       	ldi	r21, 0x00	; 0
     51c:	df 01       	movw	r26, r30
     51e:	a4 0f       	add	r26, r20
     520:	b5 1f       	adc	r27, r21
     522:	7c 91       	ld	r23, X
     524:	28 2f       	mov	r18, r24
     526:	30 e0       	ldi	r19, 0x00	; 0
     528:	21 50       	subi	r18, 0x01	; 1
     52a:	31 09       	sbc	r19, r1
     52c:	d9 01       	movw	r26, r18
     52e:	aa 0f       	add	r26, r26
     530:	bb 1f       	adc	r27, r27
     532:	2a 0f       	add	r18, r26
     534:	3b 1f       	adc	r19, r27
     536:	22 0f       	add	r18, r18
     538:	33 1f       	adc	r19, r19
     53a:	2d 56       	subi	r18, 0x6D	; 109
     53c:	3b 4f       	sbci	r19, 0xFB	; 251
     53e:	d9 01       	movw	r26, r18
     540:	a4 0f       	add	r26, r20
     542:	b5 1f       	adc	r27, r21
     544:	2c 91       	ld	r18, X
     546:	72 13       	cpse	r23, r18
     548:	07 c0       	rjmp	.+14     	; 0x558 <verificaSenha+0x46>
     54a:	95 30       	cpi	r25, 0x05	; 5
     54c:	39 f0       	breq	.+14     	; 0x55c <verificaSenha+0x4a>
     54e:	9f 5f       	subi	r25, 0xFF	; 255
     550:	96 30       	cpi	r25, 0x06	; 6
     552:	10 f3       	brcs	.-60     	; 0x518 <verificaSenha+0x6>
     554:	81 e0       	ldi	r24, 0x01	; 1
     556:	08 95       	ret
     558:	80 e0       	ldi	r24, 0x00	; 0
     55a:	08 95       	ret
     55c:	81 e0       	ldi	r24, 0x01	; 1
     55e:	08 95       	ret

00000560 <executarVendaInterna>:
     560:	0f 93       	push	r16
     562:	1f 93       	push	r17
     564:	cf 93       	push	r28
     566:	c8 2f       	mov	r28, r24
     568:	8b 01       	movw	r16, r22
     56a:	ba 01       	movw	r22, r20
     56c:	0e 94 89 02 	call	0x512	; 0x512 <verificaSenha>
     570:	88 23       	and	r24, r24
     572:	19 f1       	breq	.+70     	; 0x5ba <executarVendaInterna+0x5a>
     574:	b8 01       	movw	r22, r16
     576:	8c 2f       	mov	r24, r28
     578:	0e 94 94 00 	call	0x128	; 0x128 <verificaCashBack>
     57c:	88 23       	and	r24, r24
     57e:	51 f0       	breq	.+20     	; 0x594 <executarVendaInterna+0x34>
     580:	f8 01       	movw	r30, r16
     582:	83 81       	ldd	r24, Z+3	; 0x03
     584:	82 50       	subi	r24, 0x02	; 2
     586:	83 83       	std	Z+3, r24	; 0x03
     588:	ec 2f       	mov	r30, r28
     58a:	f0 e0       	ldi	r31, 0x00	; 0
     58c:	e3 57       	subi	r30, 0x73	; 115
     58e:	fb 4f       	sbci	r31, 0xFB	; 251
     590:	10 82       	st	Z, r1
     592:	07 c0       	rjmp	.+14     	; 0x5a2 <executarVendaInterna+0x42>
     594:	ec 2f       	mov	r30, r28
     596:	f0 e0       	ldi	r31, 0x00	; 0
     598:	e3 57       	subi	r30, 0x73	; 115
     59a:	fb 4f       	sbci	r31, 0xFB	; 251
     59c:	80 81       	ld	r24, Z
     59e:	8f 5f       	subi	r24, 0xFF	; 255
     5a0:	80 83       	st	Z, r24
     5a2:	b8 01       	movw	r22, r16
     5a4:	8c 2f       	mov	r24, r28
     5a6:	0e 94 cc 01 	call	0x398	; 0x398 <verificaSaldo>
     5aa:	88 23       	and	r24, r24
     5ac:	41 f0       	breq	.+16     	; 0x5be <executarVendaInterna+0x5e>
     5ae:	b8 01       	movw	r22, r16
     5b0:	8c 2f       	mov	r24, r28
     5b2:	0e 94 1b 01 	call	0x236	; 0x236 <subtraiSaldo>
     5b6:	81 e0       	ldi	r24, 0x01	; 1
     5b8:	03 c0       	rjmp	.+6      	; 0x5c0 <executarVendaInterna+0x60>
     5ba:	82 e0       	ldi	r24, 0x02	; 2
     5bc:	01 c0       	rjmp	.+2      	; 0x5c0 <executarVendaInterna+0x60>
     5be:	80 e0       	ldi	r24, 0x00	; 0
     5c0:	cf 91       	pop	r28
     5c2:	1f 91       	pop	r17
     5c4:	0f 91       	pop	r16
     5c6:	08 95       	ret

000005c8 <formata_valor>:
     5c8:	dc 01       	movw	r26, r24
     5ca:	14 96       	adiw	r26, 0x04	; 4
     5cc:	8c 91       	ld	r24, X
     5ce:	14 97       	sbiw	r26, 0x04	; 4
     5d0:	80 33       	cpi	r24, 0x30	; 48
     5d2:	c9 f0       	breq	.+50     	; 0x606 <formata_valor+0x3e>
     5d4:	13 96       	adiw	r26, 0x03	; 3
     5d6:	9c 91       	ld	r25, X
     5d8:	13 97       	sbiw	r26, 0x03	; 3
     5da:	90 32       	cpi	r25, 0x20	; 32
     5dc:	a1 f4       	brne	.+40     	; 0x606 <formata_valor+0x3e>
     5de:	12 96       	adiw	r26, 0x02	; 2
     5e0:	9c 91       	ld	r25, X
     5e2:	12 97       	sbiw	r26, 0x02	; 2
     5e4:	90 32       	cpi	r25, 0x20	; 32
     5e6:	79 f4       	brne	.+30     	; 0x606 <formata_valor+0x3e>
     5e8:	11 96       	adiw	r26, 0x01	; 1
     5ea:	9c 91       	ld	r25, X
     5ec:	11 97       	sbiw	r26, 0x01	; 1
     5ee:	90 32       	cpi	r25, 0x20	; 32
     5f0:	51 f4       	brne	.+20     	; 0x606 <formata_valor+0x3e>
     5f2:	9c 91       	ld	r25, X
     5f4:	90 32       	cpi	r25, 0x20	; 32
     5f6:	39 f4       	brne	.+14     	; 0x606 <formata_valor+0x3e>
     5f8:	12 96       	adiw	r26, 0x02	; 2
     5fa:	8c 93       	st	X, r24
     5fc:	12 97       	sbiw	r26, 0x02	; 2
     5fe:	80 e2       	ldi	r24, 0x20	; 32
     600:	14 96       	adiw	r26, 0x04	; 4
     602:	8c 93       	st	X, r24
     604:	14 97       	sbiw	r26, 0x04	; 4
     606:	14 96       	adiw	r26, 0x04	; 4
     608:	8c 91       	ld	r24, X
     60a:	14 97       	sbiw	r26, 0x04	; 4
     60c:	80 32       	cpi	r24, 0x20	; 32
     60e:	e1 f0       	breq	.+56     	; 0x648 <formata_valor+0x80>
     610:	13 96       	adiw	r26, 0x03	; 3
     612:	9c 91       	ld	r25, X
     614:	13 97       	sbiw	r26, 0x03	; 3
     616:	90 32       	cpi	r25, 0x20	; 32
     618:	b9 f0       	breq	.+46     	; 0x648 <formata_valor+0x80>
     61a:	12 96       	adiw	r26, 0x02	; 2
     61c:	2c 91       	ld	r18, X
     61e:	12 97       	sbiw	r26, 0x02	; 2
     620:	20 32       	cpi	r18, 0x20	; 32
     622:	91 f4       	brne	.+36     	; 0x648 <formata_valor+0x80>
     624:	11 96       	adiw	r26, 0x01	; 1
     626:	2c 91       	ld	r18, X
     628:	11 97       	sbiw	r26, 0x01	; 1
     62a:	20 32       	cpi	r18, 0x20	; 32
     62c:	69 f4       	brne	.+26     	; 0x648 <formata_valor+0x80>
     62e:	2c 91       	ld	r18, X
     630:	20 32       	cpi	r18, 0x20	; 32
     632:	51 f4       	brne	.+20     	; 0x648 <formata_valor+0x80>
     634:	12 96       	adiw	r26, 0x02	; 2
     636:	9c 93       	st	X, r25
     638:	12 97       	sbiw	r26, 0x02	; 2
     63a:	13 96       	adiw	r26, 0x03	; 3
     63c:	8c 93       	st	X, r24
     63e:	13 97       	sbiw	r26, 0x03	; 3
     640:	80 e2       	ldi	r24, 0x20	; 32
     642:	14 96       	adiw	r26, 0x04	; 4
     644:	8c 93       	st	X, r24
     646:	14 97       	sbiw	r26, 0x04	; 4
     648:	20 e0       	ldi	r18, 0x00	; 0
     64a:	30 e0       	ldi	r19, 0x00	; 0
     64c:	0c c0       	rjmp	.+24     	; 0x666 <formata_valor+0x9e>
     64e:	c9 01       	movw	r24, r18
     650:	fd 01       	movw	r30, r26
     652:	e2 0f       	add	r30, r18
     654:	f3 1f       	adc	r31, r19
     656:	20 81       	ld	r18, Z
     658:	20 32       	cpi	r18, 0x20	; 32
     65a:	11 f4       	brne	.+4      	; 0x660 <formata_valor+0x98>
     65c:	20 e3       	ldi	r18, 0x30	; 48
     65e:	20 83       	st	Z, r18
     660:	9c 01       	movw	r18, r24
     662:	2f 5f       	subi	r18, 0xFF	; 255
     664:	3f 4f       	sbci	r19, 0xFF	; 255
     666:	25 30       	cpi	r18, 0x05	; 5
     668:	31 05       	cpc	r19, r1
     66a:	8c f3       	brlt	.-30     	; 0x64e <formata_valor+0x86>
     66c:	08 95       	ret

0000066e <tecla_lida>:
     66e:	87 b1       	in	r24, 0x07	; 7
     670:	80 7f       	andi	r24, 0xF0	; 240
     672:	87 b9       	out	0x07, r24	; 7
     674:	8a b1       	in	r24, 0x0a	; 10
     676:	8f 78       	andi	r24, 0x8F	; 143
     678:	8a b9       	out	0x0a, r24	; 10
     67a:	88 b1       	in	r24, 0x08	; 8
     67c:	8f 60       	ori	r24, 0x0F	; 15
     67e:	88 b9       	out	0x08, r24	; 8
     680:	80 e0       	ldi	r24, 0x00	; 0
     682:	26 c0       	rjmp	.+76     	; 0x6d0 <tecla_lida+0x62>
     684:	9a b1       	in	r25, 0x0a	; 10
     686:	20 e1       	ldi	r18, 0x10	; 16
     688:	30 e0       	ldi	r19, 0x00	; 0
     68a:	08 2e       	mov	r0, r24
     68c:	02 c0       	rjmp	.+4      	; 0x692 <tecla_lida+0x24>
     68e:	22 0f       	add	r18, r18
     690:	33 1f       	adc	r19, r19
     692:	0a 94       	dec	r0
     694:	e2 f7       	brpl	.-8      	; 0x68e <tecla_lida+0x20>
     696:	29 2b       	or	r18, r25
     698:	2a b9       	out	0x0a, r18	; 10
     69a:	e7 ec       	ldi	r30, 0xC7	; 199
     69c:	f0 e0       	ldi	r31, 0x00	; 0
     69e:	31 97       	sbiw	r30, 0x01	; 1
     6a0:	f1 f7       	brne	.-4      	; 0x69e <tecla_lida+0x30>
     6a2:	00 c0       	rjmp	.+0      	; 0x6a4 <tecla_lida+0x36>
     6a4:	00 00       	nop
     6a6:	90 e0       	ldi	r25, 0x00	; 0
     6a8:	10 c0       	rjmp	.+32     	; 0x6ca <tecla_lida+0x5c>
     6aa:	26 b1       	in	r18, 0x06	; 6
     6ac:	30 e0       	ldi	r19, 0x00	; 0
     6ae:	09 2e       	mov	r0, r25
     6b0:	02 c0       	rjmp	.+4      	; 0x6b6 <tecla_lida+0x48>
     6b2:	35 95       	asr	r19
     6b4:	27 95       	ror	r18
     6b6:	0a 94       	dec	r0
     6b8:	e2 f7       	brpl	.-8      	; 0x6b2 <tecla_lida+0x44>
     6ba:	20 fd       	sbrc	r18, 0
     6bc:	05 c0       	rjmp	.+10     	; 0x6c8 <tecla_lida+0x5a>
     6be:	29 2f       	mov	r18, r25
     6c0:	22 0f       	add	r18, r18
     6c2:	92 0f       	add	r25, r18
     6c4:	89 0f       	add	r24, r25
     6c6:	08 95       	ret
     6c8:	9f 5f       	subi	r25, 0xFF	; 255
     6ca:	94 30       	cpi	r25, 0x04	; 4
     6cc:	70 f3       	brcs	.-36     	; 0x6aa <tecla_lida+0x3c>
     6ce:	8f 5f       	subi	r24, 0xFF	; 255
     6d0:	83 30       	cpi	r24, 0x03	; 3
     6d2:	c0 f2       	brcs	.-80     	; 0x684 <tecla_lida+0x16>
     6d4:	89 e1       	ldi	r24, 0x19	; 25
     6d6:	08 95       	ret

000006d8 <teclaDebouce>:
     6d8:	1f 93       	push	r17
     6da:	cf 93       	push	r28
     6dc:	df 93       	push	r29
     6de:	0e 94 37 03 	call	0x66e	; 0x66e <tecla_lida>
     6e2:	18 2f       	mov	r17, r24
     6e4:	d0 e0       	ldi	r29, 0x00	; 0
     6e6:	0f c0       	rjmp	.+30     	; 0x706 <teclaDebouce+0x2e>
     6e8:	8f e7       	ldi	r24, 0x7F	; 127
     6ea:	9e e3       	ldi	r25, 0x3E	; 62
     6ec:	01 97       	sbiw	r24, 0x01	; 1
     6ee:	f1 f7       	brne	.-4      	; 0x6ec <teclaDebouce+0x14>
     6f0:	00 c0       	rjmp	.+0      	; 0x6f2 <teclaDebouce+0x1a>
     6f2:	00 00       	nop
     6f4:	0e 94 37 03 	call	0x66e	; 0x66e <tecla_lida>
     6f8:	c8 2f       	mov	r28, r24
     6fa:	18 13       	cpse	r17, r24
     6fc:	02 c0       	rjmp	.+4      	; 0x702 <teclaDebouce+0x2a>
     6fe:	df 5f       	subi	r29, 0xFF	; 255
     700:	01 c0       	rjmp	.+2      	; 0x704 <teclaDebouce+0x2c>
     702:	d0 e0       	ldi	r29, 0x00	; 0
     704:	1c 2f       	mov	r17, r28
     706:	da 30       	cpi	r29, 0x0A	; 10
     708:	78 f3       	brcs	.-34     	; 0x6e8 <teclaDebouce+0x10>
     70a:	8c 2f       	mov	r24, r28
     70c:	df 91       	pop	r29
     70e:	cf 91       	pop	r28
     710:	1f 91       	pop	r17
     712:	08 95       	ret

00000714 <acao_tecla>:
     714:	90 e0       	ldi	r25, 0x00	; 0
     716:	8c 30       	cpi	r24, 0x0C	; 12
     718:	91 05       	cpc	r25, r1
     71a:	d8 f4       	brcc	.+54     	; 0x752 <acao_tecla+0x3e>
     71c:	fc 01       	movw	r30, r24
     71e:	ec 5c       	subi	r30, 0xCC	; 204
     720:	ff 4f       	sbci	r31, 0xFF	; 255
     722:	0c 94 66 10 	jmp	0x20cc	; 0x20cc <__tablejump2__>
     726:	81 e0       	ldi	r24, 0x01	; 1
     728:	08 95       	ret
     72a:	83 e0       	ldi	r24, 0x03	; 3
     72c:	08 95       	ret
     72e:	84 e0       	ldi	r24, 0x04	; 4
     730:	08 95       	ret
     732:	85 e0       	ldi	r24, 0x05	; 5
     734:	08 95       	ret
     736:	86 e0       	ldi	r24, 0x06	; 6
     738:	08 95       	ret
     73a:	87 e0       	ldi	r24, 0x07	; 7
     73c:	08 95       	ret
     73e:	88 e0       	ldi	r24, 0x08	; 8
     740:	08 95       	ret
     742:	89 e0       	ldi	r24, 0x09	; 9
     744:	08 95       	ret
     746:	8a e0       	ldi	r24, 0x0A	; 10
     748:	08 95       	ret
     74a:	8b e0       	ldi	r24, 0x0B	; 11
     74c:	08 95       	ret
     74e:	8c e0       	ldi	r24, 0x0C	; 12
     750:	08 95       	ret
     752:	89 e1       	ldi	r24, 0x19	; 25
     754:	08 95       	ret
     756:	82 e0       	ldi	r24, 0x02	; 2
     758:	08 95       	ret

0000075a <USART_INIT>:
     75a:	90 93 c5 00 	sts	0x00C5, r25	; 0x8000c5 <__TEXT_REGION_LENGTH__+0x7f80c5>
     75e:	80 93 c4 00 	sts	0x00C4, r24	; 0x8000c4 <__TEXT_REGION_LENGTH__+0x7f80c4>
     762:	88 e1       	ldi	r24, 0x18	; 24
     764:	80 93 c1 00 	sts	0x00C1, r24	; 0x8000c1 <__TEXT_REGION_LENGTH__+0x7f80c1>
     768:	89 e0       	ldi	r24, 0x09	; 9
     76a:	80 93 c2 00 	sts	0x00C2, r24	; 0x8000c2 <__TEXT_REGION_LENGTH__+0x7f80c2>
     76e:	08 95       	ret

00000770 <USART_envia>:
     770:	90 91 c0 00 	lds	r25, 0x00C0	; 0x8000c0 <__TEXT_REGION_LENGTH__+0x7f80c0>
     774:	95 ff       	sbrs	r25, 5
     776:	fc cf       	rjmp	.-8      	; 0x770 <USART_envia>
     778:	80 93 c6 00 	sts	0x00C6, r24	; 0x8000c6 <__TEXT_REGION_LENGTH__+0x7f80c6>
     77c:	08 95       	ret

0000077e <mostraSaldoNaSerial>:
     77e:	0f 93       	push	r16
     780:	1f 93       	push	r17
     782:	cf 93       	push	r28
     784:	df 93       	push	r29
     786:	00 e0       	ldi	r16, 0x00	; 0
     788:	10 e0       	ldi	r17, 0x00	; 0
     78a:	1d c0       	rjmp	.+58     	; 0x7c6 <mostraSaldoNaSerial+0x48>
     78c:	e8 01       	movw	r28, r16
     78e:	cc 0f       	add	r28, r28
     790:	dd 1f       	adc	r29, r29
     792:	cc 0f       	add	r28, r28
     794:	dd 1f       	adc	r29, r29
     796:	c0 0f       	add	r28, r16
     798:	d1 1f       	adc	r29, r17
     79a:	cb 58       	subi	r28, 0x8B	; 139
     79c:	db 4f       	sbci	r29, 0xFB	; 251
     79e:	88 81       	ld	r24, Y
     7a0:	0e 94 b8 03 	call	0x770	; 0x770 <USART_envia>
     7a4:	89 81       	ldd	r24, Y+1	; 0x01
     7a6:	0e 94 b8 03 	call	0x770	; 0x770 <USART_envia>
     7aa:	8a 81       	ldd	r24, Y+2	; 0x02
     7ac:	0e 94 b8 03 	call	0x770	; 0x770 <USART_envia>
     7b0:	8b 81       	ldd	r24, Y+3	; 0x03
     7b2:	0e 94 b8 03 	call	0x770	; 0x770 <USART_envia>
     7b6:	8c 81       	ldd	r24, Y+4	; 0x04
     7b8:	0e 94 b8 03 	call	0x770	; 0x770 <USART_envia>
     7bc:	8d e0       	ldi	r24, 0x0D	; 13
     7be:	0e 94 b8 03 	call	0x770	; 0x770 <USART_envia>
     7c2:	0f 5f       	subi	r16, 0xFF	; 255
     7c4:	1f 4f       	sbci	r17, 0xFF	; 255
     7c6:	80 91 74 04 	lds	r24, 0x0474	; 0x800474 <cartoesCadastrados>
     7ca:	90 e0       	ldi	r25, 0x00	; 0
     7cc:	08 17       	cp	r16, r24
     7ce:	19 07       	cpc	r17, r25
     7d0:	ec f2       	brlt	.-70     	; 0x78c <mostraSaldoNaSerial+0xe>
     7d2:	df 91       	pop	r29
     7d4:	cf 91       	pop	r28
     7d6:	1f 91       	pop	r17
     7d8:	0f 91       	pop	r16
     7da:	08 95       	ret

000007dc <USART_recebe>:
     7dc:	80 91 c0 00 	lds	r24, 0x00C0	; 0x8000c0 <__TEXT_REGION_LENGTH__+0x7f80c0>
     7e0:	88 23       	and	r24, r24
     7e2:	e4 f7       	brge	.-8      	; 0x7dc <USART_recebe>
     7e4:	80 91 c6 00 	lds	r24, 0x00C6	; 0x8000c6 <__TEXT_REGION_LENGTH__+0x7f80c6>
     7e8:	08 95       	ret

000007ea <write>:
     7ea:	95 b1       	in	r25, 0x05	; 5
     7ec:	9f 77       	andi	r25, 0x7F	; 127
     7ee:	95 b9       	out	0x05, r25	; 5
     7f0:	95 b1       	in	r25, 0x05	; 5
     7f2:	9f 7b       	andi	r25, 0xBF	; 191
     7f4:	95 b9       	out	0x05, r25	; 5
     7f6:	95 b1       	in	r25, 0x05	; 5
     7f8:	9f 7d       	andi	r25, 0xDF	; 223
     7fa:	95 b9       	out	0x05, r25	; 5
     7fc:	95 b1       	in	r25, 0x05	; 5
     7fe:	9f 7e       	andi	r25, 0xEF	; 239
     800:	95 b9       	out	0x05, r25	; 5
     802:	88 23       	and	r24, r24
     804:	1c f4       	brge	.+6      	; 0x80c <__DATA_REGION_LENGTH__+0xc>
     806:	95 b1       	in	r25, 0x05	; 5
     808:	90 68       	ori	r25, 0x80	; 128
     80a:	95 b9       	out	0x05, r25	; 5
     80c:	86 ff       	sbrs	r24, 6
     80e:	03 c0       	rjmp	.+6      	; 0x816 <__DATA_REGION_LENGTH__+0x16>
     810:	95 b1       	in	r25, 0x05	; 5
     812:	90 64       	ori	r25, 0x40	; 64
     814:	95 b9       	out	0x05, r25	; 5
     816:	85 ff       	sbrs	r24, 5
     818:	03 c0       	rjmp	.+6      	; 0x820 <__DATA_REGION_LENGTH__+0x20>
     81a:	95 b1       	in	r25, 0x05	; 5
     81c:	90 62       	ori	r25, 0x20	; 32
     81e:	95 b9       	out	0x05, r25	; 5
     820:	84 ff       	sbrs	r24, 4
     822:	03 c0       	rjmp	.+6      	; 0x82a <__DATA_REGION_LENGTH__+0x2a>
     824:	85 b1       	in	r24, 0x05	; 5
     826:	80 61       	ori	r24, 0x10	; 16
     828:	85 b9       	out	0x05, r24	; 5
     82a:	85 b1       	in	r24, 0x05	; 5
     82c:	82 60       	ori	r24, 0x02	; 2
     82e:	85 b9       	out	0x05, r24	; 5
     830:	85 e0       	ldi	r24, 0x05	; 5
     832:	8a 95       	dec	r24
     834:	f1 f7       	brne	.-4      	; 0x832 <__DATA_REGION_LENGTH__+0x32>
     836:	00 00       	nop
     838:	85 b1       	in	r24, 0x05	; 5
     83a:	8d 7f       	andi	r24, 0xFD	; 253
     83c:	85 b9       	out	0x05, r24	; 5
     83e:	85 e0       	ldi	r24, 0x05	; 5
     840:	8a 95       	dec	r24
     842:	f1 f7       	brne	.-4      	; 0x840 <__DATA_REGION_LENGTH__+0x40>
     844:	00 00       	nop
     846:	08 95       	ret

00000848 <writeCharacter>:
     848:	cf 93       	push	r28
     84a:	c8 2f       	mov	r28, r24
     84c:	85 b1       	in	r24, 0x05	; 5
     84e:	81 60       	ori	r24, 0x01	; 1
     850:	85 b9       	out	0x05, r24	; 5
     852:	85 b1       	in	r24, 0x05	; 5
     854:	8d 7f       	andi	r24, 0xFD	; 253
     856:	85 b9       	out	0x05, r24	; 5
     858:	8c 2f       	mov	r24, r28
     85a:	0e 94 f5 03 	call	0x7ea	; 0x7ea <write>
     85e:	8c 2f       	mov	r24, r28
     860:	82 95       	swap	r24
     862:	80 7f       	andi	r24, 0xF0	; 240
     864:	0e 94 f5 03 	call	0x7ea	; 0x7ea <write>
     868:	cf 91       	pop	r28
     86a:	08 95       	ret

0000086c <writeString>:
     86c:	0f 93       	push	r16
     86e:	1f 93       	push	r17
     870:	cf 93       	push	r28
     872:	df 93       	push	r29
     874:	00 d0       	rcall	.+0      	; 0x876 <writeString+0xa>
     876:	cd b7       	in	r28, 0x3d	; 61
     878:	de b7       	in	r29, 0x3e	; 62
     87a:	8c 01       	movw	r16, r24
     87c:	1a 82       	std	Y+2, r1	; 0x02
     87e:	19 82       	std	Y+1, r1	; 0x01
     880:	10 c0       	rjmp	.+32     	; 0x8a2 <writeString+0x36>
     882:	e9 81       	ldd	r30, Y+1	; 0x01
     884:	fa 81       	ldd	r31, Y+2	; 0x02
     886:	e0 0f       	add	r30, r16
     888:	f1 1f       	adc	r31, r17
     88a:	80 81       	ld	r24, Z
     88c:	0e 94 24 04 	call	0x848	; 0x848 <writeCharacter>
     890:	89 81       	ldd	r24, Y+1	; 0x01
     892:	9a 81       	ldd	r25, Y+2	; 0x02
     894:	01 96       	adiw	r24, 0x01	; 1
     896:	9a 83       	std	Y+2, r25	; 0x02
     898:	89 83       	std	Y+1, r24	; 0x01
     89a:	85 ed       	ldi	r24, 0xD5	; 213
     89c:	8a 95       	dec	r24
     89e:	f1 f7       	brne	.-4      	; 0x89c <writeString+0x30>
     8a0:	00 00       	nop
     8a2:	e9 81       	ldd	r30, Y+1	; 0x01
     8a4:	fa 81       	ldd	r31, Y+2	; 0x02
     8a6:	e0 0f       	add	r30, r16
     8a8:	f1 1f       	adc	r31, r17
     8aa:	80 81       	ld	r24, Z
     8ac:	81 11       	cpse	r24, r1
     8ae:	e9 cf       	rjmp	.-46     	; 0x882 <writeString+0x16>
     8b0:	0f 90       	pop	r0
     8b2:	0f 90       	pop	r0
     8b4:	df 91       	pop	r29
     8b6:	cf 91       	pop	r28
     8b8:	1f 91       	pop	r17
     8ba:	0f 91       	pop	r16
     8bc:	08 95       	ret

000008be <writeInstruction>:
     8be:	cf 93       	push	r28
     8c0:	c8 2f       	mov	r28, r24
     8c2:	85 b1       	in	r24, 0x05	; 5
     8c4:	8e 7f       	andi	r24, 0xFE	; 254
     8c6:	85 b9       	out	0x05, r24	; 5
     8c8:	85 b1       	in	r24, 0x05	; 5
     8ca:	8d 7f       	andi	r24, 0xFD	; 253
     8cc:	85 b9       	out	0x05, r24	; 5
     8ce:	8c 2f       	mov	r24, r28
     8d0:	0e 94 f5 03 	call	0x7ea	; 0x7ea <write>
     8d4:	8c 2f       	mov	r24, r28
     8d6:	82 95       	swap	r24
     8d8:	80 7f       	andi	r24, 0xF0	; 240
     8da:	0e 94 f5 03 	call	0x7ea	; 0x7ea <write>
     8de:	85 ed       	ldi	r24, 0xD5	; 213
     8e0:	8a 95       	dec	r24
     8e2:	f1 f7       	brne	.-4      	; 0x8e0 <writeInstruction+0x22>
     8e4:	00 00       	nop
     8e6:	cf 91       	pop	r28
     8e8:	08 95       	ret

000008ea <recebe_valor>:
     8ea:	ef 92       	push	r14
     8ec:	ff 92       	push	r15
     8ee:	0f 93       	push	r16
     8f0:	1f 93       	push	r17
     8f2:	cf 93       	push	r28
     8f4:	df 93       	push	r29
     8f6:	7c 01       	movw	r14, r24
     8f8:	00 e0       	ldi	r16, 0x00	; 0
     8fa:	10 e0       	ldi	r17, 0x00	; 0
     8fc:	0e 94 6c 03 	call	0x6d8	; 0x6d8 <teclaDebouce>
     900:	89 31       	cpi	r24, 0x19	; 25
     902:	e1 f3       	breq	.-8      	; 0x8fc <recebe_valor+0x12>
     904:	c1 e3       	ldi	r28, 0x31	; 49
     906:	c8 0f       	add	r28, r24
     908:	ca 33       	cpi	r28, 0x3A	; 58
     90a:	e1 f4       	brne	.+56     	; 0x944 <__stack+0x45>
     90c:	10 16       	cp	r1, r16
     90e:	11 06       	cpc	r1, r17
     910:	ac f7       	brge	.-22     	; 0x8fc <recebe_valor+0x12>
     912:	c2 e0       	ldi	r28, 0x02	; 2
     914:	c0 0f       	add	r28, r16
     916:	c0 6c       	ori	r28, 0xC0	; 192
     918:	8c 2f       	mov	r24, r28
     91a:	0e 94 5f 04 	call	0x8be	; 0x8be <writeInstruction>
     91e:	82 e6       	ldi	r24, 0x62	; 98
     920:	92 e0       	ldi	r25, 0x02	; 2
     922:	0e 94 36 04 	call	0x86c	; 0x86c <writeString>
     926:	8c 2f       	mov	r24, r28
     928:	0e 94 5f 04 	call	0x8be	; 0x8be <writeInstruction>
     92c:	e4 e0       	ldi	r30, 0x04	; 4
     92e:	f0 e0       	ldi	r31, 0x00	; 0
     930:	e0 1b       	sub	r30, r16
     932:	f1 0b       	sbc	r31, r17
     934:	31 96       	adiw	r30, 0x01	; 1
     936:	ee 0d       	add	r30, r14
     938:	ff 1d       	adc	r31, r15
     93a:	80 e2       	ldi	r24, 0x20	; 32
     93c:	80 83       	st	Z, r24
     93e:	01 50       	subi	r16, 0x01	; 1
     940:	11 09       	sbc	r17, r1
     942:	dc cf       	rjmp	.-72     	; 0x8fc <recebe_valor+0x12>
     944:	cc 33       	cpi	r28, 0x3C	; 60
     946:	21 f4       	brne	.+8      	; 0x950 <__stack+0x51>
     948:	f7 01       	movw	r30, r14
     94a:	85 81       	ldd	r24, Z+5	; 0x05
     94c:	80 33       	cpi	r24, 0x30	; 48
     94e:	e1 f4       	brne	.+56     	; 0x988 <__stack+0x89>
     950:	05 30       	cpi	r16, 0x05	; 5
     952:	11 05       	cpc	r17, r1
     954:	9c f6       	brge	.-90     	; 0x8fc <recebe_valor+0x12>
     956:	cb 33       	cpi	r28, 0x3B	; 59
     958:	09 f4       	brne	.+2      	; 0x95c <__stack+0x5d>
     95a:	c0 e3       	ldi	r28, 0x30	; 48
     95c:	e4 e0       	ldi	r30, 0x04	; 4
     95e:	f0 e0       	ldi	r31, 0x00	; 0
     960:	e0 1b       	sub	r30, r16
     962:	f1 0b       	sbc	r31, r17
     964:	ee 0d       	add	r30, r14
     966:	ff 1d       	adc	r31, r15
     968:	c0 83       	st	Z, r28
     96a:	d3 e0       	ldi	r29, 0x03	; 3
     96c:	d0 0f       	add	r29, r16
     96e:	d0 6c       	ori	r29, 0xC0	; 192
     970:	8d 2f       	mov	r24, r29
     972:	0e 94 5f 04 	call	0x8be	; 0x8be <writeInstruction>
     976:	8c 2f       	mov	r24, r28
     978:	0e 94 24 04 	call	0x848	; 0x848 <writeCharacter>
     97c:	8d 2f       	mov	r24, r29
     97e:	0e 94 5f 04 	call	0x8be	; 0x8be <writeInstruction>
     982:	0f 5f       	subi	r16, 0xFF	; 255
     984:	1f 4f       	sbci	r17, 0xFF	; 255
     986:	ba cf       	rjmp	.-140    	; 0x8fc <recebe_valor+0x12>
     988:	df 91       	pop	r29
     98a:	cf 91       	pop	r28
     98c:	1f 91       	pop	r17
     98e:	0f 91       	pop	r16
     990:	ff 90       	pop	r15
     992:	ef 90       	pop	r14
     994:	08 95       	ret

00000996 <setup_lcd>:
     996:	83 ef       	ldi	r24, 0xF3	; 243
     998:	84 b9       	out	0x04, r24	; 4
     99a:	85 b1       	in	r24, 0x05	; 5
     99c:	8e 7f       	andi	r24, 0xFE	; 254
     99e:	85 b9       	out	0x05, r24	; 5
     9a0:	85 b1       	in	r24, 0x05	; 5
     9a2:	8d 7f       	andi	r24, 0xFD	; 253
     9a4:	85 b9       	out	0x05, r24	; 5
     9a6:	80 e3       	ldi	r24, 0x30	; 48
     9a8:	0e 94 f5 03 	call	0x7ea	; 0x7ea <write>
     9ac:	8f e3       	ldi	r24, 0x3F	; 63
     9ae:	9c e9       	ldi	r25, 0x9C	; 156
     9b0:	01 97       	sbiw	r24, 0x01	; 1
     9b2:	f1 f7       	brne	.-4      	; 0x9b0 <setup_lcd+0x1a>
     9b4:	00 c0       	rjmp	.+0      	; 0x9b6 <setup_lcd+0x20>
     9b6:	00 00       	nop
     9b8:	88 e2       	ldi	r24, 0x28	; 40
     9ba:	0e 94 f5 03 	call	0x7ea	; 0x7ea <write>
     9be:	95 ed       	ldi	r25, 0xD5	; 213
     9c0:	9a 95       	dec	r25
     9c2:	f1 f7       	brne	.-4      	; 0x9c0 <setup_lcd+0x2a>
     9c4:	00 00       	nop
     9c6:	88 e2       	ldi	r24, 0x28	; 40
     9c8:	0e 94 5f 04 	call	0x8be	; 0x8be <writeInstruction>
     9cc:	88 e0       	ldi	r24, 0x08	; 8
     9ce:	0e 94 5f 04 	call	0x8be	; 0x8be <writeInstruction>
     9d2:	81 e0       	ldi	r24, 0x01	; 1
     9d4:	0e 94 5f 04 	call	0x8be	; 0x8be <writeInstruction>
     9d8:	86 e0       	ldi	r24, 0x06	; 6
     9da:	0e 94 5f 04 	call	0x8be	; 0x8be <writeInstruction>
     9de:	08 95       	ret

000009e0 <validarSenha>:
     9e0:	ef 92       	push	r14
     9e2:	ff 92       	push	r15
     9e4:	0f 93       	push	r16
     9e6:	1f 93       	push	r17
     9e8:	cf 93       	push	r28
     9ea:	df 93       	push	r29
     9ec:	7c 01       	movw	r14, r24
     9ee:	8b 01       	movw	r16, r22
     9f0:	81 e0       	ldi	r24, 0x01	; 1
     9f2:	20 e0       	ldi	r18, 0x00	; 0
     9f4:	30 e0       	ldi	r19, 0x00	; 0
     9f6:	12 c0       	rjmp	.+36     	; 0xa1c <validarSenha+0x3c>
     9f8:	e9 01       	movw	r28, r18
     9fa:	f7 01       	movw	r30, r14
     9fc:	e2 0f       	add	r30, r18
     9fe:	f3 1f       	adc	r31, r19
     a00:	40 81       	ld	r20, Z
     a02:	f8 01       	movw	r30, r16
     a04:	e2 0f       	add	r30, r18
     a06:	f3 1f       	adc	r31, r19
     a08:	90 81       	ld	r25, Z
     a0a:	49 17       	cp	r20, r25
     a0c:	21 f0       	breq	.+8      	; 0xa16 <validarSenha+0x36>
     a0e:	81 e4       	ldi	r24, 0x41	; 65
     a10:	0e 94 24 04 	call	0x848	; 0x848 <writeCharacter>
     a14:	80 e0       	ldi	r24, 0x00	; 0
     a16:	9e 01       	movw	r18, r28
     a18:	2f 5f       	subi	r18, 0xFF	; 255
     a1a:	3f 4f       	sbci	r19, 0xFF	; 255
     a1c:	26 30       	cpi	r18, 0x06	; 6
     a1e:	31 05       	cpc	r19, r1
     a20:	5c f3       	brlt	.-42     	; 0x9f8 <validarSenha+0x18>
     a22:	df 91       	pop	r29
     a24:	cf 91       	pop	r28
     a26:	1f 91       	pop	r17
     a28:	0f 91       	pop	r16
     a2a:	ff 90       	pop	r15
     a2c:	ef 90       	pop	r14
     a2e:	08 95       	ret

00000a30 <lerSenha>:
     a30:	ff 92       	push	r15
     a32:	0f 93       	push	r16
     a34:	1f 93       	push	r17
     a36:	cf 93       	push	r28
     a38:	df 93       	push	r29
     a3a:	8c 01       	movw	r16, r24
     a3c:	0e 94 6c 03 	call	0x6d8	; 0x6d8 <teclaDebouce>
     a40:	0e 94 8a 03 	call	0x714	; 0x714 <acao_tecla>
     a44:	f8 01       	movw	r30, r16
     a46:	80 83       	st	Z, r24
     a48:	80 ec       	ldi	r24, 0xC0	; 192
     a4a:	0e 94 5f 04 	call	0x8be	; 0x8be <writeInstruction>
     a4e:	80 e0       	ldi	r24, 0x00	; 0
     a50:	c0 e0       	ldi	r28, 0x00	; 0
     a52:	d0 e0       	ldi	r29, 0x00	; 0
     a54:	38 c0       	rjmp	.+112    	; 0xac6 <lerSenha+0x96>
     a56:	0e 94 6c 03 	call	0x6d8	; 0x6d8 <teclaDebouce>
     a5a:	f8 01       	movw	r30, r16
     a5c:	80 83       	st	Z, r24
     a5e:	89 31       	cpi	r24, 0x19	; 25
     a60:	99 f0       	breq	.+38     	; 0xa88 <lerSenha+0x58>
     a62:	8b 30       	cpi	r24, 0x0B	; 11
     a64:	89 f0       	breq	.+34     	; 0xa88 <lerSenha+0x58>
     a66:	89 30       	cpi	r24, 0x09	; 9
     a68:	79 f0       	breq	.+30     	; 0xa88 <lerSenha+0x58>
     a6a:	c6 30       	cpi	r28, 0x06	; 6
     a6c:	d1 05       	cpc	r29, r1
     a6e:	64 f4       	brge	.+24     	; 0xa88 <lerSenha+0x58>
     a70:	91 e0       	ldi	r25, 0x01	; 1
     a72:	98 0f       	add	r25, r24
     a74:	fe 01       	movw	r30, r28
     a76:	ee 5f       	subi	r30, 0xFE	; 254
     a78:	fe 4f       	sbci	r31, 0xFE	; 254
     a7a:	90 83       	st	Z, r25
     a7c:	8f 5c       	subi	r24, 0xCF	; 207
     a7e:	0e 94 24 04 	call	0x848	; 0x848 <writeCharacter>
     a82:	21 96       	adiw	r28, 0x01	; 1
     a84:	80 e0       	ldi	r24, 0x00	; 0
     a86:	1f c0       	rjmp	.+62     	; 0xac6 <lerSenha+0x96>
     a88:	89 30       	cpi	r24, 0x09	; 9
     a8a:	c1 f4       	brne	.+48     	; 0xabc <lerSenha+0x8c>
     a8c:	1c 16       	cp	r1, r28
     a8e:	1d 06       	cpc	r1, r29
     a90:	74 f4       	brge	.+28     	; 0xaae <lerSenha+0x7e>
     a92:	8c 2f       	mov	r24, r28
     a94:	81 50       	subi	r24, 0x01	; 1
     a96:	80 6c       	ori	r24, 0xC0	; 192
     a98:	f8 2e       	mov	r15, r24
     a9a:	0e 94 5f 04 	call	0x8be	; 0x8be <writeInstruction>
     a9e:	82 e6       	ldi	r24, 0x62	; 98
     aa0:	92 e0       	ldi	r25, 0x02	; 2
     aa2:	0e 94 36 04 	call	0x86c	; 0x86c <writeString>
     aa6:	8f 2d       	mov	r24, r15
     aa8:	0e 94 5f 04 	call	0x8be	; 0x8be <writeInstruction>
     aac:	21 97       	sbiw	r28, 0x01	; 1
     aae:	86 e4       	ldi	r24, 0x46	; 70
     ab0:	fe 01       	movw	r30, r28
     ab2:	ee 5f       	subi	r30, 0xFE	; 254
     ab4:	fe 4f       	sbci	r31, 0xFE	; 254
     ab6:	80 83       	st	Z, r24
     ab8:	80 e0       	ldi	r24, 0x00	; 0
     aba:	05 c0       	rjmp	.+10     	; 0xac6 <lerSenha+0x96>
     abc:	8b 30       	cpi	r24, 0x0B	; 11
     abe:	11 f0       	breq	.+4      	; 0xac4 <lerSenha+0x94>
     ac0:	80 e0       	ldi	r24, 0x00	; 0
     ac2:	01 c0       	rjmp	.+2      	; 0xac6 <lerSenha+0x96>
     ac4:	81 e0       	ldi	r24, 0x01	; 1
     ac6:	88 23       	and	r24, r24
     ac8:	31 f2       	breq	.-116    	; 0xa56 <lerSenha+0x26>
     aca:	20 97       	sbiw	r28, 0x00	; 0
     acc:	21 f2       	breq	.-120    	; 0xa56 <lerSenha+0x26>
     ace:	89 e1       	ldi	r24, 0x19	; 25
     ad0:	f8 01       	movw	r30, r16
     ad2:	80 83       	st	Z, r24
     ad4:	df 91       	pop	r29
     ad6:	cf 91       	pop	r28
     ad8:	1f 91       	pop	r17
     ada:	0f 91       	pop	r16
     adc:	ff 90       	pop	r15
     ade:	08 95       	ret

00000ae0 <login>:
     ae0:	ef 92       	push	r14
     ae2:	ff 92       	push	r15
     ae4:	0f 93       	push	r16
     ae6:	1f 93       	push	r17
     ae8:	cf 93       	push	r28
     aea:	df 93       	push	r29
     aec:	7c 01       	movw	r14, r24
     aee:	81 e0       	ldi	r24, 0x01	; 1
     af0:	0e 94 5f 04 	call	0x8be	; 0x8be <writeInstruction>
     af4:	82 e0       	ldi	r24, 0x02	; 2
     af6:	0e 94 5f 04 	call	0x8be	; 0x8be <writeInstruction>
     afa:	85 e4       	ldi	r24, 0x45	; 69
     afc:	91 e0       	ldi	r25, 0x01	; 1
     afe:	0e 94 36 04 	call	0x86c	; 0x86c <writeString>
     b02:	0f ef       	ldi	r16, 0xFF	; 255
     b04:	10 e0       	ldi	r17, 0x00	; 0
     b06:	1e c0       	rjmp	.+60     	; 0xb44 <login+0x64>
     b08:	c7 01       	movw	r24, r14
     b0a:	0e 94 18 05 	call	0xa30	; 0xa30 <lerSenha>
     b0e:	c0 e0       	ldi	r28, 0x00	; 0
     b10:	d0 e0       	ldi	r29, 0x00	; 0
     b12:	15 c0       	rjmp	.+42     	; 0xb3e <login+0x5e>
     b14:	11 11       	cpse	r17, r1
     b16:	0e c0       	rjmp	.+28     	; 0xb34 <login+0x54>
     b18:	be 01       	movw	r22, r28
     b1a:	66 0f       	add	r22, r22
     b1c:	77 1f       	adc	r23, r23
     b1e:	6c 0f       	add	r22, r28
     b20:	7d 1f       	adc	r23, r29
     b22:	66 0f       	add	r22, r22
     b24:	77 1f       	adc	r23, r23
     b26:	68 5f       	subi	r22, 0xF8	; 248
     b28:	7e 4f       	sbci	r23, 0xFE	; 254
     b2a:	82 e0       	ldi	r24, 0x02	; 2
     b2c:	91 e0       	ldi	r25, 0x01	; 1
     b2e:	0e 94 f0 04 	call	0x9e0	; 0x9e0 <validarSenha>
     b32:	18 2f       	mov	r17, r24
     b34:	11 23       	and	r17, r17
     b36:	11 f0       	breq	.+4      	; 0xb3c <login+0x5c>
     b38:	0c 2f       	mov	r16, r28
     b3a:	04 c0       	rjmp	.+8      	; 0xb44 <login+0x64>
     b3c:	21 96       	adiw	r28, 0x01	; 1
     b3e:	c3 30       	cpi	r28, 0x03	; 3
     b40:	d1 05       	cpc	r29, r1
     b42:	44 f3       	brlt	.-48     	; 0xb14 <login+0x34>
     b44:	11 23       	and	r17, r17
     b46:	01 f3       	breq	.-64     	; 0xb08 <login+0x28>
     b48:	81 e0       	ldi	r24, 0x01	; 1
     b4a:	0e 94 5f 04 	call	0x8be	; 0x8be <writeInstruction>
     b4e:	80 e8       	ldi	r24, 0x80	; 128
     b50:	0e 94 5f 04 	call	0x8be	; 0x8be <writeInstruction>
     b54:	84 e5       	ldi	r24, 0x54	; 84
     b56:	91 e0       	ldi	r25, 0x01	; 1
     b58:	0e 94 36 04 	call	0x86c	; 0x86c <writeString>
     b5c:	80 ec       	ldi	r24, 0xC0	; 192
     b5e:	0e 94 5f 04 	call	0x8be	; 0x8be <writeInstruction>
     b62:	01 11       	cpse	r16, r1
     b64:	05 c0       	rjmp	.+10     	; 0xb70 <login+0x90>
     b66:	8e e5       	ldi	r24, 0x5E	; 94
     b68:	91 e0       	ldi	r25, 0x01	; 1
     b6a:	0e 94 36 04 	call	0x86c	; 0x86c <writeString>
     b6e:	0d c0       	rjmp	.+26     	; 0xb8a <login+0xaa>
     b70:	01 30       	cpi	r16, 0x01	; 1
     b72:	29 f4       	brne	.+10     	; 0xb7e <login+0x9e>
     b74:	8c e6       	ldi	r24, 0x6C	; 108
     b76:	91 e0       	ldi	r25, 0x01	; 1
     b78:	0e 94 36 04 	call	0x86c	; 0x86c <writeString>
     b7c:	06 c0       	rjmp	.+12     	; 0xb8a <login+0xaa>
     b7e:	02 30       	cpi	r16, 0x02	; 2
     b80:	21 f4       	brne	.+8      	; 0xb8a <login+0xaa>
     b82:	87 e7       	ldi	r24, 0x77	; 119
     b84:	91 e0       	ldi	r25, 0x01	; 1
     b86:	0e 94 36 04 	call	0x86c	; 0x86c <writeString>
     b8a:	80 2f       	mov	r24, r16
     b8c:	df 91       	pop	r29
     b8e:	cf 91       	pop	r28
     b90:	1f 91       	pop	r17
     b92:	0f 91       	pop	r16
     b94:	ff 90       	pop	r15
     b96:	ef 90       	pop	r14
     b98:	08 95       	ret

00000b9a <menu_vendas>:
     b9a:	81 e0       	ldi	r24, 0x01	; 1
     b9c:	0e 94 5f 04 	call	0x8be	; 0x8be <writeInstruction>
     ba0:	80 e8       	ldi	r24, 0x80	; 128
     ba2:	0e 94 5f 04 	call	0x8be	; 0x8be <writeInstruction>
     ba6:	82 e8       	ldi	r24, 0x82	; 130
     ba8:	91 e0       	ldi	r25, 0x01	; 1
     baa:	0e 94 36 04 	call	0x86c	; 0x86c <writeString>
     bae:	80 ec       	ldi	r24, 0xC0	; 192
     bb0:	0e 94 5f 04 	call	0x8be	; 0x8be <writeInstruction>
     bb4:	80 e9       	ldi	r24, 0x90	; 144
     bb6:	91 e0       	ldi	r25, 0x01	; 1
     bb8:	0e 94 36 04 	call	0x86c	; 0x86c <writeString>
     bbc:	08 95       	ret

00000bbe <tela_bloqueio_inicial>:
     bbe:	8c e9       	ldi	r24, 0x9C	; 156
     bc0:	91 e0       	ldi	r25, 0x01	; 1
     bc2:	0e 94 36 04 	call	0x86c	; 0x86c <writeString>
     bc6:	80 ec       	ldi	r24, 0xC0	; 192
     bc8:	0e 94 5f 04 	call	0x8be	; 0x8be <writeInstruction>
     bcc:	88 ea       	ldi	r24, 0xA8	; 168
     bce:	91 e0       	ldi	r25, 0x01	; 1
     bd0:	0e 94 36 04 	call	0x86c	; 0x86c <writeString>
     bd4:	2f ef       	ldi	r18, 0xFF	; 255
     bd6:	83 ed       	ldi	r24, 0xD3	; 211
     bd8:	90 e3       	ldi	r25, 0x30	; 48
     bda:	21 50       	subi	r18, 0x01	; 1
     bdc:	80 40       	sbci	r24, 0x00	; 0
     bde:	90 40       	sbci	r25, 0x00	; 0
     be0:	e1 f7       	brne	.-8      	; 0xbda <tela_bloqueio_inicial+0x1c>
     be2:	00 c0       	rjmp	.+0      	; 0xbe4 <tela_bloqueio_inicial+0x26>
     be4:	00 00       	nop
     be6:	83 e0       	ldi	r24, 0x03	; 3
     be8:	0e 94 5f 04 	call	0x8be	; 0x8be <writeInstruction>
     bec:	08 95       	ret

00000bee <menu_pagamento>:
     bee:	81 e0       	ldi	r24, 0x01	; 1
     bf0:	0e 94 5f 04 	call	0x8be	; 0x8be <writeInstruction>
     bf4:	80 e8       	ldi	r24, 0x80	; 128
     bf6:	0e 94 5f 04 	call	0x8be	; 0x8be <writeInstruction>
     bfa:	82 eb       	ldi	r24, 0xB2	; 178
     bfc:	91 e0       	ldi	r25, 0x01	; 1
     bfe:	0e 94 36 04 	call	0x86c	; 0x86c <writeString>
     c02:	80 ec       	ldi	r24, 0xC0	; 192
     c04:	0e 94 5f 04 	call	0x8be	; 0x8be <writeInstruction>
     c08:	82 ec       	ldi	r24, 0xC2	; 194
     c0a:	91 e0       	ldi	r25, 0x01	; 1
     c0c:	0e 94 36 04 	call	0x86c	; 0x86c <writeString>
     c10:	08 95       	ret

00000c12 <metodo_pagamento>:
     c12:	0e 94 f7 05 	call	0xbee	; 0xbee <menu_pagamento>
     c16:	0e 94 6c 03 	call	0x6d8	; 0x6d8 <teclaDebouce>
     c1a:	89 31       	cpi	r24, 0x19	; 25
     c1c:	e1 f3       	breq	.-8      	; 0xc16 <metodo_pagamento+0x4>
     c1e:	8f 5f       	subi	r24, 0xFF	; 255
     c20:	08 95       	ret

00000c22 <menu_cartao>:
     c22:	81 e0       	ldi	r24, 0x01	; 1
     c24:	0e 94 5f 04 	call	0x8be	; 0x8be <writeInstruction>
     c28:	80 e8       	ldi	r24, 0x80	; 128
     c2a:	0e 94 5f 04 	call	0x8be	; 0x8be <writeInstruction>
     c2e:	83 ed       	ldi	r24, 0xD3	; 211
     c30:	91 e0       	ldi	r25, 0x01	; 1
     c32:	0e 94 36 04 	call	0x86c	; 0x86c <writeString>
     c36:	80 ec       	ldi	r24, 0xC0	; 192
     c38:	0e 94 5f 04 	call	0x8be	; 0x8be <writeInstruction>
     c3c:	81 ee       	ldi	r24, 0xE1	; 225
     c3e:	91 e0       	ldi	r25, 0x01	; 1
     c40:	0e 94 36 04 	call	0x86c	; 0x86c <writeString>
     c44:	08 95       	ret

00000c46 <aguarda_cartao>:
     c46:	cf 93       	push	r28
     c48:	0e 94 11 06 	call	0xc22	; 0xc22 <menu_cartao>
     c4c:	c9 e1       	ldi	r28, 0x19	; 25
     c4e:	15 c0       	rjmp	.+42     	; 0xc7a <aguarda_cartao+0x34>
     c50:	0e 94 6c 03 	call	0x6d8	; 0x6d8 <teclaDebouce>
     c54:	c8 2f       	mov	r28, r24
     c56:	80 91 c0 00 	lds	r24, 0x00C0	; 0x8000c0 <__TEXT_REGION_LENGTH__+0x7f80c0>
     c5a:	88 23       	and	r24, r24
     c5c:	74 f4       	brge	.+28     	; 0xc7a <aguarda_cartao+0x34>
     c5e:	0e 94 ee 03 	call	0x7dc	; 0x7dc <USART_recebe>
     c62:	83 34       	cpi	r24, 0x43	; 67
     c64:	51 f4       	brne	.+20     	; 0xc7a <aguarda_cartao+0x34>
     c66:	0e 94 ee 03 	call	0x7dc	; 0x7dc <USART_recebe>
     c6a:	8d 34       	cpi	r24, 0x4D	; 77
     c6c:	19 f0       	breq	.+6      	; 0xc74 <aguarda_cartao+0x2e>
     c6e:	87 35       	cpi	r24, 0x57	; 87
     c70:	49 f0       	breq	.+18     	; 0xc84 <aguarda_cartao+0x3e>
     c72:	03 c0       	rjmp	.+6      	; 0xc7a <aguarda_cartao+0x34>
     c74:	81 e0       	ldi	r24, 0x01	; 1
     c76:	90 e0       	ldi	r25, 0x00	; 0
     c78:	07 c0       	rjmp	.+14     	; 0xc88 <aguarda_cartao+0x42>
     c7a:	c9 31       	cpi	r28, 0x19	; 25
     c7c:	49 f3       	breq	.-46     	; 0xc50 <aguarda_cartao+0xa>
     c7e:	83 e0       	ldi	r24, 0x03	; 3
     c80:	90 e0       	ldi	r25, 0x00	; 0
     c82:	02 c0       	rjmp	.+4      	; 0xc88 <aguarda_cartao+0x42>
     c84:	82 e0       	ldi	r24, 0x02	; 2
     c86:	90 e0       	ldi	r25, 0x00	; 0
     c88:	cf 91       	pop	r28
     c8a:	08 95       	ret

00000c8c <tela_OK>:
     c8c:	81 e0       	ldi	r24, 0x01	; 1
     c8e:	0e 94 5f 04 	call	0x8be	; 0x8be <writeInstruction>
     c92:	80 e8       	ldi	r24, 0x80	; 128
     c94:	0e 94 5f 04 	call	0x8be	; 0x8be <writeInstruction>
     c98:	8f ee       	ldi	r24, 0xEF	; 239
     c9a:	91 e0       	ldi	r25, 0x01	; 1
     c9c:	0e 94 36 04 	call	0x86c	; 0x86c <writeString>
     ca0:	80 ec       	ldi	r24, 0xC0	; 192
     ca2:	0e 94 5f 04 	call	0x8be	; 0x8be <writeInstruction>
     ca6:	8d ef       	ldi	r24, 0xFD	; 253
     ca8:	91 e0       	ldi	r25, 0x01	; 1
     caa:	0e 94 36 04 	call	0x86c	; 0x86c <writeString>
     cae:	2f ef       	ldi	r18, 0xFF	; 255
     cb0:	8f e4       	ldi	r24, 0x4F	; 79
     cb2:	93 ec       	ldi	r25, 0xC3	; 195
     cb4:	21 50       	subi	r18, 0x01	; 1
     cb6:	80 40       	sbci	r24, 0x00	; 0
     cb8:	90 40       	sbci	r25, 0x00	; 0
     cba:	e1 f7       	brne	.-8      	; 0xcb4 <tela_OK+0x28>
     cbc:	00 c0       	rjmp	.+0      	; 0xcbe <tela_OK+0x32>
     cbe:	00 00       	nop
     cc0:	08 95       	ret

00000cc2 <tela_CF>:
     cc2:	81 e0       	ldi	r24, 0x01	; 1
     cc4:	0e 94 5f 04 	call	0x8be	; 0x8be <writeInstruction>
     cc8:	80 e8       	ldi	r24, 0x80	; 128
     cca:	0e 94 5f 04 	call	0x8be	; 0x8be <writeInstruction>
     cce:	89 e0       	ldi	r24, 0x09	; 9
     cd0:	92 e0       	ldi	r25, 0x02	; 2
     cd2:	0e 94 36 04 	call	0x86c	; 0x86c <writeString>
     cd6:	80 ec       	ldi	r24, 0xC0	; 192
     cd8:	0e 94 5f 04 	call	0x8be	; 0x8be <writeInstruction>
     cdc:	84 e1       	ldi	r24, 0x14	; 20
     cde:	92 e0       	ldi	r25, 0x02	; 2
     ce0:	0e 94 36 04 	call	0x86c	; 0x86c <writeString>
     ce4:	2f ef       	ldi	r18, 0xFF	; 255
     ce6:	8b e7       	ldi	r24, 0x7B	; 123
     ce8:	92 e9       	ldi	r25, 0x92	; 146
     cea:	21 50       	subi	r18, 0x01	; 1
     cec:	80 40       	sbci	r24, 0x00	; 0
     cee:	90 40       	sbci	r25, 0x00	; 0
     cf0:	e1 f7       	brne	.-8      	; 0xcea <tela_CF+0x28>
     cf2:	00 c0       	rjmp	.+0      	; 0xcf4 <tela_CF+0x32>
     cf4:	00 00       	nop
     cf6:	08 95       	ret

00000cf8 <tela_SI>:
     cf8:	81 e0       	ldi	r24, 0x01	; 1
     cfa:	0e 94 5f 04 	call	0x8be	; 0x8be <writeInstruction>
     cfe:	80 e8       	ldi	r24, 0x80	; 128
     d00:	0e 94 5f 04 	call	0x8be	; 0x8be <writeInstruction>
     d04:	89 e0       	ldi	r24, 0x09	; 9
     d06:	92 e0       	ldi	r25, 0x02	; 2
     d08:	0e 94 36 04 	call	0x86c	; 0x86c <writeString>
     d0c:	80 ec       	ldi	r24, 0xC0	; 192
     d0e:	0e 94 5f 04 	call	0x8be	; 0x8be <writeInstruction>
     d12:	84 e2       	ldi	r24, 0x24	; 36
     d14:	92 e0       	ldi	r25, 0x02	; 2
     d16:	0e 94 36 04 	call	0x86c	; 0x86c <writeString>
     d1a:	2f ef       	ldi	r18, 0xFF	; 255
     d1c:	8b e7       	ldi	r24, 0x7B	; 123
     d1e:	92 e9       	ldi	r25, 0x92	; 146
     d20:	21 50       	subi	r18, 0x01	; 1
     d22:	80 40       	sbci	r24, 0x00	; 0
     d24:	90 40       	sbci	r25, 0x00	; 0
     d26:	e1 f7       	brne	.-8      	; 0xd20 <tela_SI+0x28>
     d28:	00 c0       	rjmp	.+0      	; 0xd2a <tela_SI+0x32>
     d2a:	00 00       	nop
     d2c:	08 95       	ret

00000d2e <tela_SF>:
     d2e:	81 e0       	ldi	r24, 0x01	; 1
     d30:	0e 94 5f 04 	call	0x8be	; 0x8be <writeInstruction>
     d34:	80 e8       	ldi	r24, 0x80	; 128
     d36:	0e 94 5f 04 	call	0x8be	; 0x8be <writeInstruction>
     d3a:	89 e0       	ldi	r24, 0x09	; 9
     d3c:	92 e0       	ldi	r25, 0x02	; 2
     d3e:	0e 94 36 04 	call	0x86c	; 0x86c <writeString>
     d42:	80 ec       	ldi	r24, 0xC0	; 192
     d44:	0e 94 5f 04 	call	0x8be	; 0x8be <writeInstruction>
     d48:	81 e3       	ldi	r24, 0x31	; 49
     d4a:	92 e0       	ldi	r25, 0x02	; 2
     d4c:	0e 94 36 04 	call	0x86c	; 0x86c <writeString>
     d50:	2f ef       	ldi	r18, 0xFF	; 255
     d52:	8b e7       	ldi	r24, 0x7B	; 123
     d54:	92 e9       	ldi	r25, 0x92	; 146
     d56:	21 50       	subi	r18, 0x01	; 1
     d58:	80 40       	sbci	r24, 0x00	; 0
     d5a:	90 40       	sbci	r25, 0x00	; 0
     d5c:	e1 f7       	brne	.-8      	; 0xd56 <tela_SF+0x28>
     d5e:	00 c0       	rjmp	.+0      	; 0xd60 <tela_SF+0x32>
     d60:	00 00       	nop
     d62:	08 95       	ret

00000d64 <tela_cartaoEstorno>:
     d64:	81 e0       	ldi	r24, 0x01	; 1
     d66:	0e 94 5f 04 	call	0x8be	; 0x8be <writeInstruction>
     d6a:	80 e8       	ldi	r24, 0x80	; 128
     d6c:	0e 94 5f 04 	call	0x8be	; 0x8be <writeInstruction>
     d70:	81 e4       	ldi	r24, 0x41	; 65
     d72:	92 e0       	ldi	r25, 0x02	; 2
     d74:	0e 94 36 04 	call	0x86c	; 0x86c <writeString>
     d78:	80 ec       	ldi	r24, 0xC0	; 192
     d7a:	0e 94 5f 04 	call	0x8be	; 0x8be <writeInstruction>
     d7e:	08 95       	ret

00000d80 <tela_valorEstorno>:
     d80:	81 e0       	ldi	r24, 0x01	; 1
     d82:	0e 94 5f 04 	call	0x8be	; 0x8be <writeInstruction>
     d86:	80 e8       	ldi	r24, 0x80	; 128
     d88:	0e 94 5f 04 	call	0x8be	; 0x8be <writeInstruction>
     d8c:	81 e5       	ldi	r24, 0x51	; 81
     d8e:	92 e0       	ldi	r25, 0x02	; 2
     d90:	0e 94 36 04 	call	0x86c	; 0x86c <writeString>
     d94:	80 ec       	ldi	r24, 0xC0	; 192
     d96:	0e 94 5f 04 	call	0x8be	; 0x8be <writeInstruction>
     d9a:	80 e6       	ldi	r24, 0x60	; 96
     d9c:	92 e0       	ldi	r25, 0x02	; 2
     d9e:	0e 94 36 04 	call	0x86c	; 0x86c <writeString>
     da2:	08 95       	ret

00000da4 <tela_estorno>:
     da4:	81 e0       	ldi	r24, 0x01	; 1
     da6:	0e 94 5f 04 	call	0x8be	; 0x8be <writeInstruction>
     daa:	80 e8       	ldi	r24, 0x80	; 128
     dac:	0e 94 5f 04 	call	0x8be	; 0x8be <writeInstruction>
     db0:	84 e6       	ldi	r24, 0x64	; 100
     db2:	92 e0       	ldi	r25, 0x02	; 2
     db4:	0e 94 36 04 	call	0x86c	; 0x86c <writeString>
     db8:	80 ec       	ldi	r24, 0xC0	; 192
     dba:	0e 94 5f 04 	call	0x8be	; 0x8be <writeInstruction>
     dbe:	08 95       	ret

00000dc0 <tela_vendaAvista>:
     dc0:	81 e0       	ldi	r24, 0x01	; 1
     dc2:	0e 94 5f 04 	call	0x8be	; 0x8be <writeInstruction>
     dc6:	80 e8       	ldi	r24, 0x80	; 128
     dc8:	0e 94 5f 04 	call	0x8be	; 0x8be <writeInstruction>
     dcc:	80 e7       	ldi	r24, 0x70	; 112
     dce:	92 e0       	ldi	r25, 0x02	; 2
     dd0:	0e 94 36 04 	call	0x86c	; 0x86c <writeString>
     dd4:	80 ec       	ldi	r24, 0xC0	; 192
     dd6:	0e 94 5f 04 	call	0x8be	; 0x8be <writeInstruction>
     dda:	80 e6       	ldi	r24, 0x60	; 96
     ddc:	92 e0       	ldi	r25, 0x02	; 2
     dde:	0e 94 36 04 	call	0x86c	; 0x86c <writeString>
     de2:	08 95       	ret

00000de4 <tela_vendaParcelada>:
     de4:	81 e0       	ldi	r24, 0x01	; 1
     de6:	0e 94 5f 04 	call	0x8be	; 0x8be <writeInstruction>
     dea:	80 e8       	ldi	r24, 0x80	; 128
     dec:	0e 94 5f 04 	call	0x8be	; 0x8be <writeInstruction>
     df0:	81 e8       	ldi	r24, 0x81	; 129
     df2:	92 e0       	ldi	r25, 0x02	; 2
     df4:	0e 94 36 04 	call	0x86c	; 0x86c <writeString>
     df8:	80 ec       	ldi	r24, 0xC0	; 192
     dfa:	0e 94 5f 04 	call	0x8be	; 0x8be <writeInstruction>
     dfe:	80 e6       	ldi	r24, 0x60	; 96
     e00:	92 e0       	ldi	r25, 0x02	; 2
     e02:	0e 94 36 04 	call	0x86c	; 0x86c <writeString>
     e06:	08 95       	ret

00000e08 <tela_vendaInterna>:
     e08:	cf 93       	push	r28
     e0a:	df 93       	push	r29
     e0c:	ec 01       	movw	r28, r24
     e0e:	81 e0       	ldi	r24, 0x01	; 1
     e10:	0e 94 5f 04 	call	0x8be	; 0x8be <writeInstruction>
     e14:	80 e8       	ldi	r24, 0x80	; 128
     e16:	0e 94 5f 04 	call	0x8be	; 0x8be <writeInstruction>
     e1a:	c1 30       	cpi	r28, 0x01	; 1
     e1c:	d1 05       	cpc	r29, r1
     e1e:	a9 f4       	brne	.+42     	; 0xe4a <tela_vendaInterna+0x42>
     e20:	80 e9       	ldi	r24, 0x90	; 144
     e22:	92 e0       	ldi	r25, 0x02	; 2
     e24:	0e 94 36 04 	call	0x86c	; 0x86c <writeString>
     e28:	80 ec       	ldi	r24, 0xC0	; 192
     e2a:	0e 94 5f 04 	call	0x8be	; 0x8be <writeInstruction>
     e2e:	8e e9       	ldi	r24, 0x9E	; 158
     e30:	92 e0       	ldi	r25, 0x02	; 2
     e32:	0e 94 36 04 	call	0x86c	; 0x86c <writeString>
     e36:	2f ef       	ldi	r18, 0xFF	; 255
     e38:	87 ea       	ldi	r24, 0xA7	; 167
     e3a:	91 e6       	ldi	r25, 0x61	; 97
     e3c:	21 50       	subi	r18, 0x01	; 1
     e3e:	80 40       	sbci	r24, 0x00	; 0
     e40:	90 40       	sbci	r25, 0x00	; 0
     e42:	e1 f7       	brne	.-8      	; 0xe3c <tela_vendaInterna+0x34>
     e44:	00 c0       	rjmp	.+0      	; 0xe46 <tela_vendaInterna+0x3e>
     e46:	00 00       	nop
     e48:	19 c0       	rjmp	.+50     	; 0xe7c <tela_vendaInterna+0x74>
     e4a:	cd 2b       	or	r28, r29
     e4c:	a9 f4       	brne	.+42     	; 0xe78 <tela_vendaInterna+0x70>
     e4e:	89 ea       	ldi	r24, 0xA9	; 169
     e50:	92 e0       	ldi	r25, 0x02	; 2
     e52:	0e 94 36 04 	call	0x86c	; 0x86c <writeString>
     e56:	80 ec       	ldi	r24, 0xC0	; 192
     e58:	0e 94 5f 04 	call	0x8be	; 0x8be <writeInstruction>
     e5c:	89 eb       	ldi	r24, 0xB9	; 185
     e5e:	92 e0       	ldi	r25, 0x02	; 2
     e60:	0e 94 36 04 	call	0x86c	; 0x86c <writeString>
     e64:	2f ef       	ldi	r18, 0xFF	; 255
     e66:	87 ea       	ldi	r24, 0xA7	; 167
     e68:	91 e6       	ldi	r25, 0x61	; 97
     e6a:	21 50       	subi	r18, 0x01	; 1
     e6c:	80 40       	sbci	r24, 0x00	; 0
     e6e:	90 40       	sbci	r25, 0x00	; 0
     e70:	e1 f7       	brne	.-8      	; 0xe6a <tela_vendaInterna+0x62>
     e72:	00 c0       	rjmp	.+0      	; 0xe74 <tela_vendaInterna+0x6c>
     e74:	00 00       	nop
     e76:	02 c0       	rjmp	.+4      	; 0xe7c <tela_vendaInterna+0x74>
     e78:	0e 94 97 06 	call	0xd2e	; 0xd2e <tela_SF>
     e7c:	df 91       	pop	r29
     e7e:	cf 91       	pop	r28
     e80:	08 95       	ret

00000e82 <tela_nParcelas>:
     e82:	81 e0       	ldi	r24, 0x01	; 1
     e84:	0e 94 5f 04 	call	0x8be	; 0x8be <writeInstruction>
     e88:	80 e8       	ldi	r24, 0x80	; 128
     e8a:	0e 94 5f 04 	call	0x8be	; 0x8be <writeInstruction>
     e8e:	8a ec       	ldi	r24, 0xCA	; 202
     e90:	92 e0       	ldi	r25, 0x02	; 2
     e92:	0e 94 36 04 	call	0x86c	; 0x86c <writeString>
     e96:	80 ec       	ldi	r24, 0xC0	; 192
     e98:	0e 94 5f 04 	call	0x8be	; 0x8be <writeInstruction>
     e9c:	08 95       	ret

00000e9e <n_parcelas>:
     e9e:	0f 93       	push	r16
     ea0:	1f 93       	push	r17
     ea2:	cf 93       	push	r28
     ea4:	df 93       	push	r29
     ea6:	0e 94 41 07 	call	0xe82	; 0xe82 <tela_nParcelas>
     eaa:	c0 e0       	ldi	r28, 0x00	; 0
     eac:	d0 e0       	ldi	r29, 0x00	; 0
     eae:	11 e3       	ldi	r17, 0x31	; 49
     eb0:	0e 94 6c 03 	call	0x6d8	; 0x6d8 <teclaDebouce>
     eb4:	89 31       	cpi	r24, 0x19	; 25
     eb6:	e1 f3       	breq	.-8      	; 0xeb0 <n_parcelas+0x12>
     eb8:	8f 5c       	subi	r24, 0xCF	; 207
     eba:	8a 33       	cpi	r24, 0x3A	; 58
     ebc:	99 f4       	brne	.+38     	; 0xee4 <n_parcelas+0x46>
     ebe:	1c 16       	cp	r1, r28
     ec0:	1d 06       	cpc	r1, r29
     ec2:	b4 f7       	brge	.-20     	; 0xeb0 <n_parcelas+0x12>
     ec4:	1c 2f       	mov	r17, r28
     ec6:	11 50       	subi	r17, 0x01	; 1
     ec8:	10 6c       	ori	r17, 0xC0	; 192
     eca:	81 2f       	mov	r24, r17
     ecc:	0e 94 5f 04 	call	0x8be	; 0x8be <writeInstruction>
     ed0:	82 e6       	ldi	r24, 0x62	; 98
     ed2:	92 e0       	ldi	r25, 0x02	; 2
     ed4:	0e 94 36 04 	call	0x86c	; 0x86c <writeString>
     ed8:	81 2f       	mov	r24, r17
     eda:	0e 94 5f 04 	call	0x8be	; 0x8be <writeInstruction>
     ede:	21 97       	sbiw	r28, 0x01	; 1
     ee0:	11 e3       	ldi	r17, 0x31	; 49
     ee2:	e6 cf       	rjmp	.-52     	; 0xeb0 <n_parcelas+0x12>
     ee4:	8c 33       	cpi	r24, 0x3C	; 60
     ee6:	11 f4       	brne	.+4      	; 0xeec <n_parcelas+0x4e>
     ee8:	11 33       	cpi	r17, 0x31	; 49
     eea:	c9 f4       	brne	.+50     	; 0xf1e <n_parcelas+0x80>
     eec:	1c 16       	cp	r1, r28
     eee:	1d 06       	cpc	r1, r29
     ef0:	fc f2       	brlt	.-66     	; 0xeb0 <n_parcelas+0x12>
     ef2:	84 33       	cpi	r24, 0x34	; 52
     ef4:	e8 f6       	brcc	.-70     	; 0xeb0 <n_parcelas+0x12>
     ef6:	82 33       	cpi	r24, 0x32	; 50
     ef8:	d8 f2       	brcs	.-74     	; 0xeb0 <n_parcelas+0x12>
     efa:	8b 33       	cpi	r24, 0x3B	; 59
     efc:	11 f0       	breq	.+4      	; 0xf02 <n_parcelas+0x64>
     efe:	18 2f       	mov	r17, r24
     f00:	01 c0       	rjmp	.+2      	; 0xf04 <n_parcelas+0x66>
     f02:	10 e3       	ldi	r17, 0x30	; 48
     f04:	0c 2f       	mov	r16, r28
     f06:	00 6c       	ori	r16, 0xC0	; 192
     f08:	80 2f       	mov	r24, r16
     f0a:	0e 94 5f 04 	call	0x8be	; 0x8be <writeInstruction>
     f0e:	81 2f       	mov	r24, r17
     f10:	0e 94 24 04 	call	0x848	; 0x848 <writeCharacter>
     f14:	80 2f       	mov	r24, r16
     f16:	0e 94 5f 04 	call	0x8be	; 0x8be <writeInstruction>
     f1a:	21 96       	adiw	r28, 0x01	; 1
     f1c:	c9 cf       	rjmp	.-110    	; 0xeb0 <n_parcelas+0x12>
     f1e:	81 2f       	mov	r24, r17
     f20:	df 91       	pop	r29
     f22:	cf 91       	pop	r28
     f24:	1f 91       	pop	r17
     f26:	0f 91       	pop	r16
     f28:	08 95       	ret

00000f2a <tela_senhaCartao>:
     f2a:	81 e0       	ldi	r24, 0x01	; 1
     f2c:	0e 94 5f 04 	call	0x8be	; 0x8be <writeInstruction>
     f30:	80 e8       	ldi	r24, 0x80	; 128
     f32:	0e 94 5f 04 	call	0x8be	; 0x8be <writeInstruction>
     f36:	8b ed       	ldi	r24, 0xDB	; 219
     f38:	92 e0       	ldi	r25, 0x02	; 2
     f3a:	0e 94 36 04 	call	0x86c	; 0x86c <writeString>
     f3e:	80 ec       	ldi	r24, 0xC0	; 192
     f40:	0e 94 5f 04 	call	0x8be	; 0x8be <writeInstruction>
     f44:	08 95       	ret

00000f46 <recebe_senha>:
     f46:	ef 92       	push	r14
     f48:	ff 92       	push	r15
     f4a:	1f 93       	push	r17
     f4c:	cf 93       	push	r28
     f4e:	df 93       	push	r29
     f50:	7c 01       	movw	r14, r24
     f52:	0e 94 95 07 	call	0xf2a	; 0xf2a <tela_senhaCartao>
     f56:	c0 e0       	ldi	r28, 0x00	; 0
     f58:	d0 e0       	ldi	r29, 0x00	; 0
     f5a:	0e 94 6c 03 	call	0x6d8	; 0x6d8 <teclaDebouce>
     f5e:	89 31       	cpi	r24, 0x19	; 25
     f60:	e1 f3       	breq	.-8      	; 0xf5a <recebe_senha+0x14>
     f62:	8f 5c       	subi	r24, 0xCF	; 207
     f64:	8a 33       	cpi	r24, 0x3A	; 58
     f66:	b9 f4       	brne	.+46     	; 0xf96 <recebe_senha+0x50>
     f68:	1c 16       	cp	r1, r28
     f6a:	1d 06       	cpc	r1, r29
     f6c:	b4 f7       	brge	.-20     	; 0xf5a <recebe_senha+0x14>
     f6e:	1c 2f       	mov	r17, r28
     f70:	11 50       	subi	r17, 0x01	; 1
     f72:	10 6c       	ori	r17, 0xC0	; 192
     f74:	81 2f       	mov	r24, r17
     f76:	0e 94 5f 04 	call	0x8be	; 0x8be <writeInstruction>
     f7a:	82 e6       	ldi	r24, 0x62	; 98
     f7c:	92 e0       	ldi	r25, 0x02	; 2
     f7e:	0e 94 36 04 	call	0x86c	; 0x86c <writeString>
     f82:	81 2f       	mov	r24, r17
     f84:	0e 94 5f 04 	call	0x8be	; 0x8be <writeInstruction>
     f88:	21 97       	sbiw	r28, 0x01	; 1
     f8a:	f7 01       	movw	r30, r14
     f8c:	ec 0f       	add	r30, r28
     f8e:	fd 1f       	adc	r31, r29
     f90:	80 e3       	ldi	r24, 0x30	; 48
     f92:	80 83       	st	Z, r24
     f94:	e2 cf       	rjmp	.-60     	; 0xf5a <recebe_senha+0x14>
     f96:	8c 33       	cpi	r24, 0x3C	; 60
     f98:	c1 f0       	breq	.+48     	; 0xfca <recebe_senha+0x84>
     f9a:	c6 30       	cpi	r28, 0x06	; 6
     f9c:	d1 05       	cpc	r29, r1
     f9e:	ec f6       	brge	.-70     	; 0xf5a <recebe_senha+0x14>
     fa0:	8b 33       	cpi	r24, 0x3B	; 59
     fa2:	09 f4       	brne	.+2      	; 0xfa6 <recebe_senha+0x60>
     fa4:	80 e3       	ldi	r24, 0x30	; 48
     fa6:	f7 01       	movw	r30, r14
     fa8:	ec 0f       	add	r30, r28
     faa:	fd 1f       	adc	r31, r29
     fac:	80 83       	st	Z, r24
     fae:	1c 2f       	mov	r17, r28
     fb0:	10 6c       	ori	r17, 0xC0	; 192
     fb2:	81 2f       	mov	r24, r17
     fb4:	0e 94 5f 04 	call	0x8be	; 0x8be <writeInstruction>
     fb8:	8c ee       	ldi	r24, 0xEC	; 236
     fba:	92 e0       	ldi	r25, 0x02	; 2
     fbc:	0e 94 36 04 	call	0x86c	; 0x86c <writeString>
     fc0:	81 2f       	mov	r24, r17
     fc2:	0e 94 5f 04 	call	0x8be	; 0x8be <writeInstruction>
     fc6:	21 96       	adiw	r28, 0x01	; 1
     fc8:	c8 cf       	rjmp	.-112    	; 0xf5a <recebe_senha+0x14>
     fca:	df 91       	pop	r29
     fcc:	cf 91       	pop	r28
     fce:	1f 91       	pop	r17
     fd0:	ff 90       	pop	r15
     fd2:	ef 90       	pop	r14
     fd4:	08 95       	ret

00000fd6 <tela_numCartao>:
     fd6:	81 e0       	ldi	r24, 0x01	; 1
     fd8:	0e 94 5f 04 	call	0x8be	; 0x8be <writeInstruction>
     fdc:	80 e8       	ldi	r24, 0x80	; 128
     fde:	0e 94 5f 04 	call	0x8be	; 0x8be <writeInstruction>
     fe2:	8e ee       	ldi	r24, 0xEE	; 238
     fe4:	92 e0       	ldi	r25, 0x02	; 2
     fe6:	0e 94 36 04 	call	0x86c	; 0x86c <writeString>
     fea:	80 ec       	ldi	r24, 0xC0	; 192
     fec:	0e 94 5f 04 	call	0x8be	; 0x8be <writeInstruction>
     ff0:	08 95       	ret

00000ff2 <recebe_cartao>:
     ff2:	ef 92       	push	r14
     ff4:	ff 92       	push	r15
     ff6:	0f 93       	push	r16
     ff8:	1f 93       	push	r17
     ffa:	cf 93       	push	r28
     ffc:	df 93       	push	r29
     ffe:	7c 01       	movw	r14, r24
    1000:	0e 94 eb 07 	call	0xfd6	; 0xfd6 <tela_numCartao>
    1004:	00 e0       	ldi	r16, 0x00	; 0
    1006:	10 e0       	ldi	r17, 0x00	; 0
    1008:	0e 94 6c 03 	call	0x6d8	; 0x6d8 <teclaDebouce>
    100c:	89 31       	cpi	r24, 0x19	; 25
    100e:	e1 f3       	breq	.-8      	; 0x1008 <recebe_cartao+0x16>
    1010:	c1 e3       	ldi	r28, 0x31	; 49
    1012:	c8 0f       	add	r28, r24
    1014:	ca 33       	cpi	r28, 0x3A	; 58
    1016:	c1 f4       	brne	.+48     	; 0x1048 <recebe_cartao+0x56>
    1018:	10 16       	cp	r1, r16
    101a:	11 06       	cpc	r1, r17
    101c:	ac f7       	brge	.-22     	; 0x1008 <recebe_cartao+0x16>
    101e:	cf ef       	ldi	r28, 0xFF	; 255
    1020:	c0 0f       	add	r28, r16
    1022:	c0 6c       	ori	r28, 0xC0	; 192
    1024:	8c 2f       	mov	r24, r28
    1026:	0e 94 5f 04 	call	0x8be	; 0x8be <writeInstruction>
    102a:	82 e6       	ldi	r24, 0x62	; 98
    102c:	92 e0       	ldi	r25, 0x02	; 2
    102e:	0e 94 36 04 	call	0x86c	; 0x86c <writeString>
    1032:	8c 2f       	mov	r24, r28
    1034:	0e 94 5f 04 	call	0x8be	; 0x8be <writeInstruction>
    1038:	01 50       	subi	r16, 0x01	; 1
    103a:	11 09       	sbc	r17, r1
    103c:	f7 01       	movw	r30, r14
    103e:	e0 0f       	add	r30, r16
    1040:	f1 1f       	adc	r31, r17
    1042:	80 e3       	ldi	r24, 0x30	; 48
    1044:	80 83       	st	Z, r24
    1046:	e0 cf       	rjmp	.-64     	; 0x1008 <recebe_cartao+0x16>
    1048:	cc 33       	cpi	r28, 0x3C	; 60
    104a:	c1 f0       	breq	.+48     	; 0x107c <recebe_cartao+0x8a>
    104c:	06 30       	cpi	r16, 0x06	; 6
    104e:	11 05       	cpc	r17, r1
    1050:	dc f6       	brge	.-74     	; 0x1008 <recebe_cartao+0x16>
    1052:	cb 33       	cpi	r28, 0x3B	; 59
    1054:	09 f4       	brne	.+2      	; 0x1058 <recebe_cartao+0x66>
    1056:	c0 e3       	ldi	r28, 0x30	; 48
    1058:	f7 01       	movw	r30, r14
    105a:	e0 0f       	add	r30, r16
    105c:	f1 1f       	adc	r31, r17
    105e:	c0 83       	st	Z, r28
    1060:	d0 2f       	mov	r29, r16
    1062:	d0 6c       	ori	r29, 0xC0	; 192
    1064:	8d 2f       	mov	r24, r29
    1066:	0e 94 5f 04 	call	0x8be	; 0x8be <writeInstruction>
    106a:	8c 2f       	mov	r24, r28
    106c:	0e 94 24 04 	call	0x848	; 0x848 <writeCharacter>
    1070:	8d 2f       	mov	r24, r29
    1072:	0e 94 5f 04 	call	0x8be	; 0x8be <writeInstruction>
    1076:	0f 5f       	subi	r16, 0xFF	; 255
    1078:	1f 4f       	sbci	r17, 0xFF	; 255
    107a:	c6 cf       	rjmp	.-116    	; 0x1008 <recebe_cartao+0x16>
    107c:	df 91       	pop	r29
    107e:	cf 91       	pop	r28
    1080:	1f 91       	pop	r17
    1082:	0f 91       	pop	r16
    1084:	ff 90       	pop	r15
    1086:	ef 90       	pop	r14
    1088:	08 95       	ret

0000108a <tela_processandoVenda>:
    108a:	81 e0       	ldi	r24, 0x01	; 1
    108c:	0e 94 5f 04 	call	0x8be	; 0x8be <writeInstruction>
    1090:	80 e8       	ldi	r24, 0x80	; 128
    1092:	0e 94 5f 04 	call	0x8be	; 0x8be <writeInstruction>
    1096:	80 e0       	ldi	r24, 0x00	; 0
    1098:	93 e0       	ldi	r25, 0x03	; 3
    109a:	0e 94 36 04 	call	0x86c	; 0x86c <writeString>
    109e:	80 ec       	ldi	r24, 0xC0	; 192
    10a0:	0e 94 5f 04 	call	0x8be	; 0x8be <writeInstruction>
    10a4:	8c e0       	ldi	r24, 0x0C	; 12
    10a6:	93 e0       	ldi	r25, 0x03	; 3
    10a8:	0e 94 36 04 	call	0x86c	; 0x86c <writeString>
    10ac:	08 95       	ret

000010ae <requisicao_externa>:
    10ae:	ef 92       	push	r14
    10b0:	ff 92       	push	r15
    10b2:	0f 93       	push	r16
    10b4:	1f 93       	push	r17
    10b6:	cf 93       	push	r28
    10b8:	df 93       	push	r29
    10ba:	cd b7       	in	r28, 0x3d	; 61
    10bc:	de b7       	in	r29, 0x3e	; 62
    10be:	65 97       	sbiw	r28, 0x15	; 21
    10c0:	0f b6       	in	r0, 0x3f	; 63
    10c2:	f8 94       	cli
    10c4:	de bf       	out	0x3e, r29	; 62
    10c6:	0f be       	out	0x3f, r0	; 63
    10c8:	cd bf       	out	0x3d, r28	; 61
    10ca:	21 30       	cpi	r18, 0x01	; 1
    10cc:	31 05       	cpc	r19, r1
    10ce:	09 f0       	breq	.+2      	; 0x10d2 <requisicao_externa+0x24>
    10d0:	43 c0       	rjmp	.+134    	; 0x1158 <requisicao_externa+0xaa>
    10d2:	26 e5       	ldi	r18, 0x56	; 86
    10d4:	29 83       	std	Y+1, r18	; 0x01
    10d6:	2a 83       	std	Y+2, r18	; 0x02
    10d8:	22 e0       	ldi	r18, 0x02	; 2
    10da:	30 e0       	ldi	r19, 0x00	; 0
    10dc:	34 c0       	rjmp	.+104    	; 0x1146 <requisicao_externa+0x98>
    10de:	28 30       	cpi	r18, 0x08	; 8
    10e0:	31 05       	cpc	r19, r1
    10e2:	64 f4       	brge	.+24     	; 0x10fc <requisicao_externa+0x4e>
    10e4:	fc 01       	movw	r30, r24
    10e6:	e2 0f       	add	r30, r18
    10e8:	f3 1f       	adc	r31, r19
    10ea:	32 97       	sbiw	r30, 0x02	; 2
    10ec:	a0 81       	ld	r26, Z
    10ee:	e1 e0       	ldi	r30, 0x01	; 1
    10f0:	f0 e0       	ldi	r31, 0x00	; 0
    10f2:	ec 0f       	add	r30, r28
    10f4:	fd 1f       	adc	r31, r29
    10f6:	e2 0f       	add	r30, r18
    10f8:	f3 1f       	adc	r31, r19
    10fa:	a0 83       	st	Z, r26
    10fc:	d9 01       	movw	r26, r18
    10fe:	f9 01       	movw	r30, r18
    1100:	38 97       	sbiw	r30, 0x08	; 8
    1102:	e6 30       	cpi	r30, 0x06	; 6
    1104:	f1 05       	cpc	r31, r1
    1106:	50 f4       	brcc	.+20     	; 0x111c <requisicao_externa+0x6e>
    1108:	e6 0f       	add	r30, r22
    110a:	f7 1f       	adc	r31, r23
    110c:	10 81       	ld	r17, Z
    110e:	e1 e0       	ldi	r30, 0x01	; 1
    1110:	f0 e0       	ldi	r31, 0x00	; 0
    1112:	ec 0f       	add	r30, r28
    1114:	fd 1f       	adc	r31, r29
    1116:	e2 0f       	add	r30, r18
    1118:	f3 1f       	adc	r31, r19
    111a:	10 83       	st	Z, r17
    111c:	2e 30       	cpi	r18, 0x0E	; 14
    111e:	31 05       	cpc	r19, r1
    1120:	7c f0       	brlt	.+30     	; 0x1140 <requisicao_externa+0x92>
    1122:	e2 e1       	ldi	r30, 0x12	; 18
    1124:	f0 e0       	ldi	r31, 0x00	; 0
    1126:	e2 1b       	sub	r30, r18
    1128:	f3 0b       	sbc	r31, r19
    112a:	e4 0f       	add	r30, r20
    112c:	f5 1f       	adc	r31, r21
    112e:	f0 80       	ld	r15, Z
    1130:	01 e0       	ldi	r16, 0x01	; 1
    1132:	10 e0       	ldi	r17, 0x00	; 0
    1134:	0c 0f       	add	r16, r28
    1136:	1d 1f       	adc	r17, r29
    1138:	20 0f       	add	r18, r16
    113a:	31 1f       	adc	r19, r17
    113c:	f9 01       	movw	r30, r18
    113e:	f0 82       	st	Z, r15
    1140:	9d 01       	movw	r18, r26
    1142:	2f 5f       	subi	r18, 0xFF	; 255
    1144:	3f 4f       	sbci	r19, 0xFF	; 255
    1146:	23 31       	cpi	r18, 0x13	; 19
    1148:	31 05       	cpc	r19, r1
    114a:	4c f2       	brlt	.-110    	; 0x10de <requisicao_externa+0x30>
    114c:	0f 2e       	mov	r0, r31
    114e:	f3 e1       	ldi	r31, 0x13	; 19
    1150:	ef 2e       	mov	r14, r31
    1152:	f1 2c       	mov	r15, r1
    1154:	f0 2d       	mov	r31, r0
    1156:	80 c0       	rjmp	.+256    	; 0x1258 <requisicao_externa+0x1aa>
    1158:	21 15       	cp	r18, r1
    115a:	31 05       	cpc	r19, r1
    115c:	81 f5       	brne	.+96     	; 0x11be <requisicao_externa+0x110>
    115e:	25 e4       	ldi	r18, 0x45	; 69
    1160:	29 83       	std	Y+1, r18	; 0x01
    1162:	26 e5       	ldi	r18, 0x56	; 86
    1164:	2a 83       	std	Y+2, r18	; 0x02
    1166:	22 e0       	ldi	r18, 0x02	; 2
    1168:	30 e0       	ldi	r19, 0x00	; 0
    116a:	20 c0       	rjmp	.+64     	; 0x11ac <requisicao_externa+0xfe>
    116c:	28 30       	cpi	r18, 0x08	; 8
    116e:	31 05       	cpc	r19, r1
    1170:	6c f4       	brge	.+26     	; 0x118c <requisicao_externa+0xde>
    1172:	fc 01       	movw	r30, r24
    1174:	e2 0f       	add	r30, r18
    1176:	f3 1f       	adc	r31, r19
    1178:	32 97       	sbiw	r30, 0x02	; 2
    117a:	60 81       	ld	r22, Z
    117c:	e1 e0       	ldi	r30, 0x01	; 1
    117e:	f0 e0       	ldi	r31, 0x00	; 0
    1180:	ec 0f       	add	r30, r28
    1182:	fd 1f       	adc	r31, r29
    1184:	e2 0f       	add	r30, r18
    1186:	f3 1f       	adc	r31, r19
    1188:	60 83       	st	Z, r22
    118a:	0e c0       	rjmp	.+28     	; 0x11a8 <requisicao_externa+0xfa>
    118c:	ec e0       	ldi	r30, 0x0C	; 12
    118e:	f0 e0       	ldi	r31, 0x00	; 0
    1190:	e2 1b       	sub	r30, r18
    1192:	f3 0b       	sbc	r31, r19
    1194:	e4 0f       	add	r30, r20
    1196:	f5 1f       	adc	r31, r21
    1198:	60 81       	ld	r22, Z
    119a:	e1 e0       	ldi	r30, 0x01	; 1
    119c:	f0 e0       	ldi	r31, 0x00	; 0
    119e:	ec 0f       	add	r30, r28
    11a0:	fd 1f       	adc	r31, r29
    11a2:	e2 0f       	add	r30, r18
    11a4:	f3 1f       	adc	r31, r19
    11a6:	60 83       	st	Z, r22
    11a8:	2f 5f       	subi	r18, 0xFF	; 255
    11aa:	3f 4f       	sbci	r19, 0xFF	; 255
    11ac:	2d 30       	cpi	r18, 0x0D	; 13
    11ae:	31 05       	cpc	r19, r1
    11b0:	ec f2       	brlt	.-70     	; 0x116c <requisicao_externa+0xbe>
    11b2:	0f 2e       	mov	r0, r31
    11b4:	fd e0       	ldi	r31, 0x0D	; 13
    11b6:	ef 2e       	mov	r14, r31
    11b8:	f1 2c       	mov	r15, r1
    11ba:	f0 2d       	mov	r31, r0
    11bc:	4d c0       	rjmp	.+154    	; 0x1258 <requisicao_externa+0x1aa>
    11be:	e6 e5       	ldi	r30, 0x56	; 86
    11c0:	e9 83       	std	Y+1, r30	; 0x01
    11c2:	e0 e5       	ldi	r30, 0x50	; 80
    11c4:	ea 83       	std	Y+2, r30	; 0x02
    11c6:	e2 e0       	ldi	r30, 0x02	; 2
    11c8:	f0 e0       	ldi	r31, 0x00	; 0
    11ca:	3d c0       	rjmp	.+122    	; 0x1246 <requisicao_externa+0x198>
    11cc:	e8 30       	cpi	r30, 0x08	; 8
    11ce:	f1 05       	cpc	r31, r1
    11d0:	64 f4       	brge	.+24     	; 0x11ea <requisicao_externa+0x13c>
    11d2:	dc 01       	movw	r26, r24
    11d4:	ae 0f       	add	r26, r30
    11d6:	bf 1f       	adc	r27, r31
    11d8:	12 97       	sbiw	r26, 0x02	; 2
    11da:	1c 91       	ld	r17, X
    11dc:	a1 e0       	ldi	r26, 0x01	; 1
    11de:	b0 e0       	ldi	r27, 0x00	; 0
    11e0:	ac 0f       	add	r26, r28
    11e2:	bd 1f       	adc	r27, r29
    11e4:	ae 0f       	add	r26, r30
    11e6:	bf 1f       	adc	r27, r31
    11e8:	1c 93       	st	X, r17
    11ea:	8f 01       	movw	r16, r30
    11ec:	df 01       	movw	r26, r30
    11ee:	18 97       	sbiw	r26, 0x08	; 8
    11f0:	a6 30       	cpi	r26, 0x06	; 6
    11f2:	b1 05       	cpc	r27, r1
    11f4:	50 f4       	brcc	.+20     	; 0x120a <requisicao_externa+0x15c>
    11f6:	a6 0f       	add	r26, r22
    11f8:	b7 1f       	adc	r27, r23
    11fa:	fc 90       	ld	r15, X
    11fc:	a1 e0       	ldi	r26, 0x01	; 1
    11fe:	b0 e0       	ldi	r27, 0x00	; 0
    1200:	ac 0f       	add	r26, r28
    1202:	bd 1f       	adc	r27, r29
    1204:	ae 0f       	add	r26, r30
    1206:	bf 1f       	adc	r27, r31
    1208:	fc 92       	st	X, r15
    120a:	ee 30       	cpi	r30, 0x0E	; 14
    120c:	f1 05       	cpc	r31, r1
    120e:	39 f4       	brne	.+14     	; 0x121e <requisicao_externa+0x170>
    1210:	a1 e0       	ldi	r26, 0x01	; 1
    1212:	b0 e0       	ldi	r27, 0x00	; 0
    1214:	ac 0f       	add	r26, r28
    1216:	bd 1f       	adc	r27, r29
    1218:	ae 0f       	add	r26, r30
    121a:	bf 1f       	adc	r27, r31
    121c:	2c 93       	st	X, r18
    121e:	ef 30       	cpi	r30, 0x0F	; 15
    1220:	f1 05       	cpc	r31, r1
    1222:	7c f0       	brlt	.+30     	; 0x1242 <requisicao_externa+0x194>
    1224:	a3 e1       	ldi	r26, 0x13	; 19
    1226:	b0 e0       	ldi	r27, 0x00	; 0
    1228:	ae 1b       	sub	r26, r30
    122a:	bf 0b       	sbc	r27, r31
    122c:	a4 0f       	add	r26, r20
    122e:	b5 1f       	adc	r27, r21
    1230:	ac 91       	ld	r26, X
    1232:	ee 24       	eor	r14, r14
    1234:	e3 94       	inc	r14
    1236:	f1 2c       	mov	r15, r1
    1238:	ec 0e       	add	r14, r28
    123a:	fd 1e       	adc	r15, r29
    123c:	ee 0d       	add	r30, r14
    123e:	ff 1d       	adc	r31, r15
    1240:	a0 83       	st	Z, r26
    1242:	f8 01       	movw	r30, r16
    1244:	31 96       	adiw	r30, 0x01	; 1
    1246:	e4 31       	cpi	r30, 0x14	; 20
    1248:	f1 05       	cpc	r31, r1
    124a:	0c f4       	brge	.+2      	; 0x124e <requisicao_externa+0x1a0>
    124c:	bf cf       	rjmp	.-130    	; 0x11cc <requisicao_externa+0x11e>
    124e:	0f 2e       	mov	r0, r31
    1250:	f4 e1       	ldi	r31, 0x14	; 20
    1252:	ef 2e       	mov	r14, r31
    1254:	f1 2c       	mov	r15, r1
    1256:	f0 2d       	mov	r31, r0
    1258:	00 e0       	ldi	r16, 0x00	; 0
    125a:	10 e0       	ldi	r17, 0x00	; 0
    125c:	0b c0       	rjmp	.+22     	; 0x1274 <requisicao_externa+0x1c6>
    125e:	e1 e0       	ldi	r30, 0x01	; 1
    1260:	f0 e0       	ldi	r31, 0x00	; 0
    1262:	ec 0f       	add	r30, r28
    1264:	fd 1f       	adc	r31, r29
    1266:	e0 0f       	add	r30, r16
    1268:	f1 1f       	adc	r31, r17
    126a:	80 81       	ld	r24, Z
    126c:	0e 94 b8 03 	call	0x770	; 0x770 <USART_envia>
    1270:	0f 5f       	subi	r16, 0xFF	; 255
    1272:	1f 4f       	sbci	r17, 0xFF	; 255
    1274:	0e 15       	cp	r16, r14
    1276:	1f 05       	cpc	r17, r15
    1278:	94 f3       	brlt	.-28     	; 0x125e <requisicao_externa+0x1b0>
    127a:	8d e0       	ldi	r24, 0x0D	; 13
    127c:	0e 94 b8 03 	call	0x770	; 0x770 <USART_envia>
    1280:	0e 94 45 08 	call	0x108a	; 0x108a <tela_processandoVenda>
    1284:	0e 94 ee 03 	call	0x7dc	; 0x7dc <USART_recebe>
    1288:	8f 34       	cpi	r24, 0x4F	; 79
    128a:	29 f0       	breq	.+10     	; 0x1296 <requisicao_externa+0x1e8>
    128c:	83 35       	cpi	r24, 0x53	; 83
    128e:	69 f0       	breq	.+26     	; 0x12aa <requisicao_externa+0x1fc>
    1290:	83 34       	cpi	r24, 0x43	; 67
    1292:	c1 f7       	brne	.-16     	; 0x1284 <requisicao_externa+0x1d6>
    1294:	05 c0       	rjmp	.+10     	; 0x12a0 <requisicao_externa+0x1f2>
    1296:	0e 94 46 06 	call	0xc8c	; 0xc8c <tela_OK>
    129a:	81 e0       	ldi	r24, 0x01	; 1
    129c:	90 e0       	ldi	r25, 0x00	; 0
    129e:	15 c0       	rjmp	.+42     	; 0x12ca <requisicao_externa+0x21c>
    12a0:	0e 94 61 06 	call	0xcc2	; 0xcc2 <tela_CF>
    12a4:	81 e0       	ldi	r24, 0x01	; 1
    12a6:	90 e0       	ldi	r25, 0x00	; 0
    12a8:	10 c0       	rjmp	.+32     	; 0x12ca <requisicao_externa+0x21c>
    12aa:	0e 94 ee 03 	call	0x7dc	; 0x7dc <USART_recebe>
    12ae:	86 34       	cpi	r24, 0x46	; 70
    12b0:	19 f0       	breq	.+6      	; 0x12b8 <requisicao_externa+0x20a>
    12b2:	89 34       	cpi	r24, 0x49	; 73
    12b4:	31 f0       	breq	.+12     	; 0x12c2 <requisicao_externa+0x214>
    12b6:	e6 cf       	rjmp	.-52     	; 0x1284 <requisicao_externa+0x1d6>
    12b8:	0e 94 97 06 	call	0xd2e	; 0xd2e <tela_SF>
    12bc:	82 e0       	ldi	r24, 0x02	; 2
    12be:	90 e0       	ldi	r25, 0x00	; 0
    12c0:	04 c0       	rjmp	.+8      	; 0x12ca <requisicao_externa+0x21c>
    12c2:	0e 94 7c 06 	call	0xcf8	; 0xcf8 <tela_SI>
    12c6:	81 e0       	ldi	r24, 0x01	; 1
    12c8:	90 e0       	ldi	r25, 0x00	; 0
    12ca:	65 96       	adiw	r28, 0x15	; 21
    12cc:	0f b6       	in	r0, 0x3f	; 63
    12ce:	f8 94       	cli
    12d0:	de bf       	out	0x3e, r29	; 62
    12d2:	0f be       	out	0x3f, r0	; 63
    12d4:	cd bf       	out	0x3d, r28	; 61
    12d6:	df 91       	pop	r29
    12d8:	cf 91       	pop	r28
    12da:	1f 91       	pop	r17
    12dc:	0f 91       	pop	r16
    12de:	ff 90       	pop	r15
    12e0:	ef 90       	pop	r14
    12e2:	08 95       	ret

000012e4 <processa_estorno>:
    12e4:	af 92       	push	r10
    12e6:	bf 92       	push	r11
    12e8:	cf 92       	push	r12
    12ea:	df 92       	push	r13
    12ec:	ef 92       	push	r14
    12ee:	ff 92       	push	r15
    12f0:	0f 93       	push	r16
    12f2:	1f 93       	push	r17
    12f4:	cf 93       	push	r28
    12f6:	df 93       	push	r29
    12f8:	6c 01       	movw	r12, r24
    12fa:	5b 01       	movw	r10, r22
    12fc:	8a 01       	movw	r16, r20
    12fe:	80 e0       	ldi	r24, 0x00	; 0
    1300:	90 e0       	ldi	r25, 0x00	; 0
    1302:	36 c0       	rjmp	.+108    	; 0x1370 <processa_estorno+0x8c>
    1304:	21 e0       	ldi	r18, 0x01	; 1
    1306:	c2 16       	cp	r12, r18
    1308:	d1 04       	cpc	r13, r1
    130a:	89 f4       	brne	.+34     	; 0x132e <processa_estorno+0x4a>
    130c:	02 97       	sbiw	r24, 0x02	; 2
    130e:	51 f4       	brne	.+20     	; 0x1324 <processa_estorno+0x40>
    1310:	0e c0       	rjmp	.+28     	; 0x132e <processa_estorno+0x4a>
    1312:	78 01       	movw	r14, r16
    1314:	ec 0e       	add	r14, r28
    1316:	fd 1e       	adc	r15, r29
    1318:	0e 94 ee 03 	call	0x7dc	; 0x7dc <USART_recebe>
    131c:	f7 01       	movw	r30, r14
    131e:	80 83       	st	Z, r24
    1320:	21 96       	adiw	r28, 0x01	; 1
    1322:	02 c0       	rjmp	.+4      	; 0x1328 <processa_estorno+0x44>
    1324:	c0 e0       	ldi	r28, 0x00	; 0
    1326:	d0 e0       	ldi	r29, 0x00	; 0
    1328:	c6 30       	cpi	r28, 0x06	; 6
    132a:	d1 05       	cpc	r29, r1
    132c:	94 f3       	brlt	.-28     	; 0x1312 <processa_estorno+0x2e>
    132e:	f2 e0       	ldi	r31, 0x02	; 2
    1330:	cf 16       	cp	r12, r31
    1332:	d1 04       	cpc	r13, r1
    1334:	79 f4       	brne	.+30     	; 0x1354 <processa_estorno+0x70>
    1336:	09 c0       	rjmp	.+18     	; 0x134a <processa_estorno+0x66>
    1338:	78 01       	movw	r14, r16
    133a:	ec 0e       	add	r14, r28
    133c:	fd 1e       	adc	r15, r29
    133e:	0e 94 ee 03 	call	0x7dc	; 0x7dc <USART_recebe>
    1342:	f7 01       	movw	r30, r14
    1344:	80 83       	st	Z, r24
    1346:	21 96       	adiw	r28, 0x01	; 1
    1348:	02 c0       	rjmp	.+4      	; 0x134e <processa_estorno+0x6a>
    134a:	c0 e0       	ldi	r28, 0x00	; 0
    134c:	d0 e0       	ldi	r29, 0x00	; 0
    134e:	c6 30       	cpi	r28, 0x06	; 6
    1350:	d1 05       	cpc	r29, r1
    1352:	94 f3       	brlt	.-28     	; 0x1338 <processa_estorno+0x54>
    1354:	f3 e0       	ldi	r31, 0x03	; 3
    1356:	cf 16       	cp	r12, r31
    1358:	d1 04       	cpc	r13, r1
    135a:	19 f4       	brne	.+6      	; 0x1362 <processa_estorno+0x7e>
    135c:	c8 01       	movw	r24, r16
    135e:	0e 94 f9 07 	call	0xff2	; 0xff2 <recebe_cartao>
    1362:	20 e0       	ldi	r18, 0x00	; 0
    1364:	30 e0       	ldi	r19, 0x00	; 0
    1366:	a5 01       	movw	r20, r10
    1368:	b8 01       	movw	r22, r16
    136a:	c8 01       	movw	r24, r16
    136c:	0e 94 57 08 	call	0x10ae	; 0x10ae <requisicao_externa>
    1370:	81 30       	cpi	r24, 0x01	; 1
    1372:	91 05       	cpc	r25, r1
    1374:	39 f6       	brne	.-114    	; 0x1304 <processa_estorno+0x20>
    1376:	df 91       	pop	r29
    1378:	cf 91       	pop	r28
    137a:	1f 91       	pop	r17
    137c:	0f 91       	pop	r16
    137e:	ff 90       	pop	r15
    1380:	ef 90       	pop	r14
    1382:	df 90       	pop	r13
    1384:	cf 90       	pop	r12
    1386:	bf 90       	pop	r11
    1388:	af 90       	pop	r10
    138a:	08 95       	ret

0000138c <estorno>:
    138c:	0f 93       	push	r16
    138e:	1f 93       	push	r17
    1390:	cf 93       	push	r28
    1392:	df 93       	push	r29
    1394:	cd b7       	in	r28, 0x3d	; 61
    1396:	de b7       	in	r29, 0x3e	; 62
    1398:	a3 97       	sbiw	r28, 0x23	; 35
    139a:	0f b6       	in	r0, 0x3f	; 63
    139c:	f8 94       	cli
    139e:	de bf       	out	0x3e, r29	; 62
    13a0:	0f be       	out	0x3f, r0	; 63
    13a2:	cd bf       	out	0x3d, r28	; 61
    13a4:	86 e0       	ldi	r24, 0x06	; 6
    13a6:	ec e1       	ldi	r30, 0x1C	; 28
    13a8:	f1 e0       	ldi	r31, 0x01	; 1
    13aa:	de 01       	movw	r26, r28
    13ac:	11 96       	adiw	r26, 0x01	; 1
    13ae:	01 90       	ld	r0, Z+
    13b0:	0d 92       	st	X+, r0
    13b2:	8a 95       	dec	r24
    13b4:	e1 f7       	brne	.-8      	; 0x13ae <estorno+0x22>
    13b6:	86 e0       	ldi	r24, 0x06	; 6
    13b8:	ec e1       	ldi	r30, 0x1C	; 28
    13ba:	f1 e0       	ldi	r31, 0x01	; 1
    13bc:	de 01       	movw	r26, r28
    13be:	17 96       	adiw	r26, 0x07	; 7
    13c0:	01 90       	ld	r0, Z+
    13c2:	0d 92       	st	X+, r0
    13c4:	8a 95       	dec	r24
    13c6:	e1 f7       	brne	.-8      	; 0x13c0 <estorno+0x34>
    13c8:	85 e0       	ldi	r24, 0x05	; 5
    13ca:	e2 e2       	ldi	r30, 0x22	; 34
    13cc:	f1 e0       	ldi	r31, 0x01	; 1
    13ce:	de 01       	movw	r26, r28
    13d0:	1d 96       	adiw	r26, 0x0d	; 13
    13d2:	01 90       	ld	r0, Z+
    13d4:	0d 92       	st	X+, r0
    13d6:	8a 95       	dec	r24
    13d8:	e1 f7       	brne	.-8      	; 0x13d2 <estorno+0x46>
    13da:	82 e1       	ldi	r24, 0x12	; 18
    13dc:	e7 e2       	ldi	r30, 0x27	; 39
    13de:	f1 e0       	ldi	r31, 0x01	; 1
    13e0:	de 01       	movw	r26, r28
    13e2:	52 96       	adiw	r26, 0x12	; 18
    13e4:	01 90       	ld	r0, Z+
    13e6:	0d 92       	st	X+, r0
    13e8:	8a 95       	dec	r24
    13ea:	e1 f7       	brne	.-8      	; 0x13e4 <estorno+0x58>
    13ec:	0e 94 d2 06 	call	0xda4	; 0xda4 <tela_estorno>
    13f0:	ce 01       	movw	r24, r28
    13f2:	01 96       	adiw	r24, 0x01	; 1
    13f4:	0e 94 a3 07 	call	0xf46	; 0xf46 <recebe_senha>
    13f8:	80 e0       	ldi	r24, 0x00	; 0
    13fa:	90 e0       	ldi	r25, 0x00	; 0
    13fc:	00 e0       	ldi	r16, 0x00	; 0
    13fe:	10 e0       	ldi	r17, 0x00	; 0
    1400:	16 c0       	rjmp	.+44     	; 0x142e <estorno+0xa2>
    1402:	00 97       	sbiw	r24, 0x00	; 0
    1404:	91 f4       	brne	.+36     	; 0x142a <estorno+0x9e>
    1406:	b8 01       	movw	r22, r16
    1408:	66 0f       	add	r22, r22
    140a:	77 1f       	adc	r23, r23
    140c:	60 0f       	add	r22, r16
    140e:	71 1f       	adc	r23, r17
    1410:	66 0f       	add	r22, r22
    1412:	77 1f       	adc	r23, r23
    1414:	82 e1       	ldi	r24, 0x12	; 18
    1416:	90 e0       	ldi	r25, 0x00	; 0
    1418:	8c 0f       	add	r24, r28
    141a:	9d 1f       	adc	r25, r29
    141c:	68 0f       	add	r22, r24
    141e:	79 1f       	adc	r23, r25
    1420:	ce 01       	movw	r24, r28
    1422:	01 96       	adiw	r24, 0x01	; 1
    1424:	0e 94 f0 04 	call	0x9e0	; 0x9e0 <validarSenha>
    1428:	90 e0       	ldi	r25, 0x00	; 0
    142a:	0f 5f       	subi	r16, 0xFF	; 255
    142c:	1f 4f       	sbci	r17, 0xFF	; 255
    142e:	03 30       	cpi	r16, 0x03	; 3
    1430:	11 05       	cpc	r17, r1
    1432:	3c f3       	brlt	.-50     	; 0x1402 <estorno+0x76>
    1434:	89 2b       	or	r24, r25
    1436:	c1 f0       	breq	.+48     	; 0x1468 <estorno+0xdc>
    1438:	0e 94 c0 06 	call	0xd80	; 0xd80 <tela_valorEstorno>
    143c:	ce 01       	movw	r24, r28
    143e:	0d 96       	adiw	r24, 0x0d	; 13
    1440:	0e 94 75 04 	call	0x8ea	; 0x8ea <recebe_valor>
    1444:	ce 01       	movw	r24, r28
    1446:	0d 96       	adiw	r24, 0x0d	; 13
    1448:	0e 94 e4 02 	call	0x5c8	; 0x5c8 <formata_valor>
    144c:	0e 94 b2 06 	call	0xd64	; 0xd64 <tela_cartaoEstorno>
    1450:	0e 94 23 06 	call	0xc46	; 0xc46 <aguarda_cartao>
    1454:	ae 01       	movw	r20, r28
    1456:	49 5f       	subi	r20, 0xF9	; 249
    1458:	5f 4f       	sbci	r21, 0xFF	; 255
    145a:	be 01       	movw	r22, r28
    145c:	63 5f       	subi	r22, 0xF3	; 243
    145e:	7f 4f       	sbci	r23, 0xFF	; 255
    1460:	90 e0       	ldi	r25, 0x00	; 0
    1462:	0e 94 72 09 	call	0x12e4	; 0x12e4 <processa_estorno>
    1466:	02 c0       	rjmp	.+4      	; 0x146c <estorno+0xe0>
    1468:	0e 94 97 06 	call	0xd2e	; 0xd2e <tela_SF>
    146c:	9f ef       	ldi	r25, 0xFF	; 255
    146e:	23 e2       	ldi	r18, 0x23	; 35
    1470:	84 ef       	ldi	r24, 0xF4	; 244
    1472:	91 50       	subi	r25, 0x01	; 1
    1474:	20 40       	sbci	r18, 0x00	; 0
    1476:	80 40       	sbci	r24, 0x00	; 0
    1478:	e1 f7       	brne	.-8      	; 0x1472 <estorno+0xe6>
    147a:	00 c0       	rjmp	.+0      	; 0x147c <estorno+0xf0>
    147c:	00 00       	nop
    147e:	a3 96       	adiw	r28, 0x23	; 35
    1480:	0f b6       	in	r0, 0x3f	; 63
    1482:	f8 94       	cli
    1484:	de bf       	out	0x3e, r29	; 62
    1486:	0f be       	out	0x3f, r0	; 63
    1488:	cd bf       	out	0x3d, r28	; 61
    148a:	df 91       	pop	r29
    148c:	cf 91       	pop	r28
    148e:	1f 91       	pop	r17
    1490:	0f 91       	pop	r16
    1492:	08 95       	ret

00001494 <processa_pagamento>:
    1494:	2f 92       	push	r2
    1496:	3f 92       	push	r3
    1498:	4f 92       	push	r4
    149a:	5f 92       	push	r5
    149c:	6f 92       	push	r6
    149e:	7f 92       	push	r7
    14a0:	8f 92       	push	r8
    14a2:	9f 92       	push	r9
    14a4:	af 92       	push	r10
    14a6:	bf 92       	push	r11
    14a8:	cf 92       	push	r12
    14aa:	df 92       	push	r13
    14ac:	ef 92       	push	r14
    14ae:	ff 92       	push	r15
    14b0:	0f 93       	push	r16
    14b2:	1f 93       	push	r17
    14b4:	cf 93       	push	r28
    14b6:	df 93       	push	r29
    14b8:	1c 01       	movw	r2, r24
    14ba:	5b 01       	movw	r10, r22
    14bc:	74 2e       	mov	r7, r20
    14be:	29 01       	movw	r4, r18
    14c0:	61 2c       	mov	r6, r1
    14c2:	81 2c       	mov	r8, r1
    14c4:	91 2c       	mov	r9, r1
    14c6:	78 c0       	rjmp	.+240    	; 0x15b8 <processa_pagamento+0x124>
    14c8:	81 e0       	ldi	r24, 0x01	; 1
    14ca:	a8 16       	cp	r10, r24
    14cc:	b1 04       	cpc	r11, r1
    14ce:	c1 f4       	brne	.+48     	; 0x1500 <processa_pagamento+0x6c>
    14d0:	e2 e0       	ldi	r30, 0x02	; 2
    14d2:	8e 16       	cp	r8, r30
    14d4:	91 04       	cpc	r9, r1
    14d6:	59 f4       	brne	.+22     	; 0x14ee <processa_pagamento+0x5a>
    14d8:	10 c0       	rjmp	.+32     	; 0x14fa <processa_pagamento+0x66>
    14da:	e7 01       	movw	r28, r14
    14dc:	cc 0d       	add	r28, r12
    14de:	dd 1d       	adc	r29, r13
    14e0:	0e 94 ee 03 	call	0x7dc	; 0x7dc <USART_recebe>
    14e4:	88 83       	st	Y, r24
    14e6:	ff ef       	ldi	r31, 0xFF	; 255
    14e8:	cf 1a       	sub	r12, r31
    14ea:	df 0a       	sbc	r13, r31
    14ec:	02 c0       	rjmp	.+4      	; 0x14f2 <processa_pagamento+0x5e>
    14ee:	c1 2c       	mov	r12, r1
    14f0:	d1 2c       	mov	r13, r1
    14f2:	86 e0       	ldi	r24, 0x06	; 6
    14f4:	c8 16       	cp	r12, r24
    14f6:	d1 04       	cpc	r13, r1
    14f8:	84 f3       	brlt	.-32     	; 0x14da <processa_pagamento+0x46>
    14fa:	c8 01       	movw	r24, r16
    14fc:	0e 94 a3 07 	call	0xf46	; 0xf46 <recebe_senha>
    1500:	e2 e0       	ldi	r30, 0x02	; 2
    1502:	ae 16       	cp	r10, r30
    1504:	b1 04       	cpc	r11, r1
    1506:	e1 f4       	brne	.+56     	; 0x1540 <processa_pagamento+0xac>
    1508:	16 c0       	rjmp	.+44     	; 0x1536 <processa_pagamento+0xa2>
    150a:	c6 30       	cpi	r28, 0x06	; 6
    150c:	d1 05       	cpc	r29, r1
    150e:	3c f4       	brge	.+14     	; 0x151e <processa_pagamento+0x8a>
    1510:	0e 94 ee 03 	call	0x7dc	; 0x7dc <USART_recebe>
    1514:	f7 01       	movw	r30, r14
    1516:	ec 0f       	add	r30, r28
    1518:	fd 1f       	adc	r31, r29
    151a:	80 83       	st	Z, r24
    151c:	0a c0       	rjmp	.+20     	; 0x1532 <processa_pagamento+0x9e>
    151e:	6e 01       	movw	r12, r28
    1520:	f6 e0       	ldi	r31, 0x06	; 6
    1522:	cf 1a       	sub	r12, r31
    1524:	d1 08       	sbc	r13, r1
    1526:	c0 0e       	add	r12, r16
    1528:	d1 1e       	adc	r13, r17
    152a:	0e 94 ee 03 	call	0x7dc	; 0x7dc <USART_recebe>
    152e:	f6 01       	movw	r30, r12
    1530:	80 83       	st	Z, r24
    1532:	21 96       	adiw	r28, 0x01	; 1
    1534:	02 c0       	rjmp	.+4      	; 0x153a <processa_pagamento+0xa6>
    1536:	c0 e0       	ldi	r28, 0x00	; 0
    1538:	d0 e0       	ldi	r29, 0x00	; 0
    153a:	cc 30       	cpi	r28, 0x0C	; 12
    153c:	d1 05       	cpc	r29, r1
    153e:	2c f3       	brlt	.-54     	; 0x150a <processa_pagamento+0x76>
    1540:	f3 e0       	ldi	r31, 0x03	; 3
    1542:	af 16       	cp	r10, r31
    1544:	b1 04       	cpc	r11, r1
    1546:	51 f4       	brne	.+20     	; 0x155c <processa_pagamento+0xc8>
    1548:	82 e0       	ldi	r24, 0x02	; 2
    154a:	88 16       	cp	r8, r24
    154c:	91 04       	cpc	r9, r1
    154e:	19 f0       	breq	.+6      	; 0x1556 <processa_pagamento+0xc2>
    1550:	c7 01       	movw	r24, r14
    1552:	0e 94 f9 07 	call	0xff2	; 0xff2 <recebe_cartao>
    1556:	c8 01       	movw	r24, r16
    1558:	0e 94 a3 07 	call	0xf46	; 0xf46 <recebe_senha>
    155c:	e2 e0       	ldi	r30, 0x02	; 2
    155e:	7e 12       	cpse	r7, r30
    1560:	04 c0       	rjmp	.+8      	; 0x156a <processa_pagamento+0xd6>
    1562:	c7 01       	movw	r24, r14
    1564:	0e 94 6b 00 	call	0xd6	; 0xd6 <verificarContasLocais>
    1568:	68 2e       	mov	r6, r24
    156a:	61 10       	cpse	r6, r1
    156c:	08 c0       	rjmp	.+16     	; 0x157e <processa_pagamento+0xea>
    156e:	91 01       	movw	r18, r2
    1570:	a2 01       	movw	r20, r4
    1572:	b8 01       	movw	r22, r16
    1574:	c7 01       	movw	r24, r14
    1576:	0e 94 57 08 	call	0x10ae	; 0x10ae <requisicao_externa>
    157a:	4c 01       	movw	r8, r24
    157c:	1d c0       	rjmp	.+58     	; 0x15b8 <processa_pagamento+0x124>
    157e:	a8 01       	movw	r20, r16
    1580:	b2 01       	movw	r22, r4
    1582:	86 2d       	mov	r24, r6
    1584:	0e 94 b0 02 	call	0x560	; 0x560 <executarVendaInterna>
    1588:	90 e0       	ldi	r25, 0x00	; 0
    158a:	81 30       	cpi	r24, 0x01	; 1
    158c:	91 05       	cpc	r25, r1
    158e:	41 f0       	breq	.+16     	; 0x15a0 <processa_pagamento+0x10c>
    1590:	82 30       	cpi	r24, 0x02	; 2
    1592:	91 05       	cpc	r25, r1
    1594:	49 f4       	brne	.+18     	; 0x15a8 <processa_pagamento+0x114>
    1596:	68 94       	set
    1598:	88 24       	eor	r8, r8
    159a:	81 f8       	bld	r8, 1
    159c:	91 2c       	mov	r9, r1
    159e:	07 c0       	rjmp	.+14     	; 0x15ae <processa_pagamento+0x11a>
    15a0:	88 24       	eor	r8, r8
    15a2:	83 94       	inc	r8
    15a4:	91 2c       	mov	r9, r1
    15a6:	03 c0       	rjmp	.+6      	; 0x15ae <processa_pagamento+0x11a>
    15a8:	88 24       	eor	r8, r8
    15aa:	83 94       	inc	r8
    15ac:	91 2c       	mov	r9, r1
    15ae:	0e 94 04 07 	call	0xe08	; 0xe08 <tela_vendaInterna>
    15b2:	86 2d       	mov	r24, r6
    15b4:	0e 94 bf 03 	call	0x77e	; 0x77e <mostraSaldoNaSerial>
    15b8:	f1 e0       	ldi	r31, 0x01	; 1
    15ba:	8f 16       	cp	r8, r31
    15bc:	91 04       	cpc	r9, r1
    15be:	09 f0       	breq	.+2      	; 0x15c2 <processa_pagamento+0x12e>
    15c0:	83 cf       	rjmp	.-250    	; 0x14c8 <processa_pagamento+0x34>
    15c2:	df 91       	pop	r29
    15c4:	cf 91       	pop	r28
    15c6:	1f 91       	pop	r17
    15c8:	0f 91       	pop	r16
    15ca:	ff 90       	pop	r15
    15cc:	ef 90       	pop	r14
    15ce:	df 90       	pop	r13
    15d0:	cf 90       	pop	r12
    15d2:	bf 90       	pop	r11
    15d4:	af 90       	pop	r10
    15d6:	9f 90       	pop	r9
    15d8:	8f 90       	pop	r8
    15da:	7f 90       	pop	r7
    15dc:	6f 90       	pop	r6
    15de:	5f 90       	pop	r5
    15e0:	4f 90       	pop	r4
    15e2:	3f 90       	pop	r3
    15e4:	2f 90       	pop	r2
    15e6:	08 95       	ret

000015e8 <venda_parcelada>:
    15e8:	cf 92       	push	r12
    15ea:	df 92       	push	r13
    15ec:	ef 92       	push	r14
    15ee:	ff 92       	push	r15
    15f0:	0f 93       	push	r16
    15f2:	1f 93       	push	r17
    15f4:	cf 93       	push	r28
    15f6:	df 93       	push	r29
    15f8:	cd b7       	in	r28, 0x3d	; 61
    15fa:	de b7       	in	r29, 0x3e	; 62
    15fc:	61 97       	sbiw	r28, 0x11	; 17
    15fe:	0f b6       	in	r0, 0x3f	; 63
    1600:	f8 94       	cli
    1602:	de bf       	out	0x3e, r29	; 62
    1604:	0f be       	out	0x3f, r0	; 63
    1606:	cd bf       	out	0x3d, r28	; 61
    1608:	86 e0       	ldi	r24, 0x06	; 6
    160a:	ec e1       	ldi	r30, 0x1C	; 28
    160c:	f1 e0       	ldi	r31, 0x01	; 1
    160e:	de 01       	movw	r26, r28
    1610:	11 96       	adiw	r26, 0x01	; 1
    1612:	01 90       	ld	r0, Z+
    1614:	0d 92       	st	X+, r0
    1616:	8a 95       	dec	r24
    1618:	e1 f7       	brne	.-8      	; 0x1612 <venda_parcelada+0x2a>
    161a:	86 e0       	ldi	r24, 0x06	; 6
    161c:	ec e1       	ldi	r30, 0x1C	; 28
    161e:	f1 e0       	ldi	r31, 0x01	; 1
    1620:	de 01       	movw	r26, r28
    1622:	17 96       	adiw	r26, 0x07	; 7
    1624:	01 90       	ld	r0, Z+
    1626:	0d 92       	st	X+, r0
    1628:	8a 95       	dec	r24
    162a:	e1 f7       	brne	.-8      	; 0x1624 <venda_parcelada+0x3c>
    162c:	85 e0       	ldi	r24, 0x05	; 5
    162e:	e2 e2       	ldi	r30, 0x22	; 34
    1630:	f1 e0       	ldi	r31, 0x01	; 1
    1632:	de 01       	movw	r26, r28
    1634:	1d 96       	adiw	r26, 0x0d	; 13
    1636:	01 90       	ld	r0, Z+
    1638:	0d 92       	st	X+, r0
    163a:	8a 95       	dec	r24
    163c:	e1 f7       	brne	.-8      	; 0x1636 <venda_parcelada+0x4e>
    163e:	0e 94 f2 06 	call	0xde4	; 0xde4 <tela_vendaParcelada>
    1642:	ce 01       	movw	r24, r28
    1644:	0d 96       	adiw	r24, 0x0d	; 13
    1646:	0e 94 75 04 	call	0x8ea	; 0x8ea <recebe_valor>
    164a:	ce 01       	movw	r24, r28
    164c:	0d 96       	adiw	r24, 0x0d	; 13
    164e:	0e 94 e4 02 	call	0x5c8	; 0x5c8 <formata_valor>
    1652:	0e 94 4f 07 	call	0xe9e	; 0xe9e <n_parcelas>
    1656:	d8 2e       	mov	r13, r24
    1658:	0e 94 09 06 	call	0xc12	; 0xc12 <metodo_pagamento>
    165c:	c8 2e       	mov	r12, r24
    165e:	0e 94 23 06 	call	0xc46	; 0xc46 <aguarda_cartao>
    1662:	bc 01       	movw	r22, r24
    1664:	77 27       	eor	r23, r23
    1666:	ce 01       	movw	r24, r28
    1668:	07 96       	adiw	r24, 0x07	; 7
    166a:	7c 01       	movw	r14, r24
    166c:	8e 01       	movw	r16, r28
    166e:	0f 5f       	subi	r16, 0xFF	; 255
    1670:	1f 4f       	sbci	r17, 0xFF	; 255
    1672:	9e 01       	movw	r18, r28
    1674:	23 5f       	subi	r18, 0xF3	; 243
    1676:	3f 4f       	sbci	r19, 0xFF	; 255
    1678:	4c 2d       	mov	r20, r12
    167a:	8d 2d       	mov	r24, r13
    167c:	90 e0       	ldi	r25, 0x00	; 0
    167e:	0e 94 4a 0a 	call	0x1494	; 0x1494 <processa_pagamento>
    1682:	61 96       	adiw	r28, 0x11	; 17
    1684:	0f b6       	in	r0, 0x3f	; 63
    1686:	f8 94       	cli
    1688:	de bf       	out	0x3e, r29	; 62
    168a:	0f be       	out	0x3f, r0	; 63
    168c:	cd bf       	out	0x3d, r28	; 61
    168e:	df 91       	pop	r29
    1690:	cf 91       	pop	r28
    1692:	1f 91       	pop	r17
    1694:	0f 91       	pop	r16
    1696:	ff 90       	pop	r15
    1698:	ef 90       	pop	r14
    169a:	df 90       	pop	r13
    169c:	cf 90       	pop	r12
    169e:	08 95       	ret

000016a0 <venda_avista>:
    16a0:	df 92       	push	r13
    16a2:	ef 92       	push	r14
    16a4:	ff 92       	push	r15
    16a6:	0f 93       	push	r16
    16a8:	1f 93       	push	r17
    16aa:	cf 93       	push	r28
    16ac:	df 93       	push	r29
    16ae:	cd b7       	in	r28, 0x3d	; 61
    16b0:	de b7       	in	r29, 0x3e	; 62
    16b2:	61 97       	sbiw	r28, 0x11	; 17
    16b4:	0f b6       	in	r0, 0x3f	; 63
    16b6:	f8 94       	cli
    16b8:	de bf       	out	0x3e, r29	; 62
    16ba:	0f be       	out	0x3f, r0	; 63
    16bc:	cd bf       	out	0x3d, r28	; 61
    16be:	86 e0       	ldi	r24, 0x06	; 6
    16c0:	ec e1       	ldi	r30, 0x1C	; 28
    16c2:	f1 e0       	ldi	r31, 0x01	; 1
    16c4:	de 01       	movw	r26, r28
    16c6:	11 96       	adiw	r26, 0x01	; 1
    16c8:	01 90       	ld	r0, Z+
    16ca:	0d 92       	st	X+, r0
    16cc:	8a 95       	dec	r24
    16ce:	e1 f7       	brne	.-8      	; 0x16c8 <venda_avista+0x28>
    16d0:	86 e0       	ldi	r24, 0x06	; 6
    16d2:	ec e1       	ldi	r30, 0x1C	; 28
    16d4:	f1 e0       	ldi	r31, 0x01	; 1
    16d6:	de 01       	movw	r26, r28
    16d8:	17 96       	adiw	r26, 0x07	; 7
    16da:	01 90       	ld	r0, Z+
    16dc:	0d 92       	st	X+, r0
    16de:	8a 95       	dec	r24
    16e0:	e1 f7       	brne	.-8      	; 0x16da <venda_avista+0x3a>
    16e2:	85 e0       	ldi	r24, 0x05	; 5
    16e4:	e2 e2       	ldi	r30, 0x22	; 34
    16e6:	f1 e0       	ldi	r31, 0x01	; 1
    16e8:	de 01       	movw	r26, r28
    16ea:	1d 96       	adiw	r26, 0x0d	; 13
    16ec:	01 90       	ld	r0, Z+
    16ee:	0d 92       	st	X+, r0
    16f0:	8a 95       	dec	r24
    16f2:	e1 f7       	brne	.-8      	; 0x16ec <venda_avista+0x4c>
    16f4:	0e 94 e0 06 	call	0xdc0	; 0xdc0 <tela_vendaAvista>
    16f8:	ce 01       	movw	r24, r28
    16fa:	0d 96       	adiw	r24, 0x0d	; 13
    16fc:	0e 94 75 04 	call	0x8ea	; 0x8ea <recebe_valor>
    1700:	ce 01       	movw	r24, r28
    1702:	0d 96       	adiw	r24, 0x0d	; 13
    1704:	0e 94 e4 02 	call	0x5c8	; 0x5c8 <formata_valor>
    1708:	0e 94 09 06 	call	0xc12	; 0xc12 <metodo_pagamento>
    170c:	d8 2e       	mov	r13, r24
    170e:	0e 94 23 06 	call	0xc46	; 0xc46 <aguarda_cartao>
    1712:	bc 01       	movw	r22, r24
    1714:	77 27       	eor	r23, r23
    1716:	ce 01       	movw	r24, r28
    1718:	07 96       	adiw	r24, 0x07	; 7
    171a:	7c 01       	movw	r14, r24
    171c:	8e 01       	movw	r16, r28
    171e:	0f 5f       	subi	r16, 0xFF	; 255
    1720:	1f 4f       	sbci	r17, 0xFF	; 255
    1722:	9e 01       	movw	r18, r28
    1724:	23 5f       	subi	r18, 0xF3	; 243
    1726:	3f 4f       	sbci	r19, 0xFF	; 255
    1728:	4d 2d       	mov	r20, r13
    172a:	81 e0       	ldi	r24, 0x01	; 1
    172c:	90 e0       	ldi	r25, 0x00	; 0
    172e:	0e 94 4a 0a 	call	0x1494	; 0x1494 <processa_pagamento>
    1732:	61 96       	adiw	r28, 0x11	; 17
    1734:	0f b6       	in	r0, 0x3f	; 63
    1736:	f8 94       	cli
    1738:	de bf       	out	0x3e, r29	; 62
    173a:	0f be       	out	0x3f, r0	; 63
    173c:	cd bf       	out	0x3d, r28	; 61
    173e:	df 91       	pop	r29
    1740:	cf 91       	pop	r28
    1742:	1f 91       	pop	r17
    1744:	0f 91       	pop	r16
    1746:	ff 90       	pop	r15
    1748:	ef 90       	pop	r14
    174a:	df 90       	pop	r13
    174c:	08 95       	ret

0000174e <processa_venda>:
    174e:	81 33       	cpi	r24, 0x31	; 49
    1750:	91 05       	cpc	r25, r1
    1752:	19 f4       	brne	.+6      	; 0x175a <processa_venda+0xc>
    1754:	0e 94 50 0b 	call	0x16a0	; 0x16a0 <venda_avista>
    1758:	08 95       	ret
    175a:	82 33       	cpi	r24, 0x32	; 50
    175c:	91 05       	cpc	r25, r1
    175e:	19 f4       	brne	.+6      	; 0x1766 <processa_venda+0x18>
    1760:	0e 94 f4 0a 	call	0x15e8	; 0x15e8 <venda_parcelada>
    1764:	08 95       	ret
    1766:	c3 97       	sbiw	r24, 0x33	; 51
    1768:	11 f4       	brne	.+4      	; 0x176e <processa_venda+0x20>
    176a:	0e 94 c6 09 	call	0x138c	; 0x138c <estorno>
    176e:	08 95       	ret

00001770 <menuADM>:
    1770:	2f ef       	ldi	r18, 0xFF	; 255
    1772:	8e e9       	ldi	r24, 0x9E	; 158
    1774:	94 e2       	ldi	r25, 0x24	; 36
    1776:	21 50       	subi	r18, 0x01	; 1
    1778:	80 40       	sbci	r24, 0x00	; 0
    177a:	90 40       	sbci	r25, 0x00	; 0
    177c:	e1 f7       	brne	.-8      	; 0x1776 <menuADM+0x6>
    177e:	00 c0       	rjmp	.+0      	; 0x1780 <menuADM+0x10>
    1780:	00 00       	nop
    1782:	83 e0       	ldi	r24, 0x03	; 3
    1784:	0e 94 5f 04 	call	0x8be	; 0x8be <writeInstruction>
    1788:	89 e1       	ldi	r24, 0x19	; 25
    178a:	93 e0       	ldi	r25, 0x03	; 3
    178c:	0e 94 36 04 	call	0x86c	; 0x86c <writeString>
    1790:	80 ec       	ldi	r24, 0xC0	; 192
    1792:	0e 94 5f 04 	call	0x8be	; 0x8be <writeInstruction>
    1796:	89 e2       	ldi	r24, 0x29	; 41
    1798:	93 e0       	ldi	r25, 0x03	; 3
    179a:	0e 94 36 04 	call	0x86c	; 0x86c <writeString>
    179e:	2f ef       	ldi	r18, 0xFF	; 255
    17a0:	8d e3       	ldi	r24, 0x3D	; 61
    17a2:	99 e4       	ldi	r25, 0x49	; 73
    17a4:	21 50       	subi	r18, 0x01	; 1
    17a6:	80 40       	sbci	r24, 0x00	; 0
    17a8:	90 40       	sbci	r25, 0x00	; 0
    17aa:	e1 f7       	brne	.-8      	; 0x17a4 <menuADM+0x34>
    17ac:	00 c0       	rjmp	.+0      	; 0x17ae <menuADM+0x3e>
    17ae:	00 00       	nop
    17b0:	81 e0       	ldi	r24, 0x01	; 1
    17b2:	0e 94 5f 04 	call	0x8be	; 0x8be <writeInstruction>
    17b6:	80 e8       	ldi	r24, 0x80	; 128
    17b8:	0e 94 5f 04 	call	0x8be	; 0x8be <writeInstruction>
    17bc:	8a e3       	ldi	r24, 0x3A	; 58
    17be:	93 e0       	ldi	r25, 0x03	; 3
    17c0:	0e 94 36 04 	call	0x86c	; 0x86c <writeString>
    17c4:	80 ec       	ldi	r24, 0xC0	; 192
    17c6:	0e 94 5f 04 	call	0x8be	; 0x8be <writeInstruction>
    17ca:	8b e4       	ldi	r24, 0x4B	; 75
    17cc:	93 e0       	ldi	r25, 0x03	; 3
    17ce:	0e 94 36 04 	call	0x86c	; 0x86c <writeString>
    17d2:	08 95       	ret

000017d4 <tela_instrucoes_configOper>:
    17d4:	81 e0       	ldi	r24, 0x01	; 1
    17d6:	0e 94 5f 04 	call	0x8be	; 0x8be <writeInstruction>
    17da:	80 e8       	ldi	r24, 0x80	; 128
    17dc:	0e 94 5f 04 	call	0x8be	; 0x8be <writeInstruction>
    17e0:	8c e5       	ldi	r24, 0x5C	; 92
    17e2:	93 e0       	ldi	r25, 0x03	; 3
    17e4:	0e 94 36 04 	call	0x86c	; 0x86c <writeString>
    17e8:	80 ec       	ldi	r24, 0xC0	; 192
    17ea:	0e 94 5f 04 	call	0x8be	; 0x8be <writeInstruction>
    17ee:	8d e6       	ldi	r24, 0x6D	; 109
    17f0:	93 e0       	ldi	r25, 0x03	; 3
    17f2:	0e 94 36 04 	call	0x86c	; 0x86c <writeString>
    17f6:	2f ef       	ldi	r18, 0xFF	; 255
    17f8:	8d e3       	ldi	r24, 0x3D	; 61
    17fa:	99 e4       	ldi	r25, 0x49	; 73
    17fc:	21 50       	subi	r18, 0x01	; 1
    17fe:	80 40       	sbci	r24, 0x00	; 0
    1800:	90 40       	sbci	r25, 0x00	; 0
    1802:	e1 f7       	brne	.-8      	; 0x17fc <tela_instrucoes_configOper+0x28>
    1804:	00 c0       	rjmp	.+0      	; 0x1806 <tela_instrucoes_configOper+0x32>
    1806:	00 00       	nop
    1808:	08 95       	ret

0000180a <tela_continuar_modo_atual>:
    180a:	81 e0       	ldi	r24, 0x01	; 1
    180c:	0e 94 5f 04 	call	0x8be	; 0x8be <writeInstruction>
    1810:	80 e8       	ldi	r24, 0x80	; 128
    1812:	0e 94 5f 04 	call	0x8be	; 0x8be <writeInstruction>
    1816:	8c e7       	ldi	r24, 0x7C	; 124
    1818:	93 e0       	ldi	r25, 0x03	; 3
    181a:	0e 94 36 04 	call	0x86c	; 0x86c <writeString>
    181e:	80 ec       	ldi	r24, 0xC0	; 192
    1820:	0e 94 5f 04 	call	0x8be	; 0x8be <writeInstruction>
    1824:	8c e8       	ldi	r24, 0x8C	; 140
    1826:	93 e0       	ldi	r25, 0x03	; 3
    1828:	0e 94 36 04 	call	0x86c	; 0x86c <writeString>
    182c:	08 95       	ret

0000182e <continuar_modo_atual>:
    182e:	cf 93       	push	r28
    1830:	df 93       	push	r29
    1832:	ec 01       	movw	r28, r24
    1834:	0e 94 05 0c 	call	0x180a	; 0x180a <tela_continuar_modo_atual>
    1838:	89 e1       	ldi	r24, 0x19	; 25
    183a:	88 83       	st	Y, r24
    183c:	03 c0       	rjmp	.+6      	; 0x1844 <continuar_modo_atual+0x16>
    183e:	0e 94 6c 03 	call	0x6d8	; 0x6d8 <teclaDebouce>
    1842:	88 83       	st	Y, r24
    1844:	98 81       	ld	r25, Y
    1846:	9b 30       	cpi	r25, 0x0B	; 11
    1848:	11 f0       	breq	.+4      	; 0x184e <continuar_modo_atual+0x20>
    184a:	99 30       	cpi	r25, 0x09	; 9
    184c:	c1 f7       	brne	.-16     	; 0x183e <continuar_modo_atual+0x10>
    184e:	81 e0       	ldi	r24, 0x01	; 1
    1850:	9b 30       	cpi	r25, 0x0B	; 11
    1852:	09 f4       	brne	.+2      	; 0x1856 <continuar_modo_atual+0x28>
    1854:	80 e0       	ldi	r24, 0x00	; 0
    1856:	df 91       	pop	r29
    1858:	cf 91       	pop	r28
    185a:	08 95       	ret

0000185c <tela_instrucoes_configDiaMesAno>:
    185c:	81 e0       	ldi	r24, 0x01	; 1
    185e:	0e 94 5f 04 	call	0x8be	; 0x8be <writeInstruction>
    1862:	80 e8       	ldi	r24, 0x80	; 128
    1864:	0e 94 5f 04 	call	0x8be	; 0x8be <writeInstruction>
    1868:	8b e9       	ldi	r24, 0x9B	; 155
    186a:	93 e0       	ldi	r25, 0x03	; 3
    186c:	0e 94 36 04 	call	0x86c	; 0x86c <writeString>
    1870:	80 ec       	ldi	r24, 0xC0	; 192
    1872:	0e 94 5f 04 	call	0x8be	; 0x8be <writeInstruction>
    1876:	85 ea       	ldi	r24, 0xA5	; 165
    1878:	93 e0       	ldi	r25, 0x03	; 3
    187a:	0e 94 36 04 	call	0x86c	; 0x86c <writeString>
    187e:	2f ef       	ldi	r18, 0xFF	; 255
    1880:	8d e3       	ldi	r24, 0x3D	; 61
    1882:	99 e4       	ldi	r25, 0x49	; 73
    1884:	21 50       	subi	r18, 0x01	; 1
    1886:	80 40       	sbci	r24, 0x00	; 0
    1888:	90 40       	sbci	r25, 0x00	; 0
    188a:	e1 f7       	brne	.-8      	; 0x1884 <tela_instrucoes_configDiaMesAno+0x28>
    188c:	00 c0       	rjmp	.+0      	; 0x188e <tela_instrucoes_configDiaMesAno+0x32>
    188e:	00 00       	nop
    1890:	81 e0       	ldi	r24, 0x01	; 1
    1892:	0e 94 5f 04 	call	0x8be	; 0x8be <writeInstruction>
    1896:	80 e8       	ldi	r24, 0x80	; 128
    1898:	0e 94 5f 04 	call	0x8be	; 0x8be <writeInstruction>
    189c:	82 eb       	ldi	r24, 0xB2	; 178
    189e:	93 e0       	ldi	r25, 0x03	; 3
    18a0:	0e 94 36 04 	call	0x86c	; 0x86c <writeString>
    18a4:	80 ec       	ldi	r24, 0xC0	; 192
    18a6:	0e 94 5f 04 	call	0x8be	; 0x8be <writeInstruction>
    18aa:	80 ec       	ldi	r24, 0xC0	; 192
    18ac:	93 e0       	ldi	r25, 0x03	; 3
    18ae:	0e 94 36 04 	call	0x86c	; 0x86c <writeString>
    18b2:	08 95       	ret

000018b4 <tela_instrucoes_configHoraMinSeg>:
    18b4:	81 e0       	ldi	r24, 0x01	; 1
    18b6:	0e 94 5f 04 	call	0x8be	; 0x8be <writeInstruction>
    18ba:	80 e8       	ldi	r24, 0x80	; 128
    18bc:	0e 94 5f 04 	call	0x8be	; 0x8be <writeInstruction>
    18c0:	8b e9       	ldi	r24, 0x9B	; 155
    18c2:	93 e0       	ldi	r25, 0x03	; 3
    18c4:	0e 94 36 04 	call	0x86c	; 0x86c <writeString>
    18c8:	80 ec       	ldi	r24, 0xC0	; 192
    18ca:	0e 94 5f 04 	call	0x8be	; 0x8be <writeInstruction>
    18ce:	87 ec       	ldi	r24, 0xC7	; 199
    18d0:	93 e0       	ldi	r25, 0x03	; 3
    18d2:	0e 94 36 04 	call	0x86c	; 0x86c <writeString>
    18d6:	2f ef       	ldi	r18, 0xFF	; 255
    18d8:	8d e3       	ldi	r24, 0x3D	; 61
    18da:	99 e4       	ldi	r25, 0x49	; 73
    18dc:	21 50       	subi	r18, 0x01	; 1
    18de:	80 40       	sbci	r24, 0x00	; 0
    18e0:	90 40       	sbci	r25, 0x00	; 0
    18e2:	e1 f7       	brne	.-8      	; 0x18dc <tela_instrucoes_configHoraMinSeg+0x28>
    18e4:	00 c0       	rjmp	.+0      	; 0x18e6 <tela_instrucoes_configHoraMinSeg+0x32>
    18e6:	00 00       	nop
    18e8:	81 e0       	ldi	r24, 0x01	; 1
    18ea:	0e 94 5f 04 	call	0x8be	; 0x8be <writeInstruction>
    18ee:	80 e8       	ldi	r24, 0x80	; 128
    18f0:	0e 94 5f 04 	call	0x8be	; 0x8be <writeInstruction>
    18f4:	82 eb       	ldi	r24, 0xB2	; 178
    18f6:	93 e0       	ldi	r25, 0x03	; 3
    18f8:	0e 94 36 04 	call	0x86c	; 0x86c <writeString>
    18fc:	80 ec       	ldi	r24, 0xC0	; 192
    18fe:	0e 94 5f 04 	call	0x8be	; 0x8be <writeInstruction>
    1902:	84 ed       	ldi	r24, 0xD4	; 212
    1904:	93 e0       	ldi	r25, 0x03	; 3
    1906:	0e 94 36 04 	call	0x86c	; 0x86c <writeString>
    190a:	08 95       	ret

0000190c <tela_operacaoConcluida>:
    190c:	81 e0       	ldi	r24, 0x01	; 1
    190e:	0e 94 5f 04 	call	0x8be	; 0x8be <writeInstruction>
    1912:	80 e8       	ldi	r24, 0x80	; 128
    1914:	0e 94 5f 04 	call	0x8be	; 0x8be <writeInstruction>
    1918:	8b ed       	ldi	r24, 0xDB	; 219
    191a:	93 e0       	ldi	r25, 0x03	; 3
    191c:	0e 94 36 04 	call	0x86c	; 0x86c <writeString>
    1920:	80 ec       	ldi	r24, 0xC0	; 192
    1922:	0e 94 5f 04 	call	0x8be	; 0x8be <writeInstruction>
    1926:	84 ee       	ldi	r24, 0xE4	; 228
    1928:	93 e0       	ldi	r25, 0x03	; 3
    192a:	0e 94 36 04 	call	0x86c	; 0x86c <writeString>
    192e:	2f ef       	ldi	r18, 0xFF	; 255
    1930:	83 ed       	ldi	r24, 0xD3	; 211
    1932:	90 e3       	ldi	r25, 0x30	; 48
    1934:	21 50       	subi	r18, 0x01	; 1
    1936:	80 40       	sbci	r24, 0x00	; 0
    1938:	90 40       	sbci	r25, 0x00	; 0
    193a:	e1 f7       	brne	.-8      	; 0x1934 <tela_operacaoConcluida+0x28>
    193c:	00 c0       	rjmp	.+0      	; 0x193e <tela_operacaoConcluida+0x32>
    193e:	00 00       	nop
    1940:	08 95       	ret

00001942 <tela_dataInvalida>:
    1942:	81 e0       	ldi	r24, 0x01	; 1
    1944:	0e 94 5f 04 	call	0x8be	; 0x8be <writeInstruction>
    1948:	80 e8       	ldi	r24, 0x80	; 128
    194a:	0e 94 5f 04 	call	0x8be	; 0x8be <writeInstruction>
    194e:	8f ee       	ldi	r24, 0xEF	; 239
    1950:	93 e0       	ldi	r25, 0x03	; 3
    1952:	0e 94 36 04 	call	0x86c	; 0x86c <writeString>
    1956:	80 ec       	ldi	r24, 0xC0	; 192
    1958:	0e 94 5f 04 	call	0x8be	; 0x8be <writeInstruction>
    195c:	8e ef       	ldi	r24, 0xFE	; 254
    195e:	93 e0       	ldi	r25, 0x03	; 3
    1960:	0e 94 36 04 	call	0x86c	; 0x86c <writeString>
    1964:	2f ef       	ldi	r18, 0xFF	; 255
    1966:	83 ed       	ldi	r24, 0xD3	; 211
    1968:	90 e3       	ldi	r25, 0x30	; 48
    196a:	21 50       	subi	r18, 0x01	; 1
    196c:	80 40       	sbci	r24, 0x00	; 0
    196e:	90 40       	sbci	r25, 0x00	; 0
    1970:	e1 f7       	brne	.-8      	; 0x196a <tela_dataInvalida+0x28>
    1972:	00 c0       	rjmp	.+0      	; 0x1974 <tela_dataInvalida+0x32>
    1974:	00 00       	nop
    1976:	08 95       	ret

00001978 <mudarStatusOper>:
    1978:	fc 01       	movw	r30, r24
    197a:	80 81       	ld	r24, Z
    197c:	90 e0       	ldi	r25, 0x00	; 0
    197e:	fc 01       	movw	r30, r24
    1980:	e0 50       	subi	r30, 0x00	; 0
    1982:	ff 4f       	sbci	r31, 0xFF	; 255
    1984:	20 81       	ld	r18, Z
    1986:	21 30       	cpi	r18, 0x01	; 1
    1988:	29 f4       	brne	.+10     	; 0x1994 <mudarStatusOper+0x1c>
    198a:	fc 01       	movw	r30, r24
    198c:	e0 50       	subi	r30, 0x00	; 0
    198e:	ff 4f       	sbci	r31, 0xFF	; 255
    1990:	10 82       	st	Z, r1
    1992:	05 c0       	rjmp	.+10     	; 0x199e <mudarStatusOper+0x26>
    1994:	fc 01       	movw	r30, r24
    1996:	e0 50       	subi	r30, 0x00	; 0
    1998:	ff 4f       	sbci	r31, 0xFF	; 255
    199a:	21 e0       	ldi	r18, 0x01	; 1
    199c:	20 83       	st	Z, r18
    199e:	0e 94 86 0c 	call	0x190c	; 0x190c <tela_operacaoConcluida>
    19a2:	08 95       	ret

000019a4 <tela_status_oper>:
    19a4:	83 e0       	ldi	r24, 0x03	; 3
    19a6:	0e 94 5f 04 	call	0x8be	; 0x8be <writeInstruction>
    19aa:	8e e0       	ldi	r24, 0x0E	; 14
    19ac:	94 e0       	ldi	r25, 0x04	; 4
    19ae:	0e 94 36 04 	call	0x86c	; 0x86c <writeString>
    19b2:	80 91 00 01 	lds	r24, 0x0100	; 0x800100 <__DATA_REGION_ORIGIN__>
    19b6:	81 30       	cpi	r24, 0x01	; 1
    19b8:	29 f4       	brne	.+10     	; 0x19c4 <tela_status_oper+0x20>
    19ba:	85 e1       	ldi	r24, 0x15	; 21
    19bc:	94 e0       	ldi	r25, 0x04	; 4
    19be:	0e 94 36 04 	call	0x86c	; 0x86c <writeString>
    19c2:	04 c0       	rjmp	.+8      	; 0x19cc <tela_status_oper+0x28>
    19c4:	80 e2       	ldi	r24, 0x20	; 32
    19c6:	94 e0       	ldi	r25, 0x04	; 4
    19c8:	0e 94 36 04 	call	0x86c	; 0x86c <writeString>
    19cc:	80 ec       	ldi	r24, 0xC0	; 192
    19ce:	0e 94 5f 04 	call	0x8be	; 0x8be <writeInstruction>
    19d2:	8b e2       	ldi	r24, 0x2B	; 43
    19d4:	94 e0       	ldi	r25, 0x04	; 4
    19d6:	0e 94 36 04 	call	0x86c	; 0x86c <writeString>
    19da:	80 91 01 01 	lds	r24, 0x0101	; 0x800101 <__DATA_REGION_ORIGIN__+0x1>
    19de:	81 30       	cpi	r24, 0x01	; 1
    19e0:	29 f4       	brne	.+10     	; 0x19ec <tela_status_oper+0x48>
    19e2:	82 e3       	ldi	r24, 0x32	; 50
    19e4:	94 e0       	ldi	r25, 0x04	; 4
    19e6:	0e 94 36 04 	call	0x86c	; 0x86c <writeString>
    19ea:	08 95       	ret
    19ec:	8d e3       	ldi	r24, 0x3D	; 61
    19ee:	94 e0       	ldi	r25, 0x04	; 4
    19f0:	0e 94 36 04 	call	0x86c	; 0x86c <writeString>
    19f4:	08 95       	ret

000019f6 <getDiaMesAno>:
    19f6:	af 92       	push	r10
    19f8:	bf 92       	push	r11
    19fa:	cf 92       	push	r12
    19fc:	df 92       	push	r13
    19fe:	ef 92       	push	r14
    1a00:	ff 92       	push	r15
    1a02:	0f 93       	push	r16
    1a04:	1f 93       	push	r17
    1a06:	cf 93       	push	r28
    1a08:	5c 01       	movw	r10, r24
    1a0a:	6b 01       	movw	r12, r22
    1a0c:	8a 01       	movw	r16, r20
    1a0e:	e1 2c       	mov	r14, r1
    1a10:	f1 2c       	mov	r15, r1
    1a12:	17 c0       	rjmp	.+46     	; 0x1a42 <getDiaMesAno+0x4c>
    1a14:	0e 94 6c 03 	call	0x6d8	; 0x6d8 <teclaDebouce>
    1a18:	89 31       	cpi	r24, 0x19	; 25
    1a1a:	99 f0       	breq	.+38     	; 0x1a42 <getDiaMesAno+0x4c>
    1a1c:	89 30       	cpi	r24, 0x09	; 9
    1a1e:	89 f0       	breq	.+34     	; 0x1a42 <getDiaMesAno+0x4c>
    1a20:	8b 30       	cpi	r24, 0x0B	; 11
    1a22:	79 f0       	breq	.+30     	; 0x1a42 <getDiaMesAno+0x4c>
    1a24:	8a 30       	cpi	r24, 0x0A	; 10
    1a26:	09 f4       	brne	.+2      	; 0x1a2a <getDiaMesAno+0x34>
    1a28:	8f ef       	ldi	r24, 0xFF	; 255
    1a2a:	c1 e3       	ldi	r28, 0x31	; 49
    1a2c:	c8 0f       	add	r28, r24
    1a2e:	8c 2f       	mov	r24, r28
    1a30:	0e 94 24 04 	call	0x848	; 0x848 <writeCharacter>
    1a34:	f5 01       	movw	r30, r10
    1a36:	ee 0d       	add	r30, r14
    1a38:	ff 1d       	adc	r31, r15
    1a3a:	c0 83       	st	Z, r28
    1a3c:	2f ef       	ldi	r18, 0xFF	; 255
    1a3e:	e2 1a       	sub	r14, r18
    1a40:	f2 0a       	sbc	r15, r18
    1a42:	82 e0       	ldi	r24, 0x02	; 2
    1a44:	e8 16       	cp	r14, r24
    1a46:	f1 04       	cpc	r15, r1
    1a48:	2c f3       	brlt	.-54     	; 0x1a14 <getDiaMesAno+0x1e>
    1a4a:	88 e4       	ldi	r24, 0x48	; 72
    1a4c:	94 e0       	ldi	r25, 0x04	; 4
    1a4e:	0e 94 36 04 	call	0x86c	; 0x86c <writeString>
    1a52:	e1 2c       	mov	r14, r1
    1a54:	f1 2c       	mov	r15, r1
    1a56:	17 c0       	rjmp	.+46     	; 0x1a86 <getDiaMesAno+0x90>
    1a58:	0e 94 6c 03 	call	0x6d8	; 0x6d8 <teclaDebouce>
    1a5c:	89 31       	cpi	r24, 0x19	; 25
    1a5e:	99 f0       	breq	.+38     	; 0x1a86 <getDiaMesAno+0x90>
    1a60:	89 30       	cpi	r24, 0x09	; 9
    1a62:	89 f0       	breq	.+34     	; 0x1a86 <getDiaMesAno+0x90>
    1a64:	8b 30       	cpi	r24, 0x0B	; 11
    1a66:	79 f0       	breq	.+30     	; 0x1a86 <getDiaMesAno+0x90>
    1a68:	8a 30       	cpi	r24, 0x0A	; 10
    1a6a:	09 f4       	brne	.+2      	; 0x1a6e <getDiaMesAno+0x78>
    1a6c:	8f ef       	ldi	r24, 0xFF	; 255
    1a6e:	c1 e3       	ldi	r28, 0x31	; 49
    1a70:	c8 0f       	add	r28, r24
    1a72:	8c 2f       	mov	r24, r28
    1a74:	0e 94 24 04 	call	0x848	; 0x848 <writeCharacter>
    1a78:	f6 01       	movw	r30, r12
    1a7a:	ee 0d       	add	r30, r14
    1a7c:	ff 1d       	adc	r31, r15
    1a7e:	c0 83       	st	Z, r28
    1a80:	9f ef       	ldi	r25, 0xFF	; 255
    1a82:	e9 1a       	sub	r14, r25
    1a84:	f9 0a       	sbc	r15, r25
    1a86:	22 e0       	ldi	r18, 0x02	; 2
    1a88:	e2 16       	cp	r14, r18
    1a8a:	f1 04       	cpc	r15, r1
    1a8c:	2c f3       	brlt	.-54     	; 0x1a58 <getDiaMesAno+0x62>
    1a8e:	88 e4       	ldi	r24, 0x48	; 72
    1a90:	94 e0       	ldi	r25, 0x04	; 4
    1a92:	0e 94 36 04 	call	0x86c	; 0x86c <writeString>
    1a96:	e1 2c       	mov	r14, r1
    1a98:	f1 2c       	mov	r15, r1
    1a9a:	17 c0       	rjmp	.+46     	; 0x1aca <getDiaMesAno+0xd4>
    1a9c:	0e 94 6c 03 	call	0x6d8	; 0x6d8 <teclaDebouce>
    1aa0:	89 31       	cpi	r24, 0x19	; 25
    1aa2:	99 f0       	breq	.+38     	; 0x1aca <getDiaMesAno+0xd4>
    1aa4:	89 30       	cpi	r24, 0x09	; 9
    1aa6:	89 f0       	breq	.+34     	; 0x1aca <getDiaMesAno+0xd4>
    1aa8:	8b 30       	cpi	r24, 0x0B	; 11
    1aaa:	79 f0       	breq	.+30     	; 0x1aca <getDiaMesAno+0xd4>
    1aac:	8a 30       	cpi	r24, 0x0A	; 10
    1aae:	09 f4       	brne	.+2      	; 0x1ab2 <getDiaMesAno+0xbc>
    1ab0:	8f ef       	ldi	r24, 0xFF	; 255
    1ab2:	c1 e3       	ldi	r28, 0x31	; 49
    1ab4:	c8 0f       	add	r28, r24
    1ab6:	8c 2f       	mov	r24, r28
    1ab8:	0e 94 24 04 	call	0x848	; 0x848 <writeCharacter>
    1abc:	f8 01       	movw	r30, r16
    1abe:	ee 0d       	add	r30, r14
    1ac0:	ff 1d       	adc	r31, r15
    1ac2:	c0 83       	st	Z, r28
    1ac4:	8f ef       	ldi	r24, 0xFF	; 255
    1ac6:	e8 1a       	sub	r14, r24
    1ac8:	f8 0a       	sbc	r15, r24
    1aca:	92 e0       	ldi	r25, 0x02	; 2
    1acc:	e9 16       	cp	r14, r25
    1ace:	f1 04       	cpc	r15, r1
    1ad0:	2c f3       	brlt	.-54     	; 0x1a9c <getDiaMesAno+0xa6>
    1ad2:	2f ef       	ldi	r18, 0xFF	; 255
    1ad4:	8e e9       	ldi	r24, 0x9E	; 158
    1ad6:	94 e2       	ldi	r25, 0x24	; 36
    1ad8:	21 50       	subi	r18, 0x01	; 1
    1ada:	80 40       	sbci	r24, 0x00	; 0
    1adc:	90 40       	sbci	r25, 0x00	; 0
    1ade:	e1 f7       	brne	.-8      	; 0x1ad8 <getDiaMesAno+0xe2>
    1ae0:	00 c0       	rjmp	.+0      	; 0x1ae2 <getDiaMesAno+0xec>
    1ae2:	00 00       	nop
    1ae4:	cf 91       	pop	r28
    1ae6:	1f 91       	pop	r17
    1ae8:	0f 91       	pop	r16
    1aea:	ff 90       	pop	r15
    1aec:	ef 90       	pop	r14
    1aee:	df 90       	pop	r13
    1af0:	cf 90       	pop	r12
    1af2:	bf 90       	pop	r11
    1af4:	af 90       	pop	r10
    1af6:	08 95       	ret

00001af8 <getHoraMinSeg>:
    1af8:	af 92       	push	r10
    1afa:	bf 92       	push	r11
    1afc:	cf 92       	push	r12
    1afe:	df 92       	push	r13
    1b00:	ef 92       	push	r14
    1b02:	ff 92       	push	r15
    1b04:	0f 93       	push	r16
    1b06:	1f 93       	push	r17
    1b08:	cf 93       	push	r28
    1b0a:	5c 01       	movw	r10, r24
    1b0c:	6b 01       	movw	r12, r22
    1b0e:	8a 01       	movw	r16, r20
    1b10:	e1 2c       	mov	r14, r1
    1b12:	f1 2c       	mov	r15, r1
    1b14:	17 c0       	rjmp	.+46     	; 0x1b44 <getHoraMinSeg+0x4c>
    1b16:	0e 94 6c 03 	call	0x6d8	; 0x6d8 <teclaDebouce>
    1b1a:	89 31       	cpi	r24, 0x19	; 25
    1b1c:	99 f0       	breq	.+38     	; 0x1b44 <getHoraMinSeg+0x4c>
    1b1e:	89 30       	cpi	r24, 0x09	; 9
    1b20:	89 f0       	breq	.+34     	; 0x1b44 <getHoraMinSeg+0x4c>
    1b22:	8b 30       	cpi	r24, 0x0B	; 11
    1b24:	79 f0       	breq	.+30     	; 0x1b44 <getHoraMinSeg+0x4c>
    1b26:	8a 30       	cpi	r24, 0x0A	; 10
    1b28:	09 f4       	brne	.+2      	; 0x1b2c <getHoraMinSeg+0x34>
    1b2a:	8f ef       	ldi	r24, 0xFF	; 255
    1b2c:	c1 e3       	ldi	r28, 0x31	; 49
    1b2e:	c8 0f       	add	r28, r24
    1b30:	8c 2f       	mov	r24, r28
    1b32:	0e 94 24 04 	call	0x848	; 0x848 <writeCharacter>
    1b36:	f5 01       	movw	r30, r10
    1b38:	ee 0d       	add	r30, r14
    1b3a:	ff 1d       	adc	r31, r15
    1b3c:	c0 83       	st	Z, r28
    1b3e:	2f ef       	ldi	r18, 0xFF	; 255
    1b40:	e2 1a       	sub	r14, r18
    1b42:	f2 0a       	sbc	r15, r18
    1b44:	82 e0       	ldi	r24, 0x02	; 2
    1b46:	e8 16       	cp	r14, r24
    1b48:	f1 04       	cpc	r15, r1
    1b4a:	2c f3       	brlt	.-54     	; 0x1b16 <getHoraMinSeg+0x1e>
    1b4c:	8e e6       	ldi	r24, 0x6E	; 110
    1b4e:	92 e0       	ldi	r25, 0x02	; 2
    1b50:	0e 94 36 04 	call	0x86c	; 0x86c <writeString>
    1b54:	e1 2c       	mov	r14, r1
    1b56:	f1 2c       	mov	r15, r1
    1b58:	17 c0       	rjmp	.+46     	; 0x1b88 <getHoraMinSeg+0x90>
    1b5a:	0e 94 6c 03 	call	0x6d8	; 0x6d8 <teclaDebouce>
    1b5e:	89 31       	cpi	r24, 0x19	; 25
    1b60:	99 f0       	breq	.+38     	; 0x1b88 <getHoraMinSeg+0x90>
    1b62:	89 30       	cpi	r24, 0x09	; 9
    1b64:	89 f0       	breq	.+34     	; 0x1b88 <getHoraMinSeg+0x90>
    1b66:	8b 30       	cpi	r24, 0x0B	; 11
    1b68:	79 f0       	breq	.+30     	; 0x1b88 <getHoraMinSeg+0x90>
    1b6a:	8a 30       	cpi	r24, 0x0A	; 10
    1b6c:	09 f4       	brne	.+2      	; 0x1b70 <getHoraMinSeg+0x78>
    1b6e:	8f ef       	ldi	r24, 0xFF	; 255
    1b70:	c1 e3       	ldi	r28, 0x31	; 49
    1b72:	c8 0f       	add	r28, r24
    1b74:	8c 2f       	mov	r24, r28
    1b76:	0e 94 24 04 	call	0x848	; 0x848 <writeCharacter>
    1b7a:	f6 01       	movw	r30, r12
    1b7c:	ee 0d       	add	r30, r14
    1b7e:	ff 1d       	adc	r31, r15
    1b80:	c0 83       	st	Z, r28
    1b82:	9f ef       	ldi	r25, 0xFF	; 255
    1b84:	e9 1a       	sub	r14, r25
    1b86:	f9 0a       	sbc	r15, r25
    1b88:	22 e0       	ldi	r18, 0x02	; 2
    1b8a:	e2 16       	cp	r14, r18
    1b8c:	f1 04       	cpc	r15, r1
    1b8e:	2c f3       	brlt	.-54     	; 0x1b5a <getHoraMinSeg+0x62>
    1b90:	8e e6       	ldi	r24, 0x6E	; 110
    1b92:	92 e0       	ldi	r25, 0x02	; 2
    1b94:	0e 94 36 04 	call	0x86c	; 0x86c <writeString>
    1b98:	e1 2c       	mov	r14, r1
    1b9a:	f1 2c       	mov	r15, r1
    1b9c:	17 c0       	rjmp	.+46     	; 0x1bcc <getHoraMinSeg+0xd4>
    1b9e:	0e 94 6c 03 	call	0x6d8	; 0x6d8 <teclaDebouce>
    1ba2:	89 31       	cpi	r24, 0x19	; 25
    1ba4:	99 f0       	breq	.+38     	; 0x1bcc <getHoraMinSeg+0xd4>
    1ba6:	89 30       	cpi	r24, 0x09	; 9
    1ba8:	89 f0       	breq	.+34     	; 0x1bcc <getHoraMinSeg+0xd4>
    1baa:	8b 30       	cpi	r24, 0x0B	; 11
    1bac:	79 f0       	breq	.+30     	; 0x1bcc <getHoraMinSeg+0xd4>
    1bae:	8a 30       	cpi	r24, 0x0A	; 10
    1bb0:	09 f4       	brne	.+2      	; 0x1bb4 <getHoraMinSeg+0xbc>
    1bb2:	8f ef       	ldi	r24, 0xFF	; 255
    1bb4:	c1 e3       	ldi	r28, 0x31	; 49
    1bb6:	c8 0f       	add	r28, r24
    1bb8:	8c 2f       	mov	r24, r28
    1bba:	0e 94 24 04 	call	0x848	; 0x848 <writeCharacter>
    1bbe:	f8 01       	movw	r30, r16
    1bc0:	ee 0d       	add	r30, r14
    1bc2:	ff 1d       	adc	r31, r15
    1bc4:	c0 83       	st	Z, r28
    1bc6:	8f ef       	ldi	r24, 0xFF	; 255
    1bc8:	e8 1a       	sub	r14, r24
    1bca:	f8 0a       	sbc	r15, r24
    1bcc:	92 e0       	ldi	r25, 0x02	; 2
    1bce:	e9 16       	cp	r14, r25
    1bd0:	f1 04       	cpc	r15, r1
    1bd2:	2c f3       	brlt	.-54     	; 0x1b9e <getHoraMinSeg+0xa6>
    1bd4:	2f ef       	ldi	r18, 0xFF	; 255
    1bd6:	8e e9       	ldi	r24, 0x9E	; 158
    1bd8:	94 e2       	ldi	r25, 0x24	; 36
    1bda:	21 50       	subi	r18, 0x01	; 1
    1bdc:	80 40       	sbci	r24, 0x00	; 0
    1bde:	90 40       	sbci	r25, 0x00	; 0
    1be0:	e1 f7       	brne	.-8      	; 0x1bda <getHoraMinSeg+0xe2>
    1be2:	00 c0       	rjmp	.+0      	; 0x1be4 <getHoraMinSeg+0xec>
    1be4:	00 00       	nop
    1be6:	cf 91       	pop	r28
    1be8:	1f 91       	pop	r17
    1bea:	0f 91       	pop	r16
    1bec:	ff 90       	pop	r15
    1bee:	ef 90       	pop	r14
    1bf0:	df 90       	pop	r13
    1bf2:	cf 90       	pop	r12
    1bf4:	bf 90       	pop	r11
    1bf6:	af 90       	pop	r10
    1bf8:	08 95       	ret

00001bfa <anoZero>:
    1bfa:	10 92 73 04 	sts	0x0473, r1	; 0x800473 <horas>
    1bfe:	10 92 72 04 	sts	0x0472, r1	; 0x800472 <minutos>
    1c02:	10 92 71 04 	sts	0x0471, r1	; 0x800471 <segundos>
    1c06:	81 e0       	ldi	r24, 0x01	; 1
    1c08:	80 93 70 04 	sts	0x0470, r24	; 0x800470 <dia>
    1c0c:	80 93 6f 04 	sts	0x046F, r24	; 0x80046f <mes>
    1c10:	86 e1       	ldi	r24, 0x16	; 22
    1c12:	80 93 6e 04 	sts	0x046E, r24	; 0x80046e <__data_end>
    1c16:	08 95       	ret

00001c18 <changeDate>:
    1c18:	cf 92       	push	r12
    1c1a:	df 92       	push	r13
    1c1c:	ef 92       	push	r14
    1c1e:	ff 92       	push	r15
    1c20:	0f 93       	push	r16
    1c22:	1f 93       	push	r17
    1c24:	cf 93       	push	r28
    1c26:	df 93       	push	r29
    1c28:	6b 01       	movw	r12, r22
    1c2a:	ea 01       	movw	r28, r20
    1c2c:	d8 01       	movw	r26, r16
    1c2e:	fc 01       	movw	r30, r24
    1c30:	40 81       	ld	r20, Z
    1c32:	50 e0       	ldi	r21, 0x00	; 0
    1c34:	40 53       	subi	r20, 0x30	; 48
    1c36:	51 09       	sbc	r21, r1
    1c38:	81 81       	ldd	r24, Z+1	; 0x01
    1c3a:	44 0f       	add	r20, r20
    1c3c:	74 2f       	mov	r23, r20
    1c3e:	77 0f       	add	r23, r23
    1c40:	77 0f       	add	r23, r23
    1c42:	47 0f       	add	r20, r23
    1c44:	74 2f       	mov	r23, r20
    1c46:	78 0f       	add	r23, r24
    1c48:	70 53       	subi	r23, 0x30	; 48
    1c4a:	f6 01       	movw	r30, r12
    1c4c:	80 81       	ld	r24, Z
    1c4e:	90 e0       	ldi	r25, 0x00	; 0
    1c50:	c0 97       	sbiw	r24, 0x30	; 48
    1c52:	91 81       	ldd	r25, Z+1	; 0x01
    1c54:	88 0f       	add	r24, r24
    1c56:	58 2f       	mov	r21, r24
    1c58:	55 0f       	add	r21, r21
    1c5a:	55 0f       	add	r21, r21
    1c5c:	85 0f       	add	r24, r21
    1c5e:	58 2f       	mov	r21, r24
    1c60:	59 0f       	add	r21, r25
    1c62:	50 53       	subi	r21, 0x30	; 48
    1c64:	88 81       	ld	r24, Y
    1c66:	90 e0       	ldi	r25, 0x00	; 0
    1c68:	c0 97       	sbiw	r24, 0x30	; 48
    1c6a:	99 81       	ldd	r25, Y+1	; 0x01
    1c6c:	88 0f       	add	r24, r24
    1c6e:	48 2f       	mov	r20, r24
    1c70:	44 0f       	add	r20, r20
    1c72:	44 0f       	add	r20, r20
    1c74:	84 0f       	add	r24, r20
    1c76:	48 2f       	mov	r20, r24
    1c78:	49 0f       	add	r20, r25
    1c7a:	40 53       	subi	r20, 0x30	; 48
    1c7c:	8c 91       	ld	r24, X
    1c7e:	90 e0       	ldi	r25, 0x00	; 0
    1c80:	c0 97       	sbiw	r24, 0x30	; 48
    1c82:	11 96       	adiw	r26, 0x01	; 1
    1c84:	9c 91       	ld	r25, X
    1c86:	88 0f       	add	r24, r24
    1c88:	68 2f       	mov	r22, r24
    1c8a:	66 0f       	add	r22, r22
    1c8c:	66 0f       	add	r22, r22
    1c8e:	86 0f       	add	r24, r22
    1c90:	89 0f       	add	r24, r25
    1c92:	60 ed       	ldi	r22, 0xD0	; 208
    1c94:	68 0f       	add	r22, r24
    1c96:	f9 01       	movw	r30, r18
    1c98:	80 81       	ld	r24, Z
    1c9a:	90 e0       	ldi	r25, 0x00	; 0
    1c9c:	c0 97       	sbiw	r24, 0x30	; 48
    1c9e:	91 81       	ldd	r25, Z+1	; 0x01
    1ca0:	88 0f       	add	r24, r24
    1ca2:	28 2f       	mov	r18, r24
    1ca4:	22 0f       	add	r18, r18
    1ca6:	22 0f       	add	r18, r18
    1ca8:	82 0f       	add	r24, r18
    1caa:	89 0f       	add	r24, r25
    1cac:	20 ed       	ldi	r18, 0xD0	; 208
    1cae:	28 0f       	add	r18, r24
    1cb0:	f7 01       	movw	r30, r14
    1cb2:	80 81       	ld	r24, Z
    1cb4:	90 e0       	ldi	r25, 0x00	; 0
    1cb6:	c0 97       	sbiw	r24, 0x30	; 48
    1cb8:	91 81       	ldd	r25, Z+1	; 0x01
    1cba:	88 0f       	add	r24, r24
    1cbc:	38 2f       	mov	r19, r24
    1cbe:	33 0f       	add	r19, r19
    1cc0:	33 0f       	add	r19, r19
    1cc2:	83 0f       	add	r24, r19
    1cc4:	89 0f       	add	r24, r25
    1cc6:	80 53       	subi	r24, 0x30	; 48
    1cc8:	44 36       	cpi	r20, 0x64	; 100
    1cca:	70 f5       	brcc	.+92     	; 0x1d28 <changeDate+0x110>
    1ccc:	5d 30       	cpi	r21, 0x0D	; 13
    1cce:	70 f5       	brcc	.+92     	; 0x1d2c <changeDate+0x114>
    1cd0:	70 32       	cpi	r23, 0x20	; 32
    1cd2:	70 f5       	brcc	.+92     	; 0x1d30 <changeDate+0x118>
    1cd4:	7d 31       	cpi	r23, 0x1D	; 29
    1cd6:	40 f0       	brcs	.+16     	; 0x1ce8 <changeDate+0xd0>
    1cd8:	52 30       	cpi	r21, 0x02	; 2
    1cda:	31 f4       	brne	.+12     	; 0x1ce8 <changeDate+0xd0>
    1cdc:	94 2f       	mov	r25, r20
    1cde:	93 70       	andi	r25, 0x03	; 3
    1ce0:	49 f5       	brne	.+82     	; 0x1d34 <changeDate+0x11c>
    1ce2:	7d 31       	cpi	r23, 0x1D	; 29
    1ce4:	49 f5       	brne	.+82     	; 0x1d38 <changeDate+0x120>
    1ce6:	0c c0       	rjmp	.+24     	; 0x1d00 <changeDate+0xe8>
    1ce8:	7f 31       	cpi	r23, 0x1F	; 31
    1cea:	51 f4       	brne	.+20     	; 0x1d00 <changeDate+0xe8>
    1cec:	56 30       	cpi	r21, 0x06	; 6
    1cee:	31 f1       	breq	.+76     	; 0x1d3c <changeDate+0x124>
    1cf0:	18 f4       	brcc	.+6      	; 0x1cf8 <changeDate+0xe0>
    1cf2:	54 30       	cpi	r21, 0x04	; 4
    1cf4:	29 f4       	brne	.+10     	; 0x1d00 <changeDate+0xe8>
    1cf6:	22 c0       	rjmp	.+68     	; 0x1d3c <changeDate+0x124>
    1cf8:	59 30       	cpi	r21, 0x09	; 9
    1cfa:	01 f1       	breq	.+64     	; 0x1d3c <changeDate+0x124>
    1cfc:	5b 30       	cpi	r21, 0x0B	; 11
    1cfe:	f1 f0       	breq	.+60     	; 0x1d3c <changeDate+0x124>
    1d00:	8c 33       	cpi	r24, 0x3C	; 60
    1d02:	f0 f4       	brcc	.+60     	; 0x1d40 <changeDate+0x128>
    1d04:	6c 33       	cpi	r22, 0x3C	; 60
    1d06:	f0 f4       	brcc	.+60     	; 0x1d44 <changeDate+0x12c>
    1d08:	28 31       	cpi	r18, 0x18	; 24
    1d0a:	f0 f4       	brcc	.+60     	; 0x1d48 <changeDate+0x130>
    1d0c:	70 93 70 04 	sts	0x0470, r23	; 0x800470 <dia>
    1d10:	50 93 6f 04 	sts	0x046F, r21	; 0x80046f <mes>
    1d14:	40 93 6e 04 	sts	0x046E, r20	; 0x80046e <__data_end>
    1d18:	20 93 73 04 	sts	0x0473, r18	; 0x800473 <horas>
    1d1c:	60 93 72 04 	sts	0x0472, r22	; 0x800472 <minutos>
    1d20:	80 93 71 04 	sts	0x0471, r24	; 0x800471 <segundos>
    1d24:	81 e0       	ldi	r24, 0x01	; 1
    1d26:	11 c0       	rjmp	.+34     	; 0x1d4a <changeDate+0x132>
    1d28:	80 e0       	ldi	r24, 0x00	; 0
    1d2a:	0f c0       	rjmp	.+30     	; 0x1d4a <changeDate+0x132>
    1d2c:	80 e0       	ldi	r24, 0x00	; 0
    1d2e:	0d c0       	rjmp	.+26     	; 0x1d4a <changeDate+0x132>
    1d30:	80 e0       	ldi	r24, 0x00	; 0
    1d32:	0b c0       	rjmp	.+22     	; 0x1d4a <changeDate+0x132>
    1d34:	80 e0       	ldi	r24, 0x00	; 0
    1d36:	09 c0       	rjmp	.+18     	; 0x1d4a <changeDate+0x132>
    1d38:	80 e0       	ldi	r24, 0x00	; 0
    1d3a:	07 c0       	rjmp	.+14     	; 0x1d4a <changeDate+0x132>
    1d3c:	80 e0       	ldi	r24, 0x00	; 0
    1d3e:	05 c0       	rjmp	.+10     	; 0x1d4a <changeDate+0x132>
    1d40:	80 e0       	ldi	r24, 0x00	; 0
    1d42:	03 c0       	rjmp	.+6      	; 0x1d4a <changeDate+0x132>
    1d44:	80 e0       	ldi	r24, 0x00	; 0
    1d46:	01 c0       	rjmp	.+2      	; 0x1d4a <changeDate+0x132>
    1d48:	80 e0       	ldi	r24, 0x00	; 0
    1d4a:	df 91       	pop	r29
    1d4c:	cf 91       	pop	r28
    1d4e:	1f 91       	pop	r17
    1d50:	0f 91       	pop	r16
    1d52:	ff 90       	pop	r15
    1d54:	ef 90       	pop	r14
    1d56:	df 90       	pop	r13
    1d58:	cf 90       	pop	r12
    1d5a:	08 95       	ret

00001d5c <modoADM>:
    1d5c:	cf 92       	push	r12
    1d5e:	df 92       	push	r13
    1d60:	ef 92       	push	r14
    1d62:	ff 92       	push	r15
    1d64:	0f 93       	push	r16
    1d66:	1f 93       	push	r17
    1d68:	cf 93       	push	r28
    1d6a:	df 93       	push	r29
    1d6c:	cd b7       	in	r28, 0x3d	; 61
    1d6e:	de b7       	in	r29, 0x3e	; 62
    1d70:	2c 97       	sbiw	r28, 0x0c	; 12
    1d72:	0f b6       	in	r0, 0x3f	; 63
    1d74:	f8 94       	cli
    1d76:	de bf       	out	0x3e, r29	; 62
    1d78:	0f be       	out	0x3f, r0	; 63
    1d7a:	cd bf       	out	0x3d, r28	; 61
    1d7c:	6c 01       	movw	r12, r24
    1d7e:	fc 01       	movw	r30, r24
    1d80:	80 81       	ld	r24, Z
    1d82:	81 11       	cpse	r24, r1
    1d84:	35 c0       	rjmp	.+106    	; 0x1df0 <modoADM+0x94>
    1d86:	0e 94 2e 0c 	call	0x185c	; 0x185c <tela_instrucoes_configDiaMesAno>
    1d8a:	ae 01       	movw	r20, r28
    1d8c:	49 5f       	subi	r20, 0xF9	; 249
    1d8e:	5f 4f       	sbci	r21, 0xFF	; 255
    1d90:	be 01       	movw	r22, r28
    1d92:	67 5f       	subi	r22, 0xF7	; 247
    1d94:	7f 4f       	sbci	r23, 0xFF	; 255
    1d96:	ce 01       	movw	r24, r28
    1d98:	0b 96       	adiw	r24, 0x0b	; 11
    1d9a:	0e 94 fb 0c 	call	0x19f6	; 0x19f6 <getDiaMesAno>
    1d9e:	0e 94 5a 0c 	call	0x18b4	; 0x18b4 <tela_instrucoes_configHoraMinSeg>
    1da2:	ae 01       	movw	r20, r28
    1da4:	4f 5f       	subi	r20, 0xFF	; 255
    1da6:	5f 4f       	sbci	r21, 0xFF	; 255
    1da8:	be 01       	movw	r22, r28
    1daa:	6d 5f       	subi	r22, 0xFD	; 253
    1dac:	7f 4f       	sbci	r23, 0xFF	; 255
    1dae:	ce 01       	movw	r24, r28
    1db0:	05 96       	adiw	r24, 0x05	; 5
    1db2:	0e 94 7c 0d 	call	0x1af8	; 0x1af8 <getHoraMinSeg>
    1db6:	ce 01       	movw	r24, r28
    1db8:	01 96       	adiw	r24, 0x01	; 1
    1dba:	7c 01       	movw	r14, r24
    1dbc:	8e 01       	movw	r16, r28
    1dbe:	0d 5f       	subi	r16, 0xFD	; 253
    1dc0:	1f 4f       	sbci	r17, 0xFF	; 255
    1dc2:	9e 01       	movw	r18, r28
    1dc4:	2b 5f       	subi	r18, 0xFB	; 251
    1dc6:	3f 4f       	sbci	r19, 0xFF	; 255
    1dc8:	ae 01       	movw	r20, r28
    1dca:	49 5f       	subi	r20, 0xF9	; 249
    1dcc:	5f 4f       	sbci	r21, 0xFF	; 255
    1dce:	be 01       	movw	r22, r28
    1dd0:	67 5f       	subi	r22, 0xF7	; 247
    1dd2:	7f 4f       	sbci	r23, 0xFF	; 255
    1dd4:	0a 96       	adiw	r24, 0x0a	; 10
    1dd6:	0e 94 0c 0e 	call	0x1c18	; 0x1c18 <changeDate>
    1dda:	88 23       	and	r24, r24
    1ddc:	19 f0       	breq	.+6      	; 0x1de4 <modoADM+0x88>
    1dde:	0e 94 86 0c 	call	0x190c	; 0x190c <tela_operacaoConcluida>
    1de2:	02 c0       	rjmp	.+4      	; 0x1de8 <modoADM+0x8c>
    1de4:	0e 94 a1 0c 	call	0x1942	; 0x1942 <tela_dataInvalida>
    1de8:	89 e1       	ldi	r24, 0x19	; 25
    1dea:	f6 01       	movw	r30, r12
    1dec:	80 83       	st	Z, r24
    1dee:	2d c0       	rjmp	.+90     	; 0x1e4a <modoADM+0xee>
    1df0:	81 30       	cpi	r24, 0x01	; 1
    1df2:	59 f1       	breq	.+86     	; 0x1e4a <modoADM+0xee>
    1df4:	82 30       	cpi	r24, 0x02	; 2
    1df6:	49 f5       	brne	.+82     	; 0x1e4a <modoADM+0xee>
    1df8:	0e 94 ea 0b 	call	0x17d4	; 0x17d4 <tela_instrucoes_configOper>
    1dfc:	0e 94 d2 0c 	call	0x19a4	; 0x19a4 <tela_status_oper>
    1e00:	89 e1       	ldi	r24, 0x19	; 25
    1e02:	f6 01       	movw	r30, r12
    1e04:	80 83       	st	Z, r24
    1e06:	04 c0       	rjmp	.+8      	; 0x1e10 <modoADM+0xb4>
    1e08:	0e 94 6c 03 	call	0x6d8	; 0x6d8 <teclaDebouce>
    1e0c:	f6 01       	movw	r30, r12
    1e0e:	80 83       	st	Z, r24
    1e10:	f6 01       	movw	r30, r12
    1e12:	80 81       	ld	r24, Z
    1e14:	89 31       	cpi	r24, 0x19	; 25
    1e16:	c1 f3       	breq	.-16     	; 0x1e08 <modoADM+0xac>
    1e18:	82 30       	cpi	r24, 0x02	; 2
    1e1a:	20 f4       	brcc	.+8      	; 0x1e24 <modoADM+0xc8>
    1e1c:	c6 01       	movw	r24, r12
    1e1e:	0e 94 bc 0c 	call	0x1978	; 0x1978 <mudarStatusOper>
    1e22:	10 c0       	rjmp	.+32     	; 0x1e44 <modoADM+0xe8>
    1e24:	83 e0       	ldi	r24, 0x03	; 3
    1e26:	0e 94 5f 04 	call	0x8be	; 0x8be <writeInstruction>
    1e2a:	8a e4       	ldi	r24, 0x4A	; 74
    1e2c:	94 e0       	ldi	r25, 0x04	; 4
    1e2e:	0e 94 36 04 	call	0x86c	; 0x86c <writeString>
    1e32:	ff ef       	ldi	r31, 0xFF	; 255
    1e34:	23 ed       	ldi	r18, 0xD3	; 211
    1e36:	80 e3       	ldi	r24, 0x30	; 48
    1e38:	f1 50       	subi	r31, 0x01	; 1
    1e3a:	20 40       	sbci	r18, 0x00	; 0
    1e3c:	80 40       	sbci	r24, 0x00	; 0
    1e3e:	e1 f7       	brne	.-8      	; 0x1e38 <modoADM+0xdc>
    1e40:	00 c0       	rjmp	.+0      	; 0x1e42 <modoADM+0xe6>
    1e42:	00 00       	nop
    1e44:	89 e1       	ldi	r24, 0x19	; 25
    1e46:	f6 01       	movw	r30, r12
    1e48:	80 83       	st	Z, r24
    1e4a:	89 e1       	ldi	r24, 0x19	; 25
    1e4c:	f6 01       	movw	r30, r12
    1e4e:	80 83       	st	Z, r24
    1e50:	2c 96       	adiw	r28, 0x0c	; 12
    1e52:	0f b6       	in	r0, 0x3f	; 63
    1e54:	f8 94       	cli
    1e56:	de bf       	out	0x3e, r29	; 62
    1e58:	0f be       	out	0x3f, r0	; 63
    1e5a:	cd bf       	out	0x3d, r28	; 61
    1e5c:	df 91       	pop	r29
    1e5e:	cf 91       	pop	r28
    1e60:	1f 91       	pop	r17
    1e62:	0f 91       	pop	r16
    1e64:	ff 90       	pop	r15
    1e66:	ef 90       	pop	r14
    1e68:	df 90       	pop	r13
    1e6a:	cf 90       	pop	r12
    1e6c:	08 95       	ret

00001e6e <atualizaMesAno>:
    1e6e:	81 e0       	ldi	r24, 0x01	; 1
    1e70:	80 93 70 04 	sts	0x0470, r24	; 0x800470 <dia>
    1e74:	80 91 6f 04 	lds	r24, 0x046F	; 0x80046f <mes>
    1e78:	8f 5f       	subi	r24, 0xFF	; 255
    1e7a:	80 93 6f 04 	sts	0x046F, r24	; 0x80046f <mes>
    1e7e:	8d 30       	cpi	r24, 0x0D	; 13
    1e80:	61 f4       	brne	.+24     	; 0x1e9a <atualizaMesAno+0x2c>
    1e82:	81 e0       	ldi	r24, 0x01	; 1
    1e84:	80 93 6f 04 	sts	0x046F, r24	; 0x80046f <mes>
    1e88:	80 91 6e 04 	lds	r24, 0x046E	; 0x80046e <__data_end>
    1e8c:	8f 5f       	subi	r24, 0xFF	; 255
    1e8e:	80 93 6e 04 	sts	0x046E, r24	; 0x80046e <__data_end>
    1e92:	84 36       	cpi	r24, 0x64	; 100
    1e94:	11 f4       	brne	.+4      	; 0x1e9a <atualizaMesAno+0x2c>
    1e96:	10 92 6e 04 	sts	0x046E, r1	; 0x80046e <__data_end>
    1e9a:	08 95       	ret

00001e9c <updateDate>:
    1e9c:	80 91 71 04 	lds	r24, 0x0471	; 0x800471 <segundos>
    1ea0:	8f 5f       	subi	r24, 0xFF	; 255
    1ea2:	80 93 71 04 	sts	0x0471, r24	; 0x800471 <segundos>
    1ea6:	8c 33       	cpi	r24, 0x3C	; 60
    1ea8:	39 f4       	brne	.+14     	; 0x1eb8 <updateDate+0x1c>
    1eaa:	10 92 71 04 	sts	0x0471, r1	; 0x800471 <segundos>
    1eae:	80 91 72 04 	lds	r24, 0x0472	; 0x800472 <minutos>
    1eb2:	8f 5f       	subi	r24, 0xFF	; 255
    1eb4:	80 93 72 04 	sts	0x0472, r24	; 0x800472 <minutos>
    1eb8:	80 91 72 04 	lds	r24, 0x0472	; 0x800472 <minutos>
    1ebc:	8c 33       	cpi	r24, 0x3C	; 60
    1ebe:	39 f4       	brne	.+14     	; 0x1ece <updateDate+0x32>
    1ec0:	10 92 72 04 	sts	0x0472, r1	; 0x800472 <minutos>
    1ec4:	80 91 73 04 	lds	r24, 0x0473	; 0x800473 <horas>
    1ec8:	8f 5f       	subi	r24, 0xFF	; 255
    1eca:	80 93 73 04 	sts	0x0473, r24	; 0x800473 <horas>
    1ece:	80 91 73 04 	lds	r24, 0x0473	; 0x800473 <horas>
    1ed2:	88 31       	cpi	r24, 0x18	; 24
    1ed4:	41 f5       	brne	.+80     	; 0x1f26 <updateDate+0x8a>
    1ed6:	10 92 73 04 	sts	0x0473, r1	; 0x800473 <horas>
    1eda:	20 91 70 04 	lds	r18, 0x0470	; 0x800470 <dia>
    1ede:	2f 5f       	subi	r18, 0xFF	; 255
    1ee0:	20 93 70 04 	sts	0x0470, r18	; 0x800470 <dia>
    1ee4:	e0 91 6f 04 	lds	r30, 0x046F	; 0x80046f <mes>
    1ee8:	8e 2f       	mov	r24, r30
    1eea:	90 e0       	ldi	r25, 0x00	; 0
    1eec:	fc 01       	movw	r30, r24
    1eee:	31 97       	sbiw	r30, 0x01	; 1
    1ef0:	ec 30       	cpi	r30, 0x0C	; 12
    1ef2:	f1 05       	cpc	r31, r1
    1ef4:	a0 f4       	brcc	.+40     	; 0x1f1e <updateDate+0x82>
    1ef6:	e0 5c       	subi	r30, 0xC0	; 192
    1ef8:	ff 4f       	sbci	r31, 0xFF	; 255
    1efa:	0c 94 66 10 	jmp	0x20cc	; 0x20cc <__tablejump2__>
    1efe:	20 32       	cpi	r18, 0x20	; 32
    1f00:	91 f4       	brne	.+36     	; 0x1f26 <updateDate+0x8a>
    1f02:	0e 94 37 0f 	call	0x1e6e	; 0x1e6e <atualizaMesAno>
    1f06:	08 95       	ret
    1f08:	2d 31       	cpi	r18, 0x1D	; 29
    1f0a:	21 f4       	brne	.+8      	; 0x1f14 <updateDate+0x78>
    1f0c:	80 91 6e 04 	lds	r24, 0x046E	; 0x80046e <__data_end>
    1f10:	83 70       	andi	r24, 0x03	; 3
    1f12:	11 f4       	brne	.+4      	; 0x1f18 <updateDate+0x7c>
    1f14:	2e 31       	cpi	r18, 0x1E	; 30
    1f16:	39 f4       	brne	.+14     	; 0x1f26 <updateDate+0x8a>
    1f18:	0e 94 37 0f 	call	0x1e6e	; 0x1e6e <atualizaMesAno>
    1f1c:	08 95       	ret
    1f1e:	2f 31       	cpi	r18, 0x1F	; 31
    1f20:	11 f4       	brne	.+4      	; 0x1f26 <updateDate+0x8a>
    1f22:	0e 94 37 0f 	call	0x1e6e	; 0x1e6e <atualizaMesAno>
    1f26:	08 95       	ret

00001f28 <__vector_11>:
//////////////////////////////////////////////////////////////////////////
						//INTERUPES//
//////////////////////////////////////////////////////////////////////////


ISR(TIMER1_COMPA_vect){
    1f28:	1f 92       	push	r1
    1f2a:	0f 92       	push	r0
    1f2c:	0f b6       	in	r0, 0x3f	; 63
    1f2e:	0f 92       	push	r0
    1f30:	11 24       	eor	r1, r1
    1f32:	2f 93       	push	r18
    1f34:	3f 93       	push	r19
    1f36:	4f 93       	push	r20
    1f38:	5f 93       	push	r21
    1f3a:	6f 93       	push	r22
    1f3c:	7f 93       	push	r23
    1f3e:	8f 93       	push	r24
    1f40:	9f 93       	push	r25
    1f42:	af 93       	push	r26
    1f44:	bf 93       	push	r27
    1f46:	ef 93       	push	r30
    1f48:	ff 93       	push	r31
// 	{
// 		writeInstruction(lcd_DisplayOff);
// 		contTelaOff = 0;
// 		telaOnOff = 0;
// 	}
	updateDate();
    1f4a:	0e 94 4e 0f 	call	0x1e9c	; 0x1e9c <updateDate>
	//AtualizaStringDataHora(); // opcional estariamos disperdio processamento uma vez que essa funo s converte a data atual para string
									//acho q vamos usar ela no modo adm pra guardar o momento das pendencias 
								 
}
    1f4e:	ff 91       	pop	r31
    1f50:	ef 91       	pop	r30
    1f52:	bf 91       	pop	r27
    1f54:	af 91       	pop	r26
    1f56:	9f 91       	pop	r25
    1f58:	8f 91       	pop	r24
    1f5a:	7f 91       	pop	r23
    1f5c:	6f 91       	pop	r22
    1f5e:	5f 91       	pop	r21
    1f60:	4f 91       	pop	r20
    1f62:	3f 91       	pop	r19
    1f64:	2f 91       	pop	r18
    1f66:	0f 90       	pop	r0
    1f68:	0f be       	out	0x3f, r0	; 63
    1f6a:	0f 90       	pop	r0
    1f6c:	1f 90       	pop	r1
    1f6e:	18 95       	reti

00001f70 <setTimer1_UmSeg>:

void setTimer1_UmSeg(){
	// 16 MHz -> 1 instruo = 62.5ns
	// Pre scaler de 256 -> 62500Hz logo 62500 contagens para 1 seg
	
	TCCR1A = 4; //modo comparao
    1f70:	84 e0       	ldi	r24, 0x04	; 4
    1f72:	80 93 80 00 	sts	0x0080, r24	; 0x800080 <__TEXT_REGION_LENGTH__+0x7f8080>
	TCCR1B = 0x4; //pre scaler de 256
    1f76:	80 93 81 00 	sts	0x0081, r24	; 0x800081 <__TEXT_REGION_LENGTH__+0x7f8081>
	TCNT1 = 0;  //contagem comea do zero
    1f7a:	10 92 85 00 	sts	0x0085, r1	; 0x800085 <__TEXT_REGION_LENGTH__+0x7f8085>
    1f7e:	10 92 84 00 	sts	0x0084, r1	; 0x800084 <__TEXT_REGION_LENGTH__+0x7f8084>
	OCR1A = 62500; //at onde tem q contar
    1f82:	84 e2       	ldi	r24, 0x24	; 36
    1f84:	94 ef       	ldi	r25, 0xF4	; 244
    1f86:	90 93 89 00 	sts	0x0089, r25	; 0x800089 <__TEXT_REGION_LENGTH__+0x7f8089>
    1f8a:	80 93 88 00 	sts	0x0088, r24	; 0x800088 <__TEXT_REGION_LENGTH__+0x7f8088>
	TIMSK1 |= (1<<OCIE1A); //habilita interrupo por comparao em 
    1f8e:	ef e6       	ldi	r30, 0x6F	; 111
    1f90:	f0 e0       	ldi	r31, 0x00	; 0
    1f92:	80 81       	ld	r24, Z
    1f94:	82 60       	ori	r24, 0x02	; 2
    1f96:	80 83       	st	Z, r24
	sei(); // talvez colocar no mais ??
    1f98:	78 94       	sei
    1f9a:	08 95       	ret

00001f9c <main>:
}

int main(){
    1f9c:	cf 93       	push	r28
    1f9e:	df 93       	push	r29
    1fa0:	cd b7       	in	r28, 0x3d	; 61
    1fa2:	de b7       	in	r29, 0x3e	; 62
    1fa4:	2c 97       	sbiw	r28, 0x0c	; 12
    1fa6:	0f b6       	in	r0, 0x3f	; 63
    1fa8:	f8 94       	cli
    1faa:	de bf       	out	0x3e, r29	; 62
    1fac:	0f be       	out	0x3f, r0	; 63
    1fae:	cd bf       	out	0x3d, r28	; 61
	anoZero(); // inicia o relogio
    1fb0:	0e 94 fd 0d 	call	0x1bfa	; 0x1bfa <anoZero>
	USART_INIT(UBRR);
    1fb4:	83 e3       	ldi	r24, 0x33	; 51
    1fb6:	90 e0       	ldi	r25, 0x00	; 0
    1fb8:	0e 94 ad 03 	call	0x75a	; 0x75a <USART_INIT>
	setup_lcd();
    1fbc:	0e 94 cb 04 	call	0x996	; 0x996 <setup_lcd>
	setupBotoes();
	setTimer1_UmSeg();
    1fc0:	0e 94 b8 0f 	call	0x1f70	; 0x1f70 <setTimer1_UmSeg>
	char continuar;

// 	writeInstruction(lcd_DisplayOff);
// 	while(telaOnOff==0)
// 		teclaG = teclaDebouce();
	writeInstruction(lcd_DisplayOn);
    1fc4:	8c e0       	ldi	r24, 0x0C	; 12
    1fc6:	0e 94 5f 04 	call	0x8be	; 0x8be <writeInstruction>
	tela_bloqueio_inicial(); //comenta se quiser testar mais rapido
    1fca:	0e 94 df 05 	call	0xbbe	; 0xbbe <tela_bloqueio_inicial>
	
	
	// inserindo cartes pra teste
	char cartao_teste[] = {8+48,0+48,0+48,0+48,0+48,0+48};
    1fce:	86 e0       	ldi	r24, 0x06	; 6
    1fd0:	e9 e3       	ldi	r30, 0x39	; 57
    1fd2:	f1 e0       	ldi	r31, 0x01	; 1
    1fd4:	de 01       	movw	r26, r28
    1fd6:	11 96       	adiw	r26, 0x01	; 1
    1fd8:	01 90       	ld	r0, Z+
    1fda:	0d 92       	st	X+, r0
    1fdc:	8a 95       	dec	r24
    1fde:	e1 f7       	brne	.-8      	; 0x1fd8 <main+0x3c>
	char cartao_teste_2[] = {0+48,0+48,2+48,0+48,0+48,0+48};
    1fe0:	86 e0       	ldi	r24, 0x06	; 6
    1fe2:	ef e3       	ldi	r30, 0x3F	; 63
    1fe4:	f1 e0       	ldi	r31, 0x01	; 1
    1fe6:	de 01       	movw	r26, r28
    1fe8:	17 96       	adiw	r26, 0x07	; 7
    1fea:	01 90       	ld	r0, Z+
    1fec:	0d 92       	st	X+, r0
    1fee:	8a 95       	dec	r24
    1ff0:	e1 f7       	brne	.-8      	; 0x1fea <main+0x4e>
	addCartao("123456","123456",cartao_teste);	// inserindo carto pra teste 80000 (800,00)
    1ff2:	ae 01       	movw	r20, r28
    1ff4:	4f 5f       	subi	r20, 0xFF	; 255
    1ff6:	5f 4f       	sbci	r21, 0xFF	; 255
    1ff8:	69 e5       	ldi	r22, 0x59	; 89
    1ffa:	74 e0       	ldi	r23, 0x04	; 4
    1ffc:	cb 01       	movw	r24, r22
    1ffe:	0e 94 f6 00 	call	0x1ec	; 0x1ec <addCartao>
	addCartao("000001","111111",cartao_teste_2);	// inserindo carto pra teste 00200	(2,00)
    2002:	ae 01       	movw	r20, r28
    2004:	49 5f       	subi	r20, 0xF9	; 249
    2006:	5f 4f       	sbci	r21, 0xFF	; 255
    2008:	60 e6       	ldi	r22, 0x60	; 96
    200a:	74 e0       	ldi	r23, 0x04	; 4
    200c:	87 e6       	ldi	r24, 0x67	; 103
    200e:	94 e0       	ldi	r25, 0x04	; 4
    2010:	0e 94 f6 00 	call	0x1ec	; 0x1ec <addCartao>
	anoZero(); // inicia o relogio
	USART_INIT(UBRR);
	setup_lcd();
	setupBotoes();
	setTimer1_UmSeg();
	char loop1 = 1; //para ele agir diferente no 1 loop
    2014:	11 e0       	ldi	r17, 0x01	; 1
	/////
	
	
	while(1){
		//writeInstruction(lcd_DisplayOn); // comentar quando colocar a rotina de ligar a tela
		if(loop1){
    2016:	11 23       	and	r17, r17
    2018:	41 f0       	breq	.+16     	; 0x202a <main+0x8e>
			userIndex = login(&teclaG); //o que faz tudo com relao a senha inicial, retorna quem entrou (0 adm, 1 e 2 operadores 1 e 2)
    201a:	8b e1       	ldi	r24, 0x1B	; 27
    201c:	91 e0       	ldi	r25, 0x01	; 1
    201e:	0e 94 70 05 	call	0xae0	; 0xae0 <login>
    2022:	80 93 1a 01 	sts	0x011A, r24	; 0x80011a <userIndex>
			loop1 = 0;
    2026:	10 e0       	ldi	r17, 0x00	; 0
    2028:	0c c0       	rjmp	.+24     	; 0x2042 <main+0xa6>
		}else{
			continuar = continuar_modo_atual(&teclaG);
    202a:	8b e1       	ldi	r24, 0x1B	; 27
    202c:	91 e0       	ldi	r25, 0x01	; 1
    202e:	0e 94 17 0c 	call	0x182e	; 0x182e <continuar_modo_atual>
			if(!continuar)
    2032:	81 11       	cpse	r24, r1
    2034:	06 c0       	rjmp	.+12     	; 0x2042 <main+0xa6>
				userIndex = login(&teclaG); //pode mudar o modo adm <-> oper
    2036:	8b e1       	ldi	r24, 0x1B	; 27
    2038:	91 e0       	ldi	r25, 0x01	; 1
    203a:	0e 94 70 05 	call	0xae0	; 0xae0 <login>
    203e:	80 93 1a 01 	sts	0x011A, r24	; 0x80011a <userIndex>
		}
		teclaG = TECLA_INVALIDA;
    2042:	89 e1       	ldi	r24, 0x19	; 25
    2044:	80 93 1b 01 	sts	0x011B, r24	; 0x80011b <teclaG>
		if(userIndex != 0){
    2048:	80 91 1a 01 	lds	r24, 0x011A	; 0x80011a <userIndex>
    204c:	88 23       	and	r24, r24
    204e:	99 f0       	breq	.+38     	; 0x2076 <main+0xda>
			while(1){
				writeInstruction(lcd_Home | lcd_Clear);
    2050:	83 e0       	ldi	r24, 0x03	; 3
    2052:	0e 94 5f 04 	call	0x8be	; 0x8be <writeInstruction>
				menu_vendas();
    2056:	0e 94 cd 05 	call	0xb9a	; 0xb9a <menu_vendas>
				while(teclaG+49 > 51){
    205a:	04 c0       	rjmp	.+8      	; 0x2064 <main+0xc8>
					teclaG = teclaDebouce();
    205c:	0e 94 6c 03 	call	0x6d8	; 0x6d8 <teclaDebouce>
    2060:	80 93 1b 01 	sts	0x011B, r24	; 0x80011b <teclaG>
		teclaG = TECLA_INVALIDA;
		if(userIndex != 0){
			while(1){
				writeInstruction(lcd_Home | lcd_Clear);
				menu_vendas();
				while(teclaG+49 > 51){
    2064:	80 91 1b 01 	lds	r24, 0x011B	; 0x80011b <teclaG>
    2068:	90 e0       	ldi	r25, 0x00	; 0
    206a:	c1 96       	adiw	r24, 0x31	; 49
    206c:	84 33       	cpi	r24, 0x34	; 52
    206e:	91 05       	cpc	r25, r1
    2070:	ac f7       	brge	.-22     	; 0x205c <main+0xc0>
					teclaG = teclaDebouce();
				}
				processa_venda(teclaG+49);	// para testar carto por aprox coloca CW + 6dig docartao + 6 dig da senha no serial
    2072:	0e 94 a7 0b 	call	0x174e	; 0x174e <processa_venda>
				break;
			}
		}
		
		if(userIndex == 0){
    2076:	80 91 1a 01 	lds	r24, 0x011A	; 0x80011a <userIndex>
    207a:	81 11       	cpse	r24, r1
    207c:	cc cf       	rjmp	.-104    	; 0x2016 <main+0x7a>
			menuADM();
    207e:	0e 94 b8 0b 	call	0x1770	; 0x1770 <menuADM>
			teclaG = TECLA_INVALIDA;
    2082:	89 e1       	ldi	r24, 0x19	; 25
    2084:	80 93 1b 01 	sts	0x011B, r24	; 0x80011b <teclaG>
			while(teclaG == TECLA_INVALIDA){
    2088:	04 c0       	rjmp	.+8      	; 0x2092 <main+0xf6>
				teclaG = teclaDebouce();
    208a:	0e 94 6c 03 	call	0x6d8	; 0x6d8 <teclaDebouce>
    208e:	80 93 1b 01 	sts	0x011B, r24	; 0x80011b <teclaG>
		}
		
		if(userIndex == 0){
			menuADM();
			teclaG = TECLA_INVALIDA;
			while(teclaG == TECLA_INVALIDA){
    2092:	80 91 1b 01 	lds	r24, 0x011B	; 0x80011b <teclaG>
    2096:	89 31       	cpi	r24, 0x19	; 25
    2098:	c1 f3       	breq	.-16     	; 0x208a <main+0xee>
				teclaG = teclaDebouce();
			}
			modoADM(&teclaG);
    209a:	8b e1       	ldi	r24, 0x1B	; 27
    209c:	91 e0       	ldi	r25, 0x01	; 1
    209e:	0e 94 ae 0e 	call	0x1d5c	; 0x1d5c <modoADM>
    20a2:	b9 cf       	rjmp	.-142    	; 0x2016 <main+0x7a>

000020a4 <__divmodhi4>:
    20a4:	97 fb       	bst	r25, 7
    20a6:	07 2e       	mov	r0, r23
    20a8:	16 f4       	brtc	.+4      	; 0x20ae <__divmodhi4+0xa>
    20aa:	00 94       	com	r0
    20ac:	07 d0       	rcall	.+14     	; 0x20bc <__divmodhi4_neg1>
    20ae:	77 fd       	sbrc	r23, 7
    20b0:	09 d0       	rcall	.+18     	; 0x20c4 <__divmodhi4_neg2>
    20b2:	0e 94 6c 10 	call	0x20d8	; 0x20d8 <__udivmodhi4>
    20b6:	07 fc       	sbrc	r0, 7
    20b8:	05 d0       	rcall	.+10     	; 0x20c4 <__divmodhi4_neg2>
    20ba:	3e f4       	brtc	.+14     	; 0x20ca <__divmodhi4_exit>

000020bc <__divmodhi4_neg1>:
    20bc:	90 95       	com	r25
    20be:	81 95       	neg	r24
    20c0:	9f 4f       	sbci	r25, 0xFF	; 255
    20c2:	08 95       	ret

000020c4 <__divmodhi4_neg2>:
    20c4:	70 95       	com	r23
    20c6:	61 95       	neg	r22
    20c8:	7f 4f       	sbci	r23, 0xFF	; 255

000020ca <__divmodhi4_exit>:
    20ca:	08 95       	ret

000020cc <__tablejump2__>:
    20cc:	ee 0f       	add	r30, r30
    20ce:	ff 1f       	adc	r31, r31
    20d0:	05 90       	lpm	r0, Z+
    20d2:	f4 91       	lpm	r31, Z
    20d4:	e0 2d       	mov	r30, r0
    20d6:	09 94       	ijmp

000020d8 <__udivmodhi4>:
    20d8:	aa 1b       	sub	r26, r26
    20da:	bb 1b       	sub	r27, r27
    20dc:	51 e1       	ldi	r21, 0x11	; 17
    20de:	07 c0       	rjmp	.+14     	; 0x20ee <__udivmodhi4_ep>

000020e0 <__udivmodhi4_loop>:
    20e0:	aa 1f       	adc	r26, r26
    20e2:	bb 1f       	adc	r27, r27
    20e4:	a6 17       	cp	r26, r22
    20e6:	b7 07       	cpc	r27, r23
    20e8:	10 f0       	brcs	.+4      	; 0x20ee <__udivmodhi4_ep>
    20ea:	a6 1b       	sub	r26, r22
    20ec:	b7 0b       	sbc	r27, r23

000020ee <__udivmodhi4_ep>:
    20ee:	88 1f       	adc	r24, r24
    20f0:	99 1f       	adc	r25, r25
    20f2:	5a 95       	dec	r21
    20f4:	a9 f7       	brne	.-22     	; 0x20e0 <__udivmodhi4_loop>
    20f6:	80 95       	com	r24
    20f8:	90 95       	com	r25
    20fa:	bc 01       	movw	r22, r24
    20fc:	cd 01       	movw	r24, r26
    20fe:	08 95       	ret

00002100 <_exit>:
    2100:	f8 94       	cli

00002102 <__stop_program>:
    2102:	ff cf       	rjmp	.-2      	; 0x2102 <__stop_program>
