
mic_pay.elf:     file format elf32-avr

Sections:
Idx Name          Size      VMA       LMA       File off  Algn
  0 .data         000004a8  00800100  0000344e  000034e2  2**0
                  CONTENTS, ALLOC, LOAD, DATA
  1 .text         0000344e  00000000  00000000  00000094  2**1
                  CONTENTS, ALLOC, LOAD, READONLY, CODE
  2 .bss          0000010b  008005a8  008005a8  0000398a  2**0
                  ALLOC
  3 .comment      00000030  00000000  00000000  0000398a  2**0
                  CONTENTS, READONLY
  4 .note.gnu.avr.deviceinfo 00000040  00000000  00000000  000039bc  2**2
                  CONTENTS, READONLY
  5 .debug_aranges 000003b8  00000000  00000000  000039fc  2**0
                  CONTENTS, READONLY, DEBUGGING
  6 .debug_info   0000552c  00000000  00000000  00003db4  2**0
                  CONTENTS, READONLY, DEBUGGING
  7 .debug_abbrev 000009bf  00000000  00000000  000092e0  2**0
                  CONTENTS, READONLY, DEBUGGING
  8 .debug_line   00003695  00000000  00000000  00009c9f  2**0
                  CONTENTS, READONLY, DEBUGGING
  9 .debug_frame  00000bd8  00000000  00000000  0000d334  2**2
                  CONTENTS, READONLY, DEBUGGING
 10 .debug_str    00000f23  00000000  00000000  0000df0c  2**0
                  CONTENTS, READONLY, DEBUGGING
 11 .debug_loc    000041c4  00000000  00000000  0000ee2f  2**0
                  CONTENTS, READONLY, DEBUGGING
 12 .debug_ranges 000003d8  00000000  00000000  00012ff3  2**0
                  CONTENTS, READONLY, DEBUGGING

Disassembly of section .text:

00000000 <__vectors>:
       0:	0c 94 4c 00 	jmp	0x98	; 0x98 <__ctors_end>
       4:	0c 94 69 00 	jmp	0xd2	; 0xd2 <__bad_interrupt>
       8:	0c 94 69 00 	jmp	0xd2	; 0xd2 <__bad_interrupt>
       c:	0c 94 69 00 	jmp	0xd2	; 0xd2 <__bad_interrupt>
      10:	0c 94 69 00 	jmp	0xd2	; 0xd2 <__bad_interrupt>
      14:	0c 94 69 00 	jmp	0xd2	; 0xd2 <__bad_interrupt>
      18:	0c 94 69 00 	jmp	0xd2	; 0xd2 <__bad_interrupt>
      1c:	0c 94 69 00 	jmp	0xd2	; 0xd2 <__bad_interrupt>
      20:	0c 94 69 00 	jmp	0xd2	; 0xd2 <__bad_interrupt>
      24:	0c 94 69 00 	jmp	0xd2	; 0xd2 <__bad_interrupt>
      28:	0c 94 69 00 	jmp	0xd2	; 0xd2 <__bad_interrupt>
      2c:	0c 94 c2 18 	jmp	0x3184	; 0x3184 <__vector_11>
      30:	0c 94 69 00 	jmp	0xd2	; 0xd2 <__bad_interrupt>
      34:	0c 94 69 00 	jmp	0xd2	; 0xd2 <__bad_interrupt>
      38:	0c 94 69 00 	jmp	0xd2	; 0xd2 <__bad_interrupt>
      3c:	0c 94 69 00 	jmp	0xd2	; 0xd2 <__bad_interrupt>
      40:	0c 94 69 00 	jmp	0xd2	; 0xd2 <__bad_interrupt>
      44:	0c 94 69 00 	jmp	0xd2	; 0xd2 <__bad_interrupt>
      48:	0c 94 69 00 	jmp	0xd2	; 0xd2 <__bad_interrupt>
      4c:	0c 94 69 00 	jmp	0xd2	; 0xd2 <__bad_interrupt>
      50:	0c 94 69 00 	jmp	0xd2	; 0xd2 <__bad_interrupt>
      54:	0c 94 69 00 	jmp	0xd2	; 0xd2 <__bad_interrupt>
      58:	0c 94 69 00 	jmp	0xd2	; 0xd2 <__bad_interrupt>
      5c:	0c 94 69 00 	jmp	0xd2	; 0xd2 <__bad_interrupt>
      60:	0c 94 69 00 	jmp	0xd2	; 0xd2 <__bad_interrupt>
      64:	0c 94 69 00 	jmp	0xd2	; 0xd2 <__bad_interrupt>
      68:	db 01       	movw	r26, r22
      6a:	e0 01       	movw	r28, r0
      6c:	db 01       	movw	r26, r22
      6e:	eb 01       	movw	r28, r22
      70:	db 01       	movw	r26, r22
      72:	eb 01       	movw	r28, r22
      74:	db 01       	movw	r26, r22
      76:	db 01       	movw	r26, r22
      78:	eb 01       	movw	r28, r22
      7a:	db 01       	movw	r26, r22
      7c:	eb 01       	movw	r28, r22
      7e:	db 01       	movw	r26, r22
      80:	9d 05       	cpc	r25, r13
      82:	b5 05       	cpc	r27, r5
      84:	9f 05       	cpc	r25, r15
      86:	a1 05       	cpc	r26, r1
      88:	a3 05       	cpc	r26, r3
      8a:	a5 05       	cpc	r26, r5
      8c:	a7 05       	cpc	r26, r7
      8e:	a9 05       	cpc	r26, r9
      90:	ab 05       	cpc	r26, r11
      92:	ad 05       	cpc	r26, r13
      94:	af 05       	cpc	r26, r15
      96:	b1 05       	cpc	r27, r1

00000098 <__ctors_end>:
      98:	11 24       	eor	r1, r1
      9a:	1f be       	out	0x3f, r1	; 63
      9c:	cf ef       	ldi	r28, 0xFF	; 255
      9e:	d8 e0       	ldi	r29, 0x08	; 8
      a0:	de bf       	out	0x3e, r29	; 62
      a2:	cd bf       	out	0x3d, r28	; 61

000000a4 <__do_copy_data>:
      a4:	15 e0       	ldi	r17, 0x05	; 5
      a6:	a0 e0       	ldi	r26, 0x00	; 0
      a8:	b1 e0       	ldi	r27, 0x01	; 1
      aa:	ee e4       	ldi	r30, 0x4E	; 78
      ac:	f4 e3       	ldi	r31, 0x34	; 52
      ae:	02 c0       	rjmp	.+4      	; 0xb4 <__do_copy_data+0x10>
      b0:	05 90       	lpm	r0, Z+
      b2:	0d 92       	st	X+, r0
      b4:	a8 3a       	cpi	r26, 0xA8	; 168
      b6:	b1 07       	cpc	r27, r17
      b8:	d9 f7       	brne	.-10     	; 0xb0 <__do_copy_data+0xc>

000000ba <__do_clear_bss>:
      ba:	26 e0       	ldi	r18, 0x06	; 6
      bc:	a8 ea       	ldi	r26, 0xA8	; 168
      be:	b5 e0       	ldi	r27, 0x05	; 5
      c0:	01 c0       	rjmp	.+2      	; 0xc4 <.do_clear_bss_start>

000000c2 <.do_clear_bss_loop>:
      c2:	1d 92       	st	X+, r1

000000c4 <.do_clear_bss_start>:
      c4:	a3 3b       	cpi	r26, 0xB3	; 179
      c6:	b2 07       	cpc	r27, r18
      c8:	e1 f7       	brne	.-8      	; 0xc2 <.do_clear_bss_loop>
      ca:	0e 94 6a 19 	call	0x32d4	; 0x32d4 <main>
      ce:	0c 94 25 1a 	jmp	0x344a	; 0x344a <_exit>

000000d2 <__bad_interrupt>:
      d2:	0c 94 00 00 	jmp	0	; 0x0 <__vectors>

000000d6 <anoZero>:
				addPendencias(pendAchada,2); //2 diz q foi na segunda data q achou
			
			pendAchada = -1;
		}
	}
}
      d6:	10 92 9a 06 	sts	0x069A, r1	; 0x80069a <horas>
      da:	10 92 99 06 	sts	0x0699, r1	; 0x800699 <minutos>
      de:	10 92 98 06 	sts	0x0698, r1	; 0x800698 <segundos>
      e2:	81 e0       	ldi	r24, 0x01	; 1
      e4:	80 93 36 06 	sts	0x0636, r24	; 0x800636 <dia>
      e8:	80 93 35 06 	sts	0x0635, r24	; 0x800635 <mes>
      ec:	86 e1       	ldi	r24, 0x16	; 22
      ee:	80 93 34 06 	sts	0x0634, r24	; 0x800634 <ano>
      f2:	e1 ea       	ldi	r30, 0xA1	; 161
      f4:	f6 e0       	ldi	r31, 0x06	; 6
      f6:	8f e2       	ldi	r24, 0x2F	; 47
      f8:	82 83       	std	Z+2, r24	; 0x02
      fa:	85 83       	std	Z+5, r24	; 0x05
      fc:	10 86       	std	Z+8, r1	; 0x08
      fe:	ea ea       	ldi	r30, 0xAA	; 170
     100:	f6 e0       	ldi	r31, 0x06	; 6
     102:	8a e3       	ldi	r24, 0x3A	; 58
     104:	82 83       	std	Z+2, r24	; 0x02
     106:	85 83       	std	Z+5, r24	; 0x05
     108:	10 86       	std	Z+8, r1	; 0x08
     10a:	08 95       	ret

0000010c <changeDate>:
     10c:	cf 92       	push	r12
     10e:	df 92       	push	r13
     110:	ef 92       	push	r14
     112:	ff 92       	push	r15
     114:	0f 93       	push	r16
     116:	1f 93       	push	r17
     118:	cf 93       	push	r28
     11a:	df 93       	push	r29
     11c:	6b 01       	movw	r12, r22
     11e:	ea 01       	movw	r28, r20
     120:	d8 01       	movw	r26, r16
     122:	fc 01       	movw	r30, r24
     124:	40 81       	ld	r20, Z
     126:	50 e0       	ldi	r21, 0x00	; 0
     128:	40 53       	subi	r20, 0x30	; 48
     12a:	51 09       	sbc	r21, r1
     12c:	81 81       	ldd	r24, Z+1	; 0x01
     12e:	44 0f       	add	r20, r20
     130:	74 2f       	mov	r23, r20
     132:	77 0f       	add	r23, r23
     134:	77 0f       	add	r23, r23
     136:	47 0f       	add	r20, r23
     138:	74 2f       	mov	r23, r20
     13a:	78 0f       	add	r23, r24
     13c:	70 53       	subi	r23, 0x30	; 48
     13e:	f6 01       	movw	r30, r12
     140:	80 81       	ld	r24, Z
     142:	90 e0       	ldi	r25, 0x00	; 0
     144:	c0 97       	sbiw	r24, 0x30	; 48
     146:	91 81       	ldd	r25, Z+1	; 0x01
     148:	88 0f       	add	r24, r24
     14a:	58 2f       	mov	r21, r24
     14c:	55 0f       	add	r21, r21
     14e:	55 0f       	add	r21, r21
     150:	85 0f       	add	r24, r21
     152:	58 2f       	mov	r21, r24
     154:	59 0f       	add	r21, r25
     156:	50 53       	subi	r21, 0x30	; 48
     158:	88 81       	ld	r24, Y
     15a:	90 e0       	ldi	r25, 0x00	; 0
     15c:	c0 97       	sbiw	r24, 0x30	; 48
     15e:	99 81       	ldd	r25, Y+1	; 0x01
     160:	88 0f       	add	r24, r24
     162:	48 2f       	mov	r20, r24
     164:	44 0f       	add	r20, r20
     166:	44 0f       	add	r20, r20
     168:	84 0f       	add	r24, r20
     16a:	48 2f       	mov	r20, r24
     16c:	49 0f       	add	r20, r25
     16e:	40 53       	subi	r20, 0x30	; 48
     170:	8c 91       	ld	r24, X
     172:	90 e0       	ldi	r25, 0x00	; 0
     174:	c0 97       	sbiw	r24, 0x30	; 48
     176:	11 96       	adiw	r26, 0x01	; 1
     178:	9c 91       	ld	r25, X
     17a:	88 0f       	add	r24, r24
     17c:	68 2f       	mov	r22, r24
     17e:	66 0f       	add	r22, r22
     180:	66 0f       	add	r22, r22
     182:	86 0f       	add	r24, r22
     184:	89 0f       	add	r24, r25
     186:	60 ed       	ldi	r22, 0xD0	; 208
     188:	68 0f       	add	r22, r24
     18a:	f9 01       	movw	r30, r18
     18c:	80 81       	ld	r24, Z
     18e:	90 e0       	ldi	r25, 0x00	; 0
     190:	c0 97       	sbiw	r24, 0x30	; 48
     192:	91 81       	ldd	r25, Z+1	; 0x01
     194:	88 0f       	add	r24, r24
     196:	28 2f       	mov	r18, r24
     198:	22 0f       	add	r18, r18
     19a:	22 0f       	add	r18, r18
     19c:	82 0f       	add	r24, r18
     19e:	89 0f       	add	r24, r25
     1a0:	20 ed       	ldi	r18, 0xD0	; 208
     1a2:	28 0f       	add	r18, r24
     1a4:	f7 01       	movw	r30, r14
     1a6:	80 81       	ld	r24, Z
     1a8:	90 e0       	ldi	r25, 0x00	; 0
     1aa:	c0 97       	sbiw	r24, 0x30	; 48
     1ac:	91 81       	ldd	r25, Z+1	; 0x01
     1ae:	88 0f       	add	r24, r24
     1b0:	38 2f       	mov	r19, r24
     1b2:	33 0f       	add	r19, r19
     1b4:	33 0f       	add	r19, r19
     1b6:	83 0f       	add	r24, r19
     1b8:	89 0f       	add	r24, r25
     1ba:	80 53       	subi	r24, 0x30	; 48
     1bc:	44 36       	cpi	r20, 0x64	; 100
     1be:	70 f5       	brcc	.+92     	; 0x21c <changeDate+0x110>
     1c0:	5d 30       	cpi	r21, 0x0D	; 13
     1c2:	70 f5       	brcc	.+92     	; 0x220 <changeDate+0x114>
     1c4:	70 32       	cpi	r23, 0x20	; 32
     1c6:	70 f5       	brcc	.+92     	; 0x224 <changeDate+0x118>
     1c8:	7d 31       	cpi	r23, 0x1D	; 29
     1ca:	40 f0       	brcs	.+16     	; 0x1dc <changeDate+0xd0>
     1cc:	52 30       	cpi	r21, 0x02	; 2
     1ce:	31 f4       	brne	.+12     	; 0x1dc <changeDate+0xd0>
     1d0:	94 2f       	mov	r25, r20
     1d2:	93 70       	andi	r25, 0x03	; 3
     1d4:	49 f5       	brne	.+82     	; 0x228 <changeDate+0x11c>
     1d6:	7d 31       	cpi	r23, 0x1D	; 29
     1d8:	49 f5       	brne	.+82     	; 0x22c <changeDate+0x120>
     1da:	0c c0       	rjmp	.+24     	; 0x1f4 <changeDate+0xe8>
     1dc:	7f 31       	cpi	r23, 0x1F	; 31
     1de:	51 f4       	brne	.+20     	; 0x1f4 <changeDate+0xe8>
     1e0:	56 30       	cpi	r21, 0x06	; 6
     1e2:	31 f1       	breq	.+76     	; 0x230 <changeDate+0x124>
     1e4:	18 f4       	brcc	.+6      	; 0x1ec <changeDate+0xe0>
     1e6:	54 30       	cpi	r21, 0x04	; 4
     1e8:	29 f4       	brne	.+10     	; 0x1f4 <changeDate+0xe8>
     1ea:	22 c0       	rjmp	.+68     	; 0x230 <changeDate+0x124>
     1ec:	59 30       	cpi	r21, 0x09	; 9
     1ee:	01 f1       	breq	.+64     	; 0x230 <changeDate+0x124>
     1f0:	5b 30       	cpi	r21, 0x0B	; 11
     1f2:	f1 f0       	breq	.+60     	; 0x230 <changeDate+0x124>
     1f4:	8c 33       	cpi	r24, 0x3C	; 60
     1f6:	f0 f4       	brcc	.+60     	; 0x234 <changeDate+0x128>
     1f8:	6c 33       	cpi	r22, 0x3C	; 60
     1fa:	f0 f4       	brcc	.+60     	; 0x238 <changeDate+0x12c>
     1fc:	28 31       	cpi	r18, 0x18	; 24
     1fe:	f0 f4       	brcc	.+60     	; 0x23c <changeDate+0x130>
     200:	70 93 36 06 	sts	0x0636, r23	; 0x800636 <dia>
     204:	50 93 35 06 	sts	0x0635, r21	; 0x800635 <mes>
     208:	40 93 34 06 	sts	0x0634, r20	; 0x800634 <ano>
     20c:	20 93 9a 06 	sts	0x069A, r18	; 0x80069a <horas>
     210:	60 93 99 06 	sts	0x0699, r22	; 0x800699 <minutos>
     214:	80 93 98 06 	sts	0x0698, r24	; 0x800698 <segundos>
     218:	81 e0       	ldi	r24, 0x01	; 1
     21a:	11 c0       	rjmp	.+34     	; 0x23e <changeDate+0x132>
     21c:	80 e0       	ldi	r24, 0x00	; 0
     21e:	0f c0       	rjmp	.+30     	; 0x23e <changeDate+0x132>
     220:	80 e0       	ldi	r24, 0x00	; 0
     222:	0d c0       	rjmp	.+26     	; 0x23e <changeDate+0x132>
     224:	80 e0       	ldi	r24, 0x00	; 0
     226:	0b c0       	rjmp	.+22     	; 0x23e <changeDate+0x132>
     228:	80 e0       	ldi	r24, 0x00	; 0
     22a:	09 c0       	rjmp	.+18     	; 0x23e <changeDate+0x132>
     22c:	80 e0       	ldi	r24, 0x00	; 0
     22e:	07 c0       	rjmp	.+14     	; 0x23e <changeDate+0x132>
     230:	80 e0       	ldi	r24, 0x00	; 0
     232:	05 c0       	rjmp	.+10     	; 0x23e <changeDate+0x132>
     234:	80 e0       	ldi	r24, 0x00	; 0
     236:	03 c0       	rjmp	.+6      	; 0x23e <changeDate+0x132>
     238:	80 e0       	ldi	r24, 0x00	; 0
     23a:	01 c0       	rjmp	.+2      	; 0x23e <changeDate+0x132>
     23c:	80 e0       	ldi	r24, 0x00	; 0
     23e:	df 91       	pop	r29
     240:	cf 91       	pop	r28
     242:	1f 91       	pop	r17
     244:	0f 91       	pop	r16
     246:	ff 90       	pop	r15
     248:	ef 90       	pop	r14
     24a:	df 90       	pop	r13
     24c:	cf 90       	pop	r12
     24e:	08 95       	ret

00000250 <sumDate>:
     250:	50 91 36 06 	lds	r21, 0x0636	; 0x800636 <dia>
     254:	30 91 35 06 	lds	r19, 0x0635	; 0x800635 <mes>
     258:	60 91 34 06 	lds	r22, 0x0634	; 0x800634 <ano>
     25c:	46 2f       	mov	r20, r22
     25e:	20 e0       	ldi	r18, 0x00	; 0
     260:	26 c0       	rjmp	.+76     	; 0x2ae <sumDate+0x5e>
     262:	91 e0       	ldi	r25, 0x01	; 1
     264:	93 0f       	add	r25, r19
     266:	9d 30       	cpi	r25, 0x0D	; 13
     268:	30 f0       	brcs	.+12     	; 0x276 <sumDate+0x26>
     26a:	95 ef       	ldi	r25, 0xF5	; 245
     26c:	93 0f       	add	r25, r19
     26e:	4f 5f       	subi	r20, 0xFF	; 255
     270:	44 36       	cpi	r20, 0x64	; 100
     272:	08 f0       	brcs	.+2      	; 0x276 <sumDate+0x26>
     274:	56 c0       	rjmp	.+172    	; 0x322 <sumDate+0xd2>
     276:	96 30       	cpi	r25, 0x06	; 6
     278:	51 f0       	breq	.+20     	; 0x28e <sumDate+0x3e>
     27a:	28 f4       	brcc	.+10     	; 0x286 <sumDate+0x36>
     27c:	92 30       	cpi	r25, 0x02	; 2
     27e:	61 f0       	breq	.+24     	; 0x298 <sumDate+0x48>
     280:	94 30       	cpi	r25, 0x04	; 4
     282:	99 f4       	brne	.+38     	; 0x2aa <sumDate+0x5a>
     284:	04 c0       	rjmp	.+8      	; 0x28e <sumDate+0x3e>
     286:	99 30       	cpi	r25, 0x09	; 9
     288:	11 f0       	breq	.+4      	; 0x28e <sumDate+0x3e>
     28a:	9b 30       	cpi	r25, 0x0B	; 11
     28c:	71 f4       	brne	.+28     	; 0x2aa <sumDate+0x5a>
     28e:	5f 31       	cpi	r21, 0x1F	; 31
     290:	61 f4       	brne	.+24     	; 0x2aa <sumDate+0x5a>
     292:	9f 5f       	subi	r25, 0xFF	; 255
     294:	51 e0       	ldi	r21, 0x01	; 1
     296:	09 c0       	rjmp	.+18     	; 0x2aa <sumDate+0x5a>
     298:	5d 31       	cpi	r21, 0x1D	; 29
     29a:	38 f0       	brcs	.+14     	; 0x2aa <sumDate+0x5a>
     29c:	36 2f       	mov	r19, r22
     29e:	33 70       	andi	r19, 0x03	; 3
     2a0:	11 f4       	brne	.+4      	; 0x2a6 <sumDate+0x56>
     2a2:	5c 51       	subi	r21, 0x1C	; 28
     2a4:	01 c0       	rjmp	.+2      	; 0x2a8 <sumDate+0x58>
     2a6:	5b 51       	subi	r21, 0x1B	; 27
     2a8:	9f 5f       	subi	r25, 0xFF	; 255
     2aa:	2f 5f       	subi	r18, 0xFF	; 255
     2ac:	39 2f       	mov	r19, r25
     2ae:	28 17       	cp	r18, r24
     2b0:	c0 f2       	brcs	.-80     	; 0x262 <sumDate+0x12>
     2b2:	eb e9       	ldi	r30, 0x9B	; 155
     2b4:	f6 e0       	ldi	r31, 0x06	; 6
     2b6:	8d ec       	ldi	r24, 0xCD	; 205
     2b8:	58 9f       	mul	r21, r24
     2ba:	91 2d       	mov	r25, r1
     2bc:	11 24       	eor	r1, r1
     2be:	96 95       	lsr	r25
     2c0:	96 95       	lsr	r25
     2c2:	96 95       	lsr	r25
     2c4:	20 e3       	ldi	r18, 0x30	; 48
     2c6:	29 0f       	add	r18, r25
     2c8:	20 83       	st	Z, r18
     2ca:	99 0f       	add	r25, r25
     2cc:	29 2f       	mov	r18, r25
     2ce:	22 0f       	add	r18, r18
     2d0:	22 0f       	add	r18, r18
     2d2:	92 0f       	add	r25, r18
     2d4:	59 1b       	sub	r21, r25
     2d6:	50 5d       	subi	r21, 0xD0	; 208
     2d8:	51 83       	std	Z+1, r21	; 0x01
     2da:	38 9f       	mul	r19, r24
     2dc:	91 2d       	mov	r25, r1
     2de:	11 24       	eor	r1, r1
     2e0:	96 95       	lsr	r25
     2e2:	96 95       	lsr	r25
     2e4:	96 95       	lsr	r25
     2e6:	20 e3       	ldi	r18, 0x30	; 48
     2e8:	29 0f       	add	r18, r25
     2ea:	22 83       	std	Z+2, r18	; 0x02
     2ec:	99 0f       	add	r25, r25
     2ee:	29 2f       	mov	r18, r25
     2f0:	22 0f       	add	r18, r18
     2f2:	22 0f       	add	r18, r18
     2f4:	92 0f       	add	r25, r18
     2f6:	39 1b       	sub	r19, r25
     2f8:	30 5d       	subi	r19, 0xD0	; 208
     2fa:	33 83       	std	Z+3, r19	; 0x03
     2fc:	48 9f       	mul	r20, r24
     2fe:	81 2d       	mov	r24, r1
     300:	11 24       	eor	r1, r1
     302:	86 95       	lsr	r24
     304:	86 95       	lsr	r24
     306:	86 95       	lsr	r24
     308:	90 e3       	ldi	r25, 0x30	; 48
     30a:	98 0f       	add	r25, r24
     30c:	94 83       	std	Z+4, r25	; 0x04
     30e:	88 0f       	add	r24, r24
     310:	98 2f       	mov	r25, r24
     312:	99 0f       	add	r25, r25
     314:	99 0f       	add	r25, r25
     316:	89 0f       	add	r24, r25
     318:	48 1b       	sub	r20, r24
     31a:	40 5d       	subi	r20, 0xD0	; 208
     31c:	45 83       	std	Z+5, r20	; 0x05
     31e:	81 e0       	ldi	r24, 0x01	; 1
     320:	08 95       	ret
     322:	80 e0       	ldi	r24, 0x00	; 0
     324:	08 95       	ret

00000326 <atualizaMesAno>:
     326:	81 e0       	ldi	r24, 0x01	; 1
     328:	80 93 36 06 	sts	0x0636, r24	; 0x800636 <dia>
     32c:	80 91 35 06 	lds	r24, 0x0635	; 0x800635 <mes>
     330:	8f 5f       	subi	r24, 0xFF	; 255
     332:	80 93 35 06 	sts	0x0635, r24	; 0x800635 <mes>
     336:	8d 30       	cpi	r24, 0x0D	; 13
     338:	61 f4       	brne	.+24     	; 0x352 <atualizaMesAno+0x2c>
     33a:	81 e0       	ldi	r24, 0x01	; 1
     33c:	80 93 35 06 	sts	0x0635, r24	; 0x800635 <mes>
     340:	80 91 34 06 	lds	r24, 0x0634	; 0x800634 <ano>
     344:	8f 5f       	subi	r24, 0xFF	; 255
     346:	80 93 34 06 	sts	0x0634, r24	; 0x800634 <ano>
     34a:	84 36       	cpi	r24, 0x64	; 100
     34c:	11 f4       	brne	.+4      	; 0x352 <atualizaMesAno+0x2c>
     34e:	10 92 34 06 	sts	0x0634, r1	; 0x800634 <ano>
     352:	08 95       	ret

00000354 <updateDate>:
     354:	80 91 98 06 	lds	r24, 0x0698	; 0x800698 <segundos>
     358:	8f 5f       	subi	r24, 0xFF	; 255
     35a:	80 93 98 06 	sts	0x0698, r24	; 0x800698 <segundos>
     35e:	8c 33       	cpi	r24, 0x3C	; 60
     360:	39 f4       	brne	.+14     	; 0x370 <updateDate+0x1c>
     362:	10 92 98 06 	sts	0x0698, r1	; 0x800698 <segundos>
     366:	80 91 99 06 	lds	r24, 0x0699	; 0x800699 <minutos>
     36a:	8f 5f       	subi	r24, 0xFF	; 255
     36c:	80 93 99 06 	sts	0x0699, r24	; 0x800699 <minutos>
     370:	80 91 99 06 	lds	r24, 0x0699	; 0x800699 <minutos>
     374:	8c 33       	cpi	r24, 0x3C	; 60
     376:	39 f4       	brne	.+14     	; 0x386 <updateDate+0x32>
     378:	10 92 99 06 	sts	0x0699, r1	; 0x800699 <minutos>
     37c:	80 91 9a 06 	lds	r24, 0x069A	; 0x80069a <horas>
     380:	8f 5f       	subi	r24, 0xFF	; 255
     382:	80 93 9a 06 	sts	0x069A, r24	; 0x80069a <horas>
     386:	80 91 9a 06 	lds	r24, 0x069A	; 0x80069a <horas>
     38a:	88 31       	cpi	r24, 0x18	; 24
     38c:	41 f5       	brne	.+80     	; 0x3de <updateDate+0x8a>
     38e:	10 92 9a 06 	sts	0x069A, r1	; 0x80069a <horas>
     392:	20 91 36 06 	lds	r18, 0x0636	; 0x800636 <dia>
     396:	2f 5f       	subi	r18, 0xFF	; 255
     398:	20 93 36 06 	sts	0x0636, r18	; 0x800636 <dia>
     39c:	e0 91 35 06 	lds	r30, 0x0635	; 0x800635 <mes>
     3a0:	8e 2f       	mov	r24, r30
     3a2:	90 e0       	ldi	r25, 0x00	; 0
     3a4:	fc 01       	movw	r30, r24
     3a6:	31 97       	sbiw	r30, 0x01	; 1
     3a8:	ec 30       	cpi	r30, 0x0C	; 12
     3aa:	f1 05       	cpc	r31, r1
     3ac:	a0 f4       	brcc	.+40     	; 0x3d6 <updateDate+0x82>
     3ae:	ec 5c       	subi	r30, 0xCC	; 204
     3b0:	ff 4f       	sbci	r31, 0xFF	; 255
     3b2:	0c 94 0b 1a 	jmp	0x3416	; 0x3416 <__tablejump2__>
     3b6:	20 32       	cpi	r18, 0x20	; 32
     3b8:	91 f4       	brne	.+36     	; 0x3de <updateDate+0x8a>
     3ba:	0e 94 93 01 	call	0x326	; 0x326 <atualizaMesAno>
     3be:	08 95       	ret
     3c0:	2d 31       	cpi	r18, 0x1D	; 29
     3c2:	21 f4       	brne	.+8      	; 0x3cc <updateDate+0x78>
     3c4:	80 91 34 06 	lds	r24, 0x0634	; 0x800634 <ano>
     3c8:	83 70       	andi	r24, 0x03	; 3
     3ca:	11 f4       	brne	.+4      	; 0x3d0 <updateDate+0x7c>
     3cc:	2e 31       	cpi	r18, 0x1E	; 30
     3ce:	39 f4       	brne	.+14     	; 0x3de <updateDate+0x8a>
     3d0:	0e 94 93 01 	call	0x326	; 0x326 <atualizaMesAno>
     3d4:	08 95       	ret
     3d6:	2f 31       	cpi	r18, 0x1F	; 31
     3d8:	11 f4       	brne	.+4      	; 0x3de <updateDate+0x8a>
     3da:	0e 94 93 01 	call	0x326	; 0x326 <atualizaMesAno>
     3de:	08 95       	ret

000003e0 <AtualizaStringHora>:
     3e0:	20 91 9a 06 	lds	r18, 0x069A	; 0x80069a <horas>
     3e4:	ea ea       	ldi	r30, 0xAA	; 170
     3e6:	f6 e0       	ldi	r31, 0x06	; 6
     3e8:	8d ec       	ldi	r24, 0xCD	; 205
     3ea:	28 9f       	mul	r18, r24
     3ec:	91 2d       	mov	r25, r1
     3ee:	11 24       	eor	r1, r1
     3f0:	96 95       	lsr	r25
     3f2:	96 95       	lsr	r25
     3f4:	96 95       	lsr	r25
     3f6:	30 e3       	ldi	r19, 0x30	; 48
     3f8:	39 0f       	add	r19, r25
     3fa:	30 83       	st	Z, r19
     3fc:	99 0f       	add	r25, r25
     3fe:	39 2f       	mov	r19, r25
     400:	33 0f       	add	r19, r19
     402:	33 0f       	add	r19, r19
     404:	93 0f       	add	r25, r19
     406:	29 1b       	sub	r18, r25
     408:	20 5d       	subi	r18, 0xD0	; 208
     40a:	21 83       	std	Z+1, r18	; 0x01
     40c:	20 91 99 06 	lds	r18, 0x0699	; 0x800699 <minutos>
     410:	28 9f       	mul	r18, r24
     412:	91 2d       	mov	r25, r1
     414:	11 24       	eor	r1, r1
     416:	96 95       	lsr	r25
     418:	96 95       	lsr	r25
     41a:	96 95       	lsr	r25
     41c:	30 e3       	ldi	r19, 0x30	; 48
     41e:	39 0f       	add	r19, r25
     420:	33 83       	std	Z+3, r19	; 0x03
     422:	99 0f       	add	r25, r25
     424:	39 2f       	mov	r19, r25
     426:	33 0f       	add	r19, r19
     428:	33 0f       	add	r19, r19
     42a:	93 0f       	add	r25, r19
     42c:	29 1b       	sub	r18, r25
     42e:	20 5d       	subi	r18, 0xD0	; 208
     430:	24 83       	std	Z+4, r18	; 0x04
     432:	90 91 98 06 	lds	r25, 0x0698	; 0x800698 <segundos>
     436:	98 9f       	mul	r25, r24
     438:	81 2d       	mov	r24, r1
     43a:	11 24       	eor	r1, r1
     43c:	86 95       	lsr	r24
     43e:	86 95       	lsr	r24
     440:	86 95       	lsr	r24
     442:	20 e3       	ldi	r18, 0x30	; 48
     444:	28 0f       	add	r18, r24
     446:	26 83       	std	Z+6, r18	; 0x06
     448:	88 0f       	add	r24, r24
     44a:	28 2f       	mov	r18, r24
     44c:	22 0f       	add	r18, r18
     44e:	22 0f       	add	r18, r18
     450:	82 0f       	add	r24, r18
     452:	98 1b       	sub	r25, r24
     454:	90 5d       	subi	r25, 0xD0	; 208
     456:	97 83       	std	Z+7, r25	; 0x07
     458:	08 95       	ret

0000045a <AtualizaStringData>:
     45a:	20 91 36 06 	lds	r18, 0x0636	; 0x800636 <dia>
     45e:	e1 ea       	ldi	r30, 0xA1	; 161
     460:	f6 e0       	ldi	r31, 0x06	; 6
     462:	8d ec       	ldi	r24, 0xCD	; 205
     464:	28 9f       	mul	r18, r24
     466:	91 2d       	mov	r25, r1
     468:	11 24       	eor	r1, r1
     46a:	96 95       	lsr	r25
     46c:	96 95       	lsr	r25
     46e:	96 95       	lsr	r25
     470:	30 e3       	ldi	r19, 0x30	; 48
     472:	39 0f       	add	r19, r25
     474:	30 83       	st	Z, r19
     476:	99 0f       	add	r25, r25
     478:	39 2f       	mov	r19, r25
     47a:	33 0f       	add	r19, r19
     47c:	33 0f       	add	r19, r19
     47e:	93 0f       	add	r25, r19
     480:	29 1b       	sub	r18, r25
     482:	20 5d       	subi	r18, 0xD0	; 208
     484:	21 83       	std	Z+1, r18	; 0x01
     486:	20 91 35 06 	lds	r18, 0x0635	; 0x800635 <mes>
     48a:	28 9f       	mul	r18, r24
     48c:	91 2d       	mov	r25, r1
     48e:	11 24       	eor	r1, r1
     490:	96 95       	lsr	r25
     492:	96 95       	lsr	r25
     494:	96 95       	lsr	r25
     496:	30 e3       	ldi	r19, 0x30	; 48
     498:	39 0f       	add	r19, r25
     49a:	33 83       	std	Z+3, r19	; 0x03
     49c:	99 0f       	add	r25, r25
     49e:	39 2f       	mov	r19, r25
     4a0:	33 0f       	add	r19, r19
     4a2:	33 0f       	add	r19, r19
     4a4:	93 0f       	add	r25, r19
     4a6:	29 1b       	sub	r18, r25
     4a8:	20 5d       	subi	r18, 0xD0	; 208
     4aa:	24 83       	std	Z+4, r18	; 0x04
     4ac:	90 91 34 06 	lds	r25, 0x0634	; 0x800634 <ano>
     4b0:	98 9f       	mul	r25, r24
     4b2:	81 2d       	mov	r24, r1
     4b4:	11 24       	eor	r1, r1
     4b6:	86 95       	lsr	r24
     4b8:	86 95       	lsr	r24
     4ba:	86 95       	lsr	r24
     4bc:	20 e3       	ldi	r18, 0x30	; 48
     4be:	28 0f       	add	r18, r24
     4c0:	26 83       	std	Z+6, r18	; 0x06
     4c2:	88 0f       	add	r24, r24
     4c4:	28 2f       	mov	r18, r24
     4c6:	22 0f       	add	r18, r18
     4c8:	22 0f       	add	r18, r18
     4ca:	82 0f       	add	r24, r18
     4cc:	98 1b       	sub	r25, r24
     4ce:	90 5d       	subi	r25, 0xD0	; 208
     4d0:	97 83       	std	Z+7, r25	; 0x07
     4d2:	08 95       	ret

000004d4 <AtualizaStringDataHora>:
     4d4:	0e 94 2d 02 	call	0x45a	; 0x45a <AtualizaStringData>
     4d8:	0e 94 f0 01 	call	0x3e0	; 0x3e0 <AtualizaStringHora>
     4dc:	08 95       	ret

000004de <verificarContasLocais>:
     4de:	dc 01       	movw	r26, r24
     4e0:	60 e0       	ldi	r22, 0x00	; 0
     4e2:	22 c0       	rjmp	.+68     	; 0x528 <verificarContasLocais+0x4a>
     4e4:	26 2f       	mov	r18, r22
     4e6:	30 e0       	ldi	r19, 0x00	; 0
     4e8:	49 2f       	mov	r20, r25
     4ea:	50 e0       	ldi	r21, 0x00	; 0
     4ec:	f9 01       	movw	r30, r18
     4ee:	ee 0f       	add	r30, r30
     4f0:	ff 1f       	adc	r31, r31
     4f2:	e2 0f       	add	r30, r18
     4f4:	f3 1f       	adc	r31, r19
     4f6:	ee 0f       	add	r30, r30
     4f8:	ff 1f       	adc	r31, r31
     4fa:	ec 58       	subi	r30, 0x8C	; 140
     4fc:	f9 4f       	sbci	r31, 0xF9	; 249
     4fe:	9a 01       	movw	r18, r20
     500:	e2 0f       	add	r30, r18
     502:	f3 1f       	adc	r31, r19
     504:	40 81       	ld	r20, Z
     506:	fd 01       	movw	r30, r26
     508:	e2 0f       	add	r30, r18
     50a:	f3 1f       	adc	r31, r19
     50c:	80 81       	ld	r24, Z
     50e:	48 13       	cpse	r20, r24
     510:	0a c0       	rjmp	.+20     	; 0x526 <verificarContasLocais+0x48>
     512:	95 30       	cpi	r25, 0x05	; 5
     514:	19 f4       	brne	.+6      	; 0x51c <verificarContasLocais+0x3e>
     516:	81 e0       	ldi	r24, 0x01	; 1
     518:	86 0f       	add	r24, r22
     51a:	08 95       	ret
     51c:	9f 5f       	subi	r25, 0xFF	; 255
     51e:	01 c0       	rjmp	.+2      	; 0x522 <verificarContasLocais+0x44>
     520:	90 e0       	ldi	r25, 0x00	; 0
     522:	96 30       	cpi	r25, 0x06	; 6
     524:	f8 f2       	brcs	.-66     	; 0x4e4 <verificarContasLocais+0x6>
     526:	6f 5f       	subi	r22, 0xFF	; 255
     528:	65 30       	cpi	r22, 0x05	; 5
     52a:	d0 f3       	brcs	.-12     	; 0x520 <verificarContasLocais+0x42>
     52c:	80 e0       	ldi	r24, 0x00	; 0
     52e:	08 95       	ret

00000530 <verificaCashBack>:
     530:	e8 2f       	mov	r30, r24
     532:	f0 e0       	ldi	r31, 0x00	; 0
     534:	e0 5b       	subi	r30, 0xB0	; 176
     536:	f9 4f       	sbci	r31, 0xF9	; 249
     538:	80 81       	ld	r24, Z
     53a:	83 30       	cpi	r24, 0x03	; 3
     53c:	11 f4       	brne	.+4      	; 0x542 <verificaCashBack+0x12>
     53e:	81 e0       	ldi	r24, 0x01	; 1
     540:	08 95       	ret
     542:	80 e0       	ldi	r24, 0x00	; 0
     544:	08 95       	ret

00000546 <carregaSaldo>:
     546:	dc 01       	movw	r26, r24
     548:	90 e0       	ldi	r25, 0x00	; 0
     54a:	17 c0       	rjmp	.+46     	; 0x57a <carregaSaldo+0x34>
     54c:	20 91 37 06 	lds	r18, 0x0637	; 0x800637 <cartoesCadastrados>
     550:	30 e0       	ldi	r19, 0x00	; 0
     552:	49 2f       	mov	r20, r25
     554:	50 e0       	ldi	r21, 0x00	; 0
     556:	fd 01       	movw	r30, r26
     558:	e4 0f       	add	r30, r20
     55a:	f5 1f       	adc	r31, r21
     55c:	60 81       	ld	r22, Z
     55e:	f9 01       	movw	r30, r18
     560:	ee 0f       	add	r30, r30
     562:	ff 1f       	adc	r31, r31
     564:	ee 0f       	add	r30, r30
     566:	ff 1f       	adc	r31, r31
     568:	2e 0f       	add	r18, r30
     56a:	3f 1f       	adc	r19, r31
     56c:	28 5c       	subi	r18, 0xC8	; 200
     56e:	39 4f       	sbci	r19, 0xF9	; 249
     570:	f9 01       	movw	r30, r18
     572:	e4 0f       	add	r30, r20
     574:	f5 1f       	adc	r31, r21
     576:	60 83       	st	Z, r22
     578:	9f 5f       	subi	r25, 0xFF	; 255
     57a:	95 30       	cpi	r25, 0x05	; 5
     57c:	38 f3       	brcs	.-50     	; 0x54c <carregaSaldo+0x6>
     57e:	08 95       	ret

00000580 <carregaNumCartao>:
     580:	dc 01       	movw	r26, r24
     582:	90 e0       	ldi	r25, 0x00	; 0
     584:	17 c0       	rjmp	.+46     	; 0x5b4 <carregaNumCartao+0x34>
     586:	20 91 37 06 	lds	r18, 0x0637	; 0x800637 <cartoesCadastrados>
     58a:	30 e0       	ldi	r19, 0x00	; 0
     58c:	49 2f       	mov	r20, r25
     58e:	50 e0       	ldi	r21, 0x00	; 0
     590:	fd 01       	movw	r30, r26
     592:	e4 0f       	add	r30, r20
     594:	f5 1f       	adc	r31, r21
     596:	60 81       	ld	r22, Z
     598:	f9 01       	movw	r30, r18
     59a:	ee 0f       	add	r30, r30
     59c:	ff 1f       	adc	r31, r31
     59e:	2e 0f       	add	r18, r30
     5a0:	3f 1f       	adc	r19, r31
     5a2:	22 0f       	add	r18, r18
     5a4:	33 1f       	adc	r19, r19
     5a6:	2c 58       	subi	r18, 0x8C	; 140
     5a8:	39 4f       	sbci	r19, 0xF9	; 249
     5aa:	f9 01       	movw	r30, r18
     5ac:	e4 0f       	add	r30, r20
     5ae:	f5 1f       	adc	r31, r21
     5b0:	60 83       	st	Z, r22
     5b2:	9f 5f       	subi	r25, 0xFF	; 255
     5b4:	96 30       	cpi	r25, 0x06	; 6
     5b6:	38 f3       	brcs	.-50     	; 0x586 <carregaNumCartao+0x6>
     5b8:	08 95       	ret

000005ba <carregaSenha>:
     5ba:	dc 01       	movw	r26, r24
     5bc:	90 e0       	ldi	r25, 0x00	; 0
     5be:	17 c0       	rjmp	.+46     	; 0x5ee <carregaSenha+0x34>
     5c0:	20 91 37 06 	lds	r18, 0x0637	; 0x800637 <cartoesCadastrados>
     5c4:	30 e0       	ldi	r19, 0x00	; 0
     5c6:	49 2f       	mov	r20, r25
     5c8:	50 e0       	ldi	r21, 0x00	; 0
     5ca:	fd 01       	movw	r30, r26
     5cc:	e4 0f       	add	r30, r20
     5ce:	f5 1f       	adc	r31, r21
     5d0:	60 81       	ld	r22, Z
     5d2:	f9 01       	movw	r30, r18
     5d4:	ee 0f       	add	r30, r30
     5d6:	ff 1f       	adc	r31, r31
     5d8:	2e 0f       	add	r18, r30
     5da:	3f 1f       	adc	r19, r31
     5dc:	22 0f       	add	r18, r18
     5de:	33 1f       	adc	r19, r19
     5e0:	2a 5a       	subi	r18, 0xAA	; 170
     5e2:	39 4f       	sbci	r19, 0xF9	; 249
     5e4:	f9 01       	movw	r30, r18
     5e6:	e4 0f       	add	r30, r20
     5e8:	f5 1f       	adc	r31, r21
     5ea:	60 83       	st	Z, r22
     5ec:	9f 5f       	subi	r25, 0xFF	; 255
     5ee:	96 30       	cpi	r25, 0x06	; 6
     5f0:	38 f3       	brcs	.-50     	; 0x5c0 <carregaSenha+0x6>
     5f2:	08 95       	ret

000005f4 <addCartao>:
     5f4:	0f 93       	push	r16
     5f6:	1f 93       	push	r17
     5f8:	cf 93       	push	r28
     5fa:	df 93       	push	r29
     5fc:	20 91 37 06 	lds	r18, 0x0637	; 0x800637 <cartoesCadastrados>
     600:	25 30       	cpi	r18, 0x05	; 5
     602:	b8 f4       	brcc	.+46     	; 0x632 <addCartao+0x3e>
     604:	eb 01       	movw	r28, r22
     606:	8c 01       	movw	r16, r24
     608:	ca 01       	movw	r24, r20
     60a:	0e 94 a3 02 	call	0x546	; 0x546 <carregaSaldo>
     60e:	c8 01       	movw	r24, r16
     610:	0e 94 c0 02 	call	0x580	; 0x580 <carregaNumCartao>
     614:	ce 01       	movw	r24, r28
     616:	0e 94 dd 02 	call	0x5ba	; 0x5ba <carregaSenha>
     61a:	80 91 37 06 	lds	r24, 0x0637	; 0x800637 <cartoesCadastrados>
     61e:	e8 2f       	mov	r30, r24
     620:	f0 e0       	ldi	r31, 0x00	; 0
     622:	ef 5a       	subi	r30, 0xAF	; 175
     624:	f9 4f       	sbci	r31, 0xF9	; 249
     626:	10 82       	st	Z, r1
     628:	8f 5f       	subi	r24, 0xFF	; 255
     62a:	80 93 37 06 	sts	0x0637, r24	; 0x800637 <cartoesCadastrados>
     62e:	81 e0       	ldi	r24, 0x01	; 1
     630:	01 c0       	rjmp	.+2      	; 0x634 <addCartao+0x40>
     632:	80 e0       	ldi	r24, 0x00	; 0
     634:	df 91       	pop	r29
     636:	cf 91       	pop	r28
     638:	1f 91       	pop	r17
     63a:	0f 91       	pop	r16
     63c:	08 95       	ret

0000063e <subtraiSaldo>:
     63e:	cf 92       	push	r12
     640:	df 92       	push	r13
     642:	ef 92       	push	r14
     644:	ff 92       	push	r15
     646:	0f 93       	push	r16
     648:	1f 93       	push	r17
     64a:	cf 93       	push	r28
     64c:	df 93       	push	r29
     64e:	81 50       	subi	r24, 0x01	; 1
     650:	e0 e0       	ldi	r30, 0x00	; 0
     652:	f0 e0       	ldi	r31, 0x00	; 0
     654:	c1 2c       	mov	r12, r1
     656:	d1 2c       	mov	r13, r1
     658:	90 e0       	ldi	r25, 0x00	; 0
     65a:	67 c0       	rjmp	.+206    	; 0x72a <subtraiSaldo+0xec>
     65c:	92 30       	cpi	r25, 0x02	; 2
     65e:	59 f0       	breq	.+22     	; 0x676 <subtraiSaldo+0x38>
     660:	28 f4       	brcc	.+10     	; 0x66c <subtraiSaldo+0x2e>
     662:	99 23       	and	r25, r25
     664:	41 f0       	breq	.+16     	; 0x676 <subtraiSaldo+0x38>
     666:	91 30       	cpi	r25, 0x01	; 1
     668:	79 f0       	breq	.+30     	; 0x688 <subtraiSaldo+0x4a>
     66a:	0b c0       	rjmp	.+22     	; 0x682 <subtraiSaldo+0x44>
     66c:	93 30       	cpi	r25, 0x03	; 3
     66e:	61 f0       	breq	.+24     	; 0x688 <subtraiSaldo+0x4a>
     670:	94 30       	cpi	r25, 0x04	; 4
     672:	21 f0       	breq	.+8      	; 0x67c <subtraiSaldo+0x3e>
     674:	06 c0       	rjmp	.+12     	; 0x682 <subtraiSaldo+0x44>
     676:	41 e0       	ldi	r20, 0x01	; 1
     678:	50 e0       	ldi	r21, 0x00	; 0
     67a:	08 c0       	rjmp	.+16     	; 0x68c <subtraiSaldo+0x4e>
     67c:	44 e6       	ldi	r20, 0x64	; 100
     67e:	50 e0       	ldi	r21, 0x00	; 0
     680:	05 c0       	rjmp	.+10     	; 0x68c <subtraiSaldo+0x4e>
     682:	40 e0       	ldi	r20, 0x00	; 0
     684:	50 e0       	ldi	r21, 0x00	; 0
     686:	02 c0       	rjmp	.+4      	; 0x68c <subtraiSaldo+0x4e>
     688:	4a e0       	ldi	r20, 0x0A	; 10
     68a:	50 e0       	ldi	r21, 0x00	; 0
     68c:	92 30       	cpi	r25, 0x02	; 2
     68e:	38 f5       	brcc	.+78     	; 0x6de <subtraiSaldo+0xa0>
     690:	a9 2f       	mov	r26, r25
     692:	b0 e0       	ldi	r27, 0x00	; 0
     694:	24 e0       	ldi	r18, 0x04	; 4
     696:	30 e0       	ldi	r19, 0x00	; 0
     698:	89 01       	movw	r16, r18
     69a:	0a 1b       	sub	r16, r26
     69c:	1b 0b       	sbc	r17, r27
     69e:	28 2f       	mov	r18, r24
     6a0:	30 e0       	ldi	r19, 0x00	; 0
     6a2:	79 01       	movw	r14, r18
     6a4:	ee 0c       	add	r14, r14
     6a6:	ff 1c       	adc	r15, r15
     6a8:	ee 0c       	add	r14, r14
     6aa:	ff 1c       	adc	r15, r15
     6ac:	2e 0d       	add	r18, r14
     6ae:	3f 1d       	adc	r19, r15
     6b0:	28 5c       	subi	r18, 0xC8	; 200
     6b2:	39 4f       	sbci	r19, 0xF9	; 249
     6b4:	20 0f       	add	r18, r16
     6b6:	31 1f       	adc	r19, r17
     6b8:	e9 01       	movw	r28, r18
     6ba:	28 81       	ld	r18, Y
     6bc:	ed 01       	movw	r28, r26
     6be:	c6 0f       	add	r28, r22
     6c0:	d7 1f       	adc	r29, r23
     6c2:	c8 81       	ld	r28, Y
     6c4:	30 e0       	ldi	r19, 0x00	; 0
     6c6:	2c 1b       	sub	r18, r28
     6c8:	31 09       	sbc	r19, r1
     6ca:	42 9f       	mul	r20, r18
     6cc:	e0 01       	movw	r28, r0
     6ce:	43 9f       	mul	r20, r19
     6d0:	d0 0d       	add	r29, r0
     6d2:	52 9f       	mul	r21, r18
     6d4:	d0 0d       	add	r29, r0
     6d6:	11 24       	eor	r1, r1
     6d8:	cc 0e       	add	r12, r28
     6da:	dd 1e       	adc	r13, r29
     6dc:	25 c0       	rjmp	.+74     	; 0x728 <subtraiSaldo+0xea>
     6de:	c9 2f       	mov	r28, r25
     6e0:	d0 e0       	ldi	r29, 0x00	; 0
     6e2:	24 e0       	ldi	r18, 0x04	; 4
     6e4:	30 e0       	ldi	r19, 0x00	; 0
     6e6:	89 01       	movw	r16, r18
     6e8:	0c 1b       	sub	r16, r28
     6ea:	1d 0b       	sbc	r17, r29
     6ec:	28 2f       	mov	r18, r24
     6ee:	30 e0       	ldi	r19, 0x00	; 0
     6f0:	79 01       	movw	r14, r18
     6f2:	ee 0c       	add	r14, r14
     6f4:	ff 1c       	adc	r15, r15
     6f6:	ee 0c       	add	r14, r14
     6f8:	ff 1c       	adc	r15, r15
     6fa:	2e 0d       	add	r18, r14
     6fc:	3f 1d       	adc	r19, r15
     6fe:	28 5c       	subi	r18, 0xC8	; 200
     700:	39 4f       	sbci	r19, 0xF9	; 249
     702:	20 0f       	add	r18, r16
     704:	31 1f       	adc	r19, r17
     706:	d9 01       	movw	r26, r18
     708:	2c 91       	ld	r18, X
     70a:	c6 0f       	add	r28, r22
     70c:	d7 1f       	adc	r29, r23
     70e:	c8 81       	ld	r28, Y
     710:	30 e0       	ldi	r19, 0x00	; 0
     712:	2c 1b       	sub	r18, r28
     714:	31 09       	sbc	r19, r1
     716:	42 9f       	mul	r20, r18
     718:	e0 01       	movw	r28, r0
     71a:	43 9f       	mul	r20, r19
     71c:	d0 0d       	add	r29, r0
     71e:	52 9f       	mul	r21, r18
     720:	d0 0d       	add	r29, r0
     722:	11 24       	eor	r1, r1
     724:	ec 0f       	add	r30, r28
     726:	fd 1f       	adc	r31, r29
     728:	9f 5f       	subi	r25, 0xFF	; 255
     72a:	95 30       	cpi	r25, 0x05	; 5
     72c:	08 f4       	brcc	.+2      	; 0x730 <subtraiSaldo+0xf2>
     72e:	96 cf       	rjmp	.-212    	; 0x65c <subtraiSaldo+0x1e>
     730:	dd 20       	and	r13, r13
     732:	24 f4       	brge	.+8      	; 0x73c <subtraiSaldo+0xfe>
     734:	31 97       	sbiw	r30, 0x01	; 1
     736:	b4 e6       	ldi	r27, 0x64	; 100
     738:	cb 0e       	add	r12, r27
     73a:	d1 1c       	adc	r13, r1
     73c:	c8 2f       	mov	r28, r24
     73e:	d0 e0       	ldi	r29, 0x00	; 0
     740:	2a e0       	ldi	r18, 0x0A	; 10
     742:	30 e0       	ldi	r19, 0x00	; 0
     744:	c6 01       	movw	r24, r12
     746:	b9 01       	movw	r22, r18
     748:	0e 94 f7 19 	call	0x33ee	; 0x33ee <__divmodhi4>
     74c:	ae 01       	movw	r20, r28
     74e:	44 0f       	add	r20, r20
     750:	55 1f       	adc	r21, r21
     752:	44 0f       	add	r20, r20
     754:	55 1f       	adc	r21, r21
     756:	c4 0f       	add	r28, r20
     758:	d5 1f       	adc	r29, r21
     75a:	c8 5c       	subi	r28, 0xC8	; 200
     75c:	d9 4f       	sbci	r29, 0xF9	; 249
     75e:	80 5d       	subi	r24, 0xD0	; 208
     760:	8c 83       	std	Y+4, r24	; 0x04
     762:	60 5d       	subi	r22, 0xD0	; 208
     764:	6b 83       	std	Y+3, r22	; 0x03
     766:	cf 01       	movw	r24, r30
     768:	64 e6       	ldi	r22, 0x64	; 100
     76a:	70 e0       	ldi	r23, 0x00	; 0
     76c:	0e 94 f7 19 	call	0x33ee	; 0x33ee <__divmodhi4>
     770:	cf 01       	movw	r24, r30
     772:	44 e6       	ldi	r20, 0x64	; 100
     774:	64 9f       	mul	r22, r20
     776:	80 19       	sub	r24, r0
     778:	91 09       	sbc	r25, r1
     77a:	11 24       	eor	r1, r1
     77c:	60 5d       	subi	r22, 0xD0	; 208
     77e:	68 83       	st	Y, r22
     780:	b9 01       	movw	r22, r18
     782:	0e 94 f7 19 	call	0x33ee	; 0x33ee <__divmodhi4>
     786:	60 5d       	subi	r22, 0xD0	; 208
     788:	69 83       	std	Y+1, r22	; 0x01
     78a:	80 5d       	subi	r24, 0xD0	; 208
     78c:	8a 83       	std	Y+2, r24	; 0x02
     78e:	df 91       	pop	r29
     790:	cf 91       	pop	r28
     792:	1f 91       	pop	r17
     794:	0f 91       	pop	r16
     796:	ff 90       	pop	r15
     798:	ef 90       	pop	r14
     79a:	df 90       	pop	r13
     79c:	cf 90       	pop	r12
     79e:	08 95       	ret

000007a0 <verificaSaldo>:
     7a0:	81 50       	subi	r24, 0x01	; 1
     7a2:	90 e0       	ldi	r25, 0x00	; 0
     7a4:	fc 01       	movw	r30, r24
     7a6:	ee 0f       	add	r30, r30
     7a8:	ff 1f       	adc	r31, r31
     7aa:	ee 0f       	add	r30, r30
     7ac:	ff 1f       	adc	r31, r31
     7ae:	e8 0f       	add	r30, r24
     7b0:	f9 1f       	adc	r31, r25
     7b2:	e8 5c       	subi	r30, 0xC8	; 200
     7b4:	f9 4f       	sbci	r31, 0xF9	; 249
     7b6:	30 81       	ld	r19, Z
     7b8:	fb 01       	movw	r30, r22
     7ba:	24 81       	ldd	r18, Z+4	; 0x04
     7bc:	23 17       	cp	r18, r19
     7be:	08 f4       	brcc	.+2      	; 0x7c2 <verificaSaldo+0x22>
     7c0:	9a c0       	rjmp	.+308    	; 0x8f6 <__DATA_REGION_LENGTH__+0xf6>
     7c2:	32 13       	cpse	r19, r18
     7c4:	0f c0       	rjmp	.+30     	; 0x7e4 <verificaSaldo+0x44>
     7c6:	fc 01       	movw	r30, r24
     7c8:	ee 0f       	add	r30, r30
     7ca:	ff 1f       	adc	r31, r31
     7cc:	ee 0f       	add	r30, r30
     7ce:	ff 1f       	adc	r31, r31
     7d0:	e8 0f       	add	r30, r24
     7d2:	f9 1f       	adc	r31, r25
     7d4:	e8 5c       	subi	r30, 0xC8	; 200
     7d6:	f9 4f       	sbci	r31, 0xF9	; 249
     7d8:	51 81       	ldd	r21, Z+1	; 0x01
     7da:	fb 01       	movw	r30, r22
     7dc:	43 81       	ldd	r20, Z+3	; 0x03
     7de:	45 17       	cp	r20, r21
     7e0:	08 f4       	brcc	.+2      	; 0x7e4 <verificaSaldo+0x44>
     7e2:	8b c0       	rjmp	.+278    	; 0x8fa <__DATA_REGION_LENGTH__+0xfa>
     7e4:	32 13       	cpse	r19, r18
     7e6:	1d c0       	rjmp	.+58     	; 0x822 <__DATA_REGION_LENGTH__+0x22>
     7e8:	fc 01       	movw	r30, r24
     7ea:	ee 0f       	add	r30, r30
     7ec:	ff 1f       	adc	r31, r31
     7ee:	ee 0f       	add	r30, r30
     7f0:	ff 1f       	adc	r31, r31
     7f2:	e8 0f       	add	r30, r24
     7f4:	f9 1f       	adc	r31, r25
     7f6:	e8 5c       	subi	r30, 0xC8	; 200
     7f8:	f9 4f       	sbci	r31, 0xF9	; 249
     7fa:	51 81       	ldd	r21, Z+1	; 0x01
     7fc:	fb 01       	movw	r30, r22
     7fe:	43 81       	ldd	r20, Z+3	; 0x03
     800:	54 13       	cpse	r21, r20
     802:	0f c0       	rjmp	.+30     	; 0x822 <__DATA_REGION_LENGTH__+0x22>
     804:	fc 01       	movw	r30, r24
     806:	ee 0f       	add	r30, r30
     808:	ff 1f       	adc	r31, r31
     80a:	ee 0f       	add	r30, r30
     80c:	ff 1f       	adc	r31, r31
     80e:	e8 0f       	add	r30, r24
     810:	f9 1f       	adc	r31, r25
     812:	e8 5c       	subi	r30, 0xC8	; 200
     814:	f9 4f       	sbci	r31, 0xF9	; 249
     816:	52 81       	ldd	r21, Z+2	; 0x02
     818:	fb 01       	movw	r30, r22
     81a:	42 81       	ldd	r20, Z+2	; 0x02
     81c:	45 17       	cp	r20, r21
     81e:	08 f4       	brcc	.+2      	; 0x822 <__DATA_REGION_LENGTH__+0x22>
     820:	6e c0       	rjmp	.+220    	; 0x8fe <__DATA_REGION_LENGTH__+0xfe>
     822:	32 13       	cpse	r19, r18
     824:	2b c0       	rjmp	.+86     	; 0x87c <__DATA_REGION_LENGTH__+0x7c>
     826:	fc 01       	movw	r30, r24
     828:	ee 0f       	add	r30, r30
     82a:	ff 1f       	adc	r31, r31
     82c:	ee 0f       	add	r30, r30
     82e:	ff 1f       	adc	r31, r31
     830:	e8 0f       	add	r30, r24
     832:	f9 1f       	adc	r31, r25
     834:	e8 5c       	subi	r30, 0xC8	; 200
     836:	f9 4f       	sbci	r31, 0xF9	; 249
     838:	51 81       	ldd	r21, Z+1	; 0x01
     83a:	fb 01       	movw	r30, r22
     83c:	43 81       	ldd	r20, Z+3	; 0x03
     83e:	54 13       	cpse	r21, r20
     840:	1d c0       	rjmp	.+58     	; 0x87c <__DATA_REGION_LENGTH__+0x7c>
     842:	fc 01       	movw	r30, r24
     844:	ee 0f       	add	r30, r30
     846:	ff 1f       	adc	r31, r31
     848:	ee 0f       	add	r30, r30
     84a:	ff 1f       	adc	r31, r31
     84c:	e8 0f       	add	r30, r24
     84e:	f9 1f       	adc	r31, r25
     850:	e8 5c       	subi	r30, 0xC8	; 200
     852:	f9 4f       	sbci	r31, 0xF9	; 249
     854:	52 81       	ldd	r21, Z+2	; 0x02
     856:	fb 01       	movw	r30, r22
     858:	42 81       	ldd	r20, Z+2	; 0x02
     85a:	54 13       	cpse	r21, r20
     85c:	0f c0       	rjmp	.+30     	; 0x87c <__DATA_REGION_LENGTH__+0x7c>
     85e:	fc 01       	movw	r30, r24
     860:	ee 0f       	add	r30, r30
     862:	ff 1f       	adc	r31, r31
     864:	ee 0f       	add	r30, r30
     866:	ff 1f       	adc	r31, r31
     868:	e8 0f       	add	r30, r24
     86a:	f9 1f       	adc	r31, r25
     86c:	e8 5c       	subi	r30, 0xC8	; 200
     86e:	f9 4f       	sbci	r31, 0xF9	; 249
     870:	53 81       	ldd	r21, Z+3	; 0x03
     872:	fb 01       	movw	r30, r22
     874:	41 81       	ldd	r20, Z+1	; 0x01
     876:	45 17       	cp	r20, r21
     878:	08 f4       	brcc	.+2      	; 0x87c <__DATA_REGION_LENGTH__+0x7c>
     87a:	43 c0       	rjmp	.+134    	; 0x902 <__stack+0x3>
     87c:	32 13       	cpse	r19, r18
     87e:	43 c0       	rjmp	.+134    	; 0x906 <__stack+0x7>
     880:	fc 01       	movw	r30, r24
     882:	ee 0f       	add	r30, r30
     884:	ff 1f       	adc	r31, r31
     886:	ee 0f       	add	r30, r30
     888:	ff 1f       	adc	r31, r31
     88a:	e8 0f       	add	r30, r24
     88c:	f9 1f       	adc	r31, r25
     88e:	e8 5c       	subi	r30, 0xC8	; 200
     890:	f9 4f       	sbci	r31, 0xF9	; 249
     892:	31 81       	ldd	r19, Z+1	; 0x01
     894:	fb 01       	movw	r30, r22
     896:	23 81       	ldd	r18, Z+3	; 0x03
     898:	32 13       	cpse	r19, r18
     89a:	37 c0       	rjmp	.+110    	; 0x90a <__stack+0xb>
     89c:	fc 01       	movw	r30, r24
     89e:	ee 0f       	add	r30, r30
     8a0:	ff 1f       	adc	r31, r31
     8a2:	ee 0f       	add	r30, r30
     8a4:	ff 1f       	adc	r31, r31
     8a6:	e8 0f       	add	r30, r24
     8a8:	f9 1f       	adc	r31, r25
     8aa:	e8 5c       	subi	r30, 0xC8	; 200
     8ac:	f9 4f       	sbci	r31, 0xF9	; 249
     8ae:	32 81       	ldd	r19, Z+2	; 0x02
     8b0:	fb 01       	movw	r30, r22
     8b2:	22 81       	ldd	r18, Z+2	; 0x02
     8b4:	32 13       	cpse	r19, r18
     8b6:	2b c0       	rjmp	.+86     	; 0x90e <__stack+0xf>
     8b8:	fc 01       	movw	r30, r24
     8ba:	ee 0f       	add	r30, r30
     8bc:	ff 1f       	adc	r31, r31
     8be:	ee 0f       	add	r30, r30
     8c0:	ff 1f       	adc	r31, r31
     8c2:	e8 0f       	add	r30, r24
     8c4:	f9 1f       	adc	r31, r25
     8c6:	e8 5c       	subi	r30, 0xC8	; 200
     8c8:	f9 4f       	sbci	r31, 0xF9	; 249
     8ca:	33 81       	ldd	r19, Z+3	; 0x03
     8cc:	fb 01       	movw	r30, r22
     8ce:	21 81       	ldd	r18, Z+1	; 0x01
     8d0:	32 13       	cpse	r19, r18
     8d2:	1f c0       	rjmp	.+62     	; 0x912 <__stack+0x13>
     8d4:	fc 01       	movw	r30, r24
     8d6:	ee 0f       	add	r30, r30
     8d8:	ff 1f       	adc	r31, r31
     8da:	ee 0f       	add	r30, r30
     8dc:	ff 1f       	adc	r31, r31
     8de:	8e 0f       	add	r24, r30
     8e0:	9f 1f       	adc	r25, r31
     8e2:	fc 01       	movw	r30, r24
     8e4:	e8 5c       	subi	r30, 0xC8	; 200
     8e6:	f9 4f       	sbci	r31, 0xF9	; 249
     8e8:	94 81       	ldd	r25, Z+4	; 0x04
     8ea:	fb 01       	movw	r30, r22
     8ec:	80 81       	ld	r24, Z
     8ee:	98 17       	cp	r25, r24
     8f0:	90 f4       	brcc	.+36     	; 0x916 <__stack+0x17>
     8f2:	80 e0       	ldi	r24, 0x00	; 0
     8f4:	08 95       	ret
     8f6:	81 e0       	ldi	r24, 0x01	; 1
     8f8:	08 95       	ret
     8fa:	81 e0       	ldi	r24, 0x01	; 1
     8fc:	08 95       	ret
     8fe:	81 e0       	ldi	r24, 0x01	; 1
     900:	08 95       	ret
     902:	81 e0       	ldi	r24, 0x01	; 1
     904:	08 95       	ret
     906:	80 e0       	ldi	r24, 0x00	; 0
     908:	08 95       	ret
     90a:	80 e0       	ldi	r24, 0x00	; 0
     90c:	08 95       	ret
     90e:	80 e0       	ldi	r24, 0x00	; 0
     910:	08 95       	ret
     912:	80 e0       	ldi	r24, 0x00	; 0
     914:	08 95       	ret
     916:	81 e0       	ldi	r24, 0x01	; 1
     918:	08 95       	ret

0000091a <verificaSenha>:
     91a:	fb 01       	movw	r30, r22
     91c:	90 e0       	ldi	r25, 0x00	; 0
     91e:	1c c0       	rjmp	.+56     	; 0x958 <verificaSenha+0x3e>
     920:	49 2f       	mov	r20, r25
     922:	50 e0       	ldi	r21, 0x00	; 0
     924:	df 01       	movw	r26, r30
     926:	a4 0f       	add	r26, r20
     928:	b5 1f       	adc	r27, r21
     92a:	7c 91       	ld	r23, X
     92c:	28 2f       	mov	r18, r24
     92e:	30 e0       	ldi	r19, 0x00	; 0
     930:	21 50       	subi	r18, 0x01	; 1
     932:	31 09       	sbc	r19, r1
     934:	d9 01       	movw	r26, r18
     936:	aa 0f       	add	r26, r26
     938:	bb 1f       	adc	r27, r27
     93a:	2a 0f       	add	r18, r26
     93c:	3b 1f       	adc	r19, r27
     93e:	22 0f       	add	r18, r18
     940:	33 1f       	adc	r19, r19
     942:	2a 5a       	subi	r18, 0xAA	; 170
     944:	39 4f       	sbci	r19, 0xF9	; 249
     946:	d9 01       	movw	r26, r18
     948:	a4 0f       	add	r26, r20
     94a:	b5 1f       	adc	r27, r21
     94c:	2c 91       	ld	r18, X
     94e:	72 13       	cpse	r23, r18
     950:	07 c0       	rjmp	.+14     	; 0x960 <verificaSenha+0x46>
     952:	95 30       	cpi	r25, 0x05	; 5
     954:	39 f0       	breq	.+14     	; 0x964 <verificaSenha+0x4a>
     956:	9f 5f       	subi	r25, 0xFF	; 255
     958:	96 30       	cpi	r25, 0x06	; 6
     95a:	10 f3       	brcs	.-60     	; 0x920 <verificaSenha+0x6>
     95c:	81 e0       	ldi	r24, 0x01	; 1
     95e:	08 95       	ret
     960:	80 e0       	ldi	r24, 0x00	; 0
     962:	08 95       	ret
     964:	81 e0       	ldi	r24, 0x01	; 1
     966:	08 95       	ret

00000968 <executarVendaInterna>:
     968:	0f 93       	push	r16
     96a:	1f 93       	push	r17
     96c:	cf 93       	push	r28
     96e:	c8 2f       	mov	r28, r24
     970:	8b 01       	movw	r16, r22
     972:	ba 01       	movw	r22, r20
     974:	0e 94 8d 04 	call	0x91a	; 0x91a <verificaSenha>
     978:	88 23       	and	r24, r24
     97a:	19 f1       	breq	.+70     	; 0x9c2 <executarVendaInterna+0x5a>
     97c:	b8 01       	movw	r22, r16
     97e:	8c 2f       	mov	r24, r28
     980:	0e 94 98 02 	call	0x530	; 0x530 <verificaCashBack>
     984:	88 23       	and	r24, r24
     986:	51 f0       	breq	.+20     	; 0x99c <executarVendaInterna+0x34>
     988:	f8 01       	movw	r30, r16
     98a:	83 81       	ldd	r24, Z+3	; 0x03
     98c:	82 50       	subi	r24, 0x02	; 2
     98e:	83 83       	std	Z+3, r24	; 0x03
     990:	ec 2f       	mov	r30, r28
     992:	f0 e0       	ldi	r31, 0x00	; 0
     994:	e0 5b       	subi	r30, 0xB0	; 176
     996:	f9 4f       	sbci	r31, 0xF9	; 249
     998:	10 82       	st	Z, r1
     99a:	07 c0       	rjmp	.+14     	; 0x9aa <executarVendaInterna+0x42>
     99c:	ec 2f       	mov	r30, r28
     99e:	f0 e0       	ldi	r31, 0x00	; 0
     9a0:	e0 5b       	subi	r30, 0xB0	; 176
     9a2:	f9 4f       	sbci	r31, 0xF9	; 249
     9a4:	80 81       	ld	r24, Z
     9a6:	8f 5f       	subi	r24, 0xFF	; 255
     9a8:	80 83       	st	Z, r24
     9aa:	b8 01       	movw	r22, r16
     9ac:	8c 2f       	mov	r24, r28
     9ae:	0e 94 d0 03 	call	0x7a0	; 0x7a0 <verificaSaldo>
     9b2:	88 23       	and	r24, r24
     9b4:	41 f0       	breq	.+16     	; 0x9c6 <executarVendaInterna+0x5e>
     9b6:	b8 01       	movw	r22, r16
     9b8:	8c 2f       	mov	r24, r28
     9ba:	0e 94 1f 03 	call	0x63e	; 0x63e <subtraiSaldo>
     9be:	81 e0       	ldi	r24, 0x01	; 1
     9c0:	03 c0       	rjmp	.+6      	; 0x9c8 <executarVendaInterna+0x60>
     9c2:	82 e0       	ldi	r24, 0x02	; 2
     9c4:	01 c0       	rjmp	.+2      	; 0x9c8 <executarVendaInterna+0x60>
     9c6:	80 e0       	ldi	r24, 0x00	; 0
     9c8:	cf 91       	pop	r28
     9ca:	1f 91       	pop	r17
     9cc:	0f 91       	pop	r16
     9ce:	08 95       	ret

000009d0 <formata_valor>:
     9d0:	dc 01       	movw	r26, r24
     9d2:	14 96       	adiw	r26, 0x04	; 4
     9d4:	8c 91       	ld	r24, X
     9d6:	14 97       	sbiw	r26, 0x04	; 4
     9d8:	80 33       	cpi	r24, 0x30	; 48
     9da:	c9 f0       	breq	.+50     	; 0xa0e <formata_valor+0x3e>
     9dc:	13 96       	adiw	r26, 0x03	; 3
     9de:	9c 91       	ld	r25, X
     9e0:	13 97       	sbiw	r26, 0x03	; 3
     9e2:	90 32       	cpi	r25, 0x20	; 32
     9e4:	a1 f4       	brne	.+40     	; 0xa0e <formata_valor+0x3e>
     9e6:	12 96       	adiw	r26, 0x02	; 2
     9e8:	9c 91       	ld	r25, X
     9ea:	12 97       	sbiw	r26, 0x02	; 2
     9ec:	90 32       	cpi	r25, 0x20	; 32
     9ee:	79 f4       	brne	.+30     	; 0xa0e <formata_valor+0x3e>
     9f0:	11 96       	adiw	r26, 0x01	; 1
     9f2:	9c 91       	ld	r25, X
     9f4:	11 97       	sbiw	r26, 0x01	; 1
     9f6:	90 32       	cpi	r25, 0x20	; 32
     9f8:	51 f4       	brne	.+20     	; 0xa0e <formata_valor+0x3e>
     9fa:	9c 91       	ld	r25, X
     9fc:	90 32       	cpi	r25, 0x20	; 32
     9fe:	39 f4       	brne	.+14     	; 0xa0e <formata_valor+0x3e>
     a00:	12 96       	adiw	r26, 0x02	; 2
     a02:	8c 93       	st	X, r24
     a04:	12 97       	sbiw	r26, 0x02	; 2
     a06:	80 e2       	ldi	r24, 0x20	; 32
     a08:	14 96       	adiw	r26, 0x04	; 4
     a0a:	8c 93       	st	X, r24
     a0c:	14 97       	sbiw	r26, 0x04	; 4
     a0e:	14 96       	adiw	r26, 0x04	; 4
     a10:	8c 91       	ld	r24, X
     a12:	14 97       	sbiw	r26, 0x04	; 4
     a14:	80 32       	cpi	r24, 0x20	; 32
     a16:	e1 f0       	breq	.+56     	; 0xa50 <formata_valor+0x80>
     a18:	13 96       	adiw	r26, 0x03	; 3
     a1a:	9c 91       	ld	r25, X
     a1c:	13 97       	sbiw	r26, 0x03	; 3
     a1e:	90 32       	cpi	r25, 0x20	; 32
     a20:	b9 f0       	breq	.+46     	; 0xa50 <formata_valor+0x80>
     a22:	12 96       	adiw	r26, 0x02	; 2
     a24:	2c 91       	ld	r18, X
     a26:	12 97       	sbiw	r26, 0x02	; 2
     a28:	20 32       	cpi	r18, 0x20	; 32
     a2a:	91 f4       	brne	.+36     	; 0xa50 <formata_valor+0x80>
     a2c:	11 96       	adiw	r26, 0x01	; 1
     a2e:	2c 91       	ld	r18, X
     a30:	11 97       	sbiw	r26, 0x01	; 1
     a32:	20 32       	cpi	r18, 0x20	; 32
     a34:	69 f4       	brne	.+26     	; 0xa50 <formata_valor+0x80>
     a36:	2c 91       	ld	r18, X
     a38:	20 32       	cpi	r18, 0x20	; 32
     a3a:	51 f4       	brne	.+20     	; 0xa50 <formata_valor+0x80>
     a3c:	12 96       	adiw	r26, 0x02	; 2
     a3e:	9c 93       	st	X, r25
     a40:	12 97       	sbiw	r26, 0x02	; 2
     a42:	13 96       	adiw	r26, 0x03	; 3
     a44:	8c 93       	st	X, r24
     a46:	13 97       	sbiw	r26, 0x03	; 3
     a48:	80 e2       	ldi	r24, 0x20	; 32
     a4a:	14 96       	adiw	r26, 0x04	; 4
     a4c:	8c 93       	st	X, r24
     a4e:	14 97       	sbiw	r26, 0x04	; 4
     a50:	20 e0       	ldi	r18, 0x00	; 0
     a52:	30 e0       	ldi	r19, 0x00	; 0
     a54:	0c c0       	rjmp	.+24     	; 0xa6e <formata_valor+0x9e>
     a56:	c9 01       	movw	r24, r18
     a58:	fd 01       	movw	r30, r26
     a5a:	e2 0f       	add	r30, r18
     a5c:	f3 1f       	adc	r31, r19
     a5e:	20 81       	ld	r18, Z
     a60:	20 32       	cpi	r18, 0x20	; 32
     a62:	11 f4       	brne	.+4      	; 0xa68 <formata_valor+0x98>
     a64:	20 e3       	ldi	r18, 0x30	; 48
     a66:	20 83       	st	Z, r18
     a68:	9c 01       	movw	r18, r24
     a6a:	2f 5f       	subi	r18, 0xFF	; 255
     a6c:	3f 4f       	sbci	r19, 0xFF	; 255
     a6e:	25 30       	cpi	r18, 0x05	; 5
     a70:	31 05       	cpc	r19, r1
     a72:	8c f3       	brlt	.-30     	; 0xa56 <formata_valor+0x86>
     a74:	08 95       	ret

00000a76 <tecla_lida>:
     a76:	87 b1       	in	r24, 0x07	; 7
     a78:	80 7f       	andi	r24, 0xF0	; 240
     a7a:	87 b9       	out	0x07, r24	; 7
     a7c:	8a b1       	in	r24, 0x0a	; 10
     a7e:	8f 78       	andi	r24, 0x8F	; 143
     a80:	8a b9       	out	0x0a, r24	; 10
     a82:	87 b1       	in	r24, 0x07	; 7
     a84:	80 61       	ori	r24, 0x10	; 16
     a86:	87 b9       	out	0x07, r24	; 7
     a88:	87 b1       	in	r24, 0x07	; 7
     a8a:	80 62       	ori	r24, 0x20	; 32
     a8c:	87 b9       	out	0x07, r24	; 7
     a8e:	88 b1       	in	r24, 0x08	; 8
     a90:	8f 60       	ori	r24, 0x0F	; 15
     a92:	88 b9       	out	0x08, r24	; 8
     a94:	80 e0       	ldi	r24, 0x00	; 0
     a96:	26 c0       	rjmp	.+76     	; 0xae4 <tecla_lida+0x6e>
     a98:	9a b1       	in	r25, 0x0a	; 10
     a9a:	20 e1       	ldi	r18, 0x10	; 16
     a9c:	30 e0       	ldi	r19, 0x00	; 0
     a9e:	08 2e       	mov	r0, r24
     aa0:	02 c0       	rjmp	.+4      	; 0xaa6 <tecla_lida+0x30>
     aa2:	22 0f       	add	r18, r18
     aa4:	33 1f       	adc	r19, r19
     aa6:	0a 94       	dec	r0
     aa8:	e2 f7       	brpl	.-8      	; 0xaa2 <tecla_lida+0x2c>
     aaa:	29 2b       	or	r18, r25
     aac:	2a b9       	out	0x0a, r18	; 10
     aae:	e7 ec       	ldi	r30, 0xC7	; 199
     ab0:	f0 e0       	ldi	r31, 0x00	; 0
     ab2:	31 97       	sbiw	r30, 0x01	; 1
     ab4:	f1 f7       	brne	.-4      	; 0xab2 <tecla_lida+0x3c>
     ab6:	00 c0       	rjmp	.+0      	; 0xab8 <tecla_lida+0x42>
     ab8:	00 00       	nop
     aba:	90 e0       	ldi	r25, 0x00	; 0
     abc:	10 c0       	rjmp	.+32     	; 0xade <tecla_lida+0x68>
     abe:	26 b1       	in	r18, 0x06	; 6
     ac0:	30 e0       	ldi	r19, 0x00	; 0
     ac2:	09 2e       	mov	r0, r25
     ac4:	02 c0       	rjmp	.+4      	; 0xaca <tecla_lida+0x54>
     ac6:	35 95       	asr	r19
     ac8:	27 95       	ror	r18
     aca:	0a 94       	dec	r0
     acc:	e2 f7       	brpl	.-8      	; 0xac6 <tecla_lida+0x50>
     ace:	20 fd       	sbrc	r18, 0
     ad0:	05 c0       	rjmp	.+10     	; 0xadc <tecla_lida+0x66>
     ad2:	29 2f       	mov	r18, r25
     ad4:	22 0f       	add	r18, r18
     ad6:	92 0f       	add	r25, r18
     ad8:	89 0f       	add	r24, r25
     ada:	08 95       	ret
     adc:	9f 5f       	subi	r25, 0xFF	; 255
     ade:	94 30       	cpi	r25, 0x04	; 4
     ae0:	70 f3       	brcs	.-36     	; 0xabe <tecla_lida+0x48>
     ae2:	8f 5f       	subi	r24, 0xFF	; 255
     ae4:	83 30       	cpi	r24, 0x03	; 3
     ae6:	c0 f2       	brcs	.-80     	; 0xa98 <tecla_lida+0x22>
     ae8:	89 e1       	ldi	r24, 0x19	; 25
     aea:	08 95       	ret

00000aec <teclaDebouce>:
     aec:	1f 93       	push	r17
     aee:	cf 93       	push	r28
     af0:	df 93       	push	r29
     af2:	0e 94 3b 05 	call	0xa76	; 0xa76 <tecla_lida>
     af6:	18 2f       	mov	r17, r24
     af8:	d0 e0       	ldi	r29, 0x00	; 0
     afa:	0f c0       	rjmp	.+30     	; 0xb1a <teclaDebouce+0x2e>
     afc:	8f e7       	ldi	r24, 0x7F	; 127
     afe:	9e e3       	ldi	r25, 0x3E	; 62
     b00:	01 97       	sbiw	r24, 0x01	; 1
     b02:	f1 f7       	brne	.-4      	; 0xb00 <teclaDebouce+0x14>
     b04:	00 c0       	rjmp	.+0      	; 0xb06 <teclaDebouce+0x1a>
     b06:	00 00       	nop
     b08:	0e 94 3b 05 	call	0xa76	; 0xa76 <tecla_lida>
     b0c:	c8 2f       	mov	r28, r24
     b0e:	18 13       	cpse	r17, r24
     b10:	02 c0       	rjmp	.+4      	; 0xb16 <teclaDebouce+0x2a>
     b12:	df 5f       	subi	r29, 0xFF	; 255
     b14:	01 c0       	rjmp	.+2      	; 0xb18 <teclaDebouce+0x2c>
     b16:	d0 e0       	ldi	r29, 0x00	; 0
     b18:	1c 2f       	mov	r17, r28
     b1a:	da 30       	cpi	r29, 0x0A	; 10
     b1c:	78 f3       	brcs	.-34     	; 0xafc <teclaDebouce+0x10>
     b1e:	8c 2f       	mov	r24, r28
     b20:	df 91       	pop	r29
     b22:	cf 91       	pop	r28
     b24:	1f 91       	pop	r17
     b26:	08 95       	ret

00000b28 <acao_tecla>:
     b28:	90 e0       	ldi	r25, 0x00	; 0
     b2a:	8c 30       	cpi	r24, 0x0C	; 12
     b2c:	91 05       	cpc	r25, r1
     b2e:	d8 f4       	brcc	.+54     	; 0xb66 <acao_tecla+0x3e>
     b30:	fc 01       	movw	r30, r24
     b32:	e0 5c       	subi	r30, 0xC0	; 192
     b34:	ff 4f       	sbci	r31, 0xFF	; 255
     b36:	0c 94 0b 1a 	jmp	0x3416	; 0x3416 <__tablejump2__>
     b3a:	81 e0       	ldi	r24, 0x01	; 1
     b3c:	08 95       	ret
     b3e:	83 e0       	ldi	r24, 0x03	; 3
     b40:	08 95       	ret
     b42:	84 e0       	ldi	r24, 0x04	; 4
     b44:	08 95       	ret
     b46:	85 e0       	ldi	r24, 0x05	; 5
     b48:	08 95       	ret
     b4a:	86 e0       	ldi	r24, 0x06	; 6
     b4c:	08 95       	ret
     b4e:	87 e0       	ldi	r24, 0x07	; 7
     b50:	08 95       	ret
     b52:	88 e0       	ldi	r24, 0x08	; 8
     b54:	08 95       	ret
     b56:	89 e0       	ldi	r24, 0x09	; 9
     b58:	08 95       	ret
     b5a:	8a e0       	ldi	r24, 0x0A	; 10
     b5c:	08 95       	ret
     b5e:	8b e0       	ldi	r24, 0x0B	; 11
     b60:	08 95       	ret
     b62:	8c e0       	ldi	r24, 0x0C	; 12
     b64:	08 95       	ret
     b66:	89 e1       	ldi	r24, 0x19	; 25
     b68:	08 95       	ret
     b6a:	82 e0       	ldi	r24, 0x02	; 2
     b6c:	08 95       	ret

00000b6e <USART_INIT>:
     b6e:	90 93 c5 00 	sts	0x00C5, r25	; 0x8000c5 <__TEXT_REGION_LENGTH__+0x7f80c5>
     b72:	80 93 c4 00 	sts	0x00C4, r24	; 0x8000c4 <__TEXT_REGION_LENGTH__+0x7f80c4>
     b76:	88 e1       	ldi	r24, 0x18	; 24
     b78:	80 93 c1 00 	sts	0x00C1, r24	; 0x8000c1 <__TEXT_REGION_LENGTH__+0x7f80c1>
     b7c:	89 e0       	ldi	r24, 0x09	; 9
     b7e:	80 93 c2 00 	sts	0x00C2, r24	; 0x8000c2 <__TEXT_REGION_LENGTH__+0x7f80c2>
     b82:	08 95       	ret

00000b84 <USART_envia>:
     b84:	90 91 c0 00 	lds	r25, 0x00C0	; 0x8000c0 <__TEXT_REGION_LENGTH__+0x7f80c0>
     b88:	95 ff       	sbrs	r25, 5
     b8a:	fc cf       	rjmp	.-8      	; 0xb84 <USART_envia>
     b8c:	80 93 c6 00 	sts	0x00C6, r24	; 0x8000c6 <__TEXT_REGION_LENGTH__+0x7f80c6>
     b90:	08 95       	ret

00000b92 <verificaSerial>:
     b92:	20 91 c0 00 	lds	r18, 0x00C0	; 0x8000c0 <__TEXT_REGION_LENGTH__+0x7f80c0>
     b96:	22 23       	and	r18, r18
     b98:	14 f0       	brlt	.+4      	; 0xb9e <verificaSerial+0xc>
     b9a:	01 96       	adiw	r24, 0x01	; 1
     b9c:	08 95       	ret
     b9e:	20 91 c6 00 	lds	r18, 0x00C6	; 0x8000c6 <__TEXT_REGION_LENGTH__+0x7f80c6>
     ba2:	22 23       	and	r18, r18
     ba4:	29 f0       	breq	.+10     	; 0xbb0 <verificaSerial+0x1e>
     ba6:	88 b1       	in	r24, 0x08	; 8
     ba8:	8f 7e       	andi	r24, 0xEF	; 239
     baa:	88 b9       	out	0x08, r24	; 8
     bac:	80 e0       	ldi	r24, 0x00	; 0
     bae:	90 e0       	ldi	r25, 0x00	; 0
     bb0:	08 95       	ret

00000bb2 <write>:
     bb2:	95 b1       	in	r25, 0x05	; 5
     bb4:	9f 77       	andi	r25, 0x7F	; 127
     bb6:	95 b9       	out	0x05, r25	; 5
     bb8:	95 b1       	in	r25, 0x05	; 5
     bba:	9f 7b       	andi	r25, 0xBF	; 191
     bbc:	95 b9       	out	0x05, r25	; 5
     bbe:	95 b1       	in	r25, 0x05	; 5
     bc0:	9f 7d       	andi	r25, 0xDF	; 223
     bc2:	95 b9       	out	0x05, r25	; 5
     bc4:	95 b1       	in	r25, 0x05	; 5
     bc6:	9f 7e       	andi	r25, 0xEF	; 239
     bc8:	95 b9       	out	0x05, r25	; 5
     bca:	88 23       	and	r24, r24
     bcc:	1c f4       	brge	.+6      	; 0xbd4 <write+0x22>
     bce:	95 b1       	in	r25, 0x05	; 5
     bd0:	90 68       	ori	r25, 0x80	; 128
     bd2:	95 b9       	out	0x05, r25	; 5
     bd4:	86 ff       	sbrs	r24, 6
     bd6:	03 c0       	rjmp	.+6      	; 0xbde <write+0x2c>
     bd8:	95 b1       	in	r25, 0x05	; 5
     bda:	90 64       	ori	r25, 0x40	; 64
     bdc:	95 b9       	out	0x05, r25	; 5
     bde:	85 ff       	sbrs	r24, 5
     be0:	03 c0       	rjmp	.+6      	; 0xbe8 <write+0x36>
     be2:	95 b1       	in	r25, 0x05	; 5
     be4:	90 62       	ori	r25, 0x20	; 32
     be6:	95 b9       	out	0x05, r25	; 5
     be8:	84 ff       	sbrs	r24, 4
     bea:	03 c0       	rjmp	.+6      	; 0xbf2 <write+0x40>
     bec:	85 b1       	in	r24, 0x05	; 5
     bee:	80 61       	ori	r24, 0x10	; 16
     bf0:	85 b9       	out	0x05, r24	; 5
     bf2:	85 b1       	in	r24, 0x05	; 5
     bf4:	82 60       	ori	r24, 0x02	; 2
     bf6:	85 b9       	out	0x05, r24	; 5
     bf8:	85 e0       	ldi	r24, 0x05	; 5
     bfa:	8a 95       	dec	r24
     bfc:	f1 f7       	brne	.-4      	; 0xbfa <write+0x48>
     bfe:	00 00       	nop
     c00:	85 b1       	in	r24, 0x05	; 5
     c02:	8d 7f       	andi	r24, 0xFD	; 253
     c04:	85 b9       	out	0x05, r24	; 5
     c06:	85 e0       	ldi	r24, 0x05	; 5
     c08:	8a 95       	dec	r24
     c0a:	f1 f7       	brne	.-4      	; 0xc08 <write+0x56>
     c0c:	00 00       	nop
     c0e:	08 95       	ret

00000c10 <writeCharacter>:
     c10:	cf 93       	push	r28
     c12:	c8 2f       	mov	r28, r24
     c14:	85 b1       	in	r24, 0x05	; 5
     c16:	81 60       	ori	r24, 0x01	; 1
     c18:	85 b9       	out	0x05, r24	; 5
     c1a:	85 b1       	in	r24, 0x05	; 5
     c1c:	8d 7f       	andi	r24, 0xFD	; 253
     c1e:	85 b9       	out	0x05, r24	; 5
     c20:	8c 2f       	mov	r24, r28
     c22:	0e 94 d9 05 	call	0xbb2	; 0xbb2 <write>
     c26:	8c 2f       	mov	r24, r28
     c28:	82 95       	swap	r24
     c2a:	80 7f       	andi	r24, 0xF0	; 240
     c2c:	0e 94 d9 05 	call	0xbb2	; 0xbb2 <write>
     c30:	cf 91       	pop	r28
     c32:	08 95       	ret

00000c34 <writeString>:
     c34:	0f 93       	push	r16
     c36:	1f 93       	push	r17
     c38:	cf 93       	push	r28
     c3a:	df 93       	push	r29
     c3c:	00 d0       	rcall	.+0      	; 0xc3e <writeString+0xa>
     c3e:	cd b7       	in	r28, 0x3d	; 61
     c40:	de b7       	in	r29, 0x3e	; 62
     c42:	8c 01       	movw	r16, r24
     c44:	1a 82       	std	Y+2, r1	; 0x02
     c46:	19 82       	std	Y+1, r1	; 0x01
     c48:	10 c0       	rjmp	.+32     	; 0xc6a <writeString+0x36>
     c4a:	e9 81       	ldd	r30, Y+1	; 0x01
     c4c:	fa 81       	ldd	r31, Y+2	; 0x02
     c4e:	e0 0f       	add	r30, r16
     c50:	f1 1f       	adc	r31, r17
     c52:	80 81       	ld	r24, Z
     c54:	0e 94 08 06 	call	0xc10	; 0xc10 <writeCharacter>
     c58:	89 81       	ldd	r24, Y+1	; 0x01
     c5a:	9a 81       	ldd	r25, Y+2	; 0x02
     c5c:	01 96       	adiw	r24, 0x01	; 1
     c5e:	9a 83       	std	Y+2, r25	; 0x02
     c60:	89 83       	std	Y+1, r24	; 0x01
     c62:	85 ed       	ldi	r24, 0xD5	; 213
     c64:	8a 95       	dec	r24
     c66:	f1 f7       	brne	.-4      	; 0xc64 <writeString+0x30>
     c68:	00 00       	nop
     c6a:	e9 81       	ldd	r30, Y+1	; 0x01
     c6c:	fa 81       	ldd	r31, Y+2	; 0x02
     c6e:	e0 0f       	add	r30, r16
     c70:	f1 1f       	adc	r31, r17
     c72:	80 81       	ld	r24, Z
     c74:	81 11       	cpse	r24, r1
     c76:	e9 cf       	rjmp	.-46     	; 0xc4a <writeString+0x16>
     c78:	0f 90       	pop	r0
     c7a:	0f 90       	pop	r0
     c7c:	df 91       	pop	r29
     c7e:	cf 91       	pop	r28
     c80:	1f 91       	pop	r17
     c82:	0f 91       	pop	r16
     c84:	08 95       	ret

00000c86 <writeInstruction>:
     c86:	cf 93       	push	r28
     c88:	c8 2f       	mov	r28, r24
     c8a:	85 b1       	in	r24, 0x05	; 5
     c8c:	8e 7f       	andi	r24, 0xFE	; 254
     c8e:	85 b9       	out	0x05, r24	; 5
     c90:	85 b1       	in	r24, 0x05	; 5
     c92:	8d 7f       	andi	r24, 0xFD	; 253
     c94:	85 b9       	out	0x05, r24	; 5
     c96:	8c 2f       	mov	r24, r28
     c98:	0e 94 d9 05 	call	0xbb2	; 0xbb2 <write>
     c9c:	8c 2f       	mov	r24, r28
     c9e:	82 95       	swap	r24
     ca0:	80 7f       	andi	r24, 0xF0	; 240
     ca2:	0e 94 d9 05 	call	0xbb2	; 0xbb2 <write>
     ca6:	85 ed       	ldi	r24, 0xD5	; 213
     ca8:	8a 95       	dec	r24
     caa:	f1 f7       	brne	.-4      	; 0xca8 <writeInstruction+0x22>
     cac:	00 00       	nop
     cae:	cf 91       	pop	r28
     cb0:	08 95       	ret

00000cb2 <recebe_valor>:
     cb2:	ef 92       	push	r14
     cb4:	ff 92       	push	r15
     cb6:	0f 93       	push	r16
     cb8:	1f 93       	push	r17
     cba:	cf 93       	push	r28
     cbc:	df 93       	push	r29
     cbe:	7c 01       	movw	r14, r24
     cc0:	00 e0       	ldi	r16, 0x00	; 0
     cc2:	10 e0       	ldi	r17, 0x00	; 0
     cc4:	0e 94 76 05 	call	0xaec	; 0xaec <teclaDebouce>
     cc8:	89 31       	cpi	r24, 0x19	; 25
     cca:	e1 f3       	breq	.-8      	; 0xcc4 <recebe_valor+0x12>
     ccc:	c1 e3       	ldi	r28, 0x31	; 49
     cce:	c8 0f       	add	r28, r24
     cd0:	ca 33       	cpi	r28, 0x3A	; 58
     cd2:	e1 f4       	brne	.+56     	; 0xd0c <recebe_valor+0x5a>
     cd4:	10 16       	cp	r1, r16
     cd6:	11 06       	cpc	r1, r17
     cd8:	ac f7       	brge	.-22     	; 0xcc4 <recebe_valor+0x12>
     cda:	c2 e0       	ldi	r28, 0x02	; 2
     cdc:	c0 0f       	add	r28, r16
     cde:	c0 6c       	ori	r28, 0xC0	; 192
     ce0:	8c 2f       	mov	r24, r28
     ce2:	0e 94 43 06 	call	0xc86	; 0xc86 <writeInstruction>
     ce6:	86 e7       	ldi	r24, 0x76	; 118
     ce8:	95 e0       	ldi	r25, 0x05	; 5
     cea:	0e 94 1a 06 	call	0xc34	; 0xc34 <writeString>
     cee:	8c 2f       	mov	r24, r28
     cf0:	0e 94 43 06 	call	0xc86	; 0xc86 <writeInstruction>
     cf4:	e4 e0       	ldi	r30, 0x04	; 4
     cf6:	f0 e0       	ldi	r31, 0x00	; 0
     cf8:	e0 1b       	sub	r30, r16
     cfa:	f1 0b       	sbc	r31, r17
     cfc:	31 96       	adiw	r30, 0x01	; 1
     cfe:	ee 0d       	add	r30, r14
     d00:	ff 1d       	adc	r31, r15
     d02:	80 e2       	ldi	r24, 0x20	; 32
     d04:	80 83       	st	Z, r24
     d06:	01 50       	subi	r16, 0x01	; 1
     d08:	11 09       	sbc	r17, r1
     d0a:	dc cf       	rjmp	.-72     	; 0xcc4 <recebe_valor+0x12>
     d0c:	cc 33       	cpi	r28, 0x3C	; 60
     d0e:	21 f4       	brne	.+8      	; 0xd18 <recebe_valor+0x66>
     d10:	f7 01       	movw	r30, r14
     d12:	85 81       	ldd	r24, Z+5	; 0x05
     d14:	80 32       	cpi	r24, 0x20	; 32
     d16:	e1 f4       	brne	.+56     	; 0xd50 <recebe_valor+0x9e>
     d18:	05 30       	cpi	r16, 0x05	; 5
     d1a:	11 05       	cpc	r17, r1
     d1c:	9c f6       	brge	.-90     	; 0xcc4 <recebe_valor+0x12>
     d1e:	cb 33       	cpi	r28, 0x3B	; 59
     d20:	09 f4       	brne	.+2      	; 0xd24 <recebe_valor+0x72>
     d22:	c0 e3       	ldi	r28, 0x30	; 48
     d24:	e4 e0       	ldi	r30, 0x04	; 4
     d26:	f0 e0       	ldi	r31, 0x00	; 0
     d28:	e0 1b       	sub	r30, r16
     d2a:	f1 0b       	sbc	r31, r17
     d2c:	ee 0d       	add	r30, r14
     d2e:	ff 1d       	adc	r31, r15
     d30:	c0 83       	st	Z, r28
     d32:	d3 e0       	ldi	r29, 0x03	; 3
     d34:	d0 0f       	add	r29, r16
     d36:	d0 6c       	ori	r29, 0xC0	; 192
     d38:	8d 2f       	mov	r24, r29
     d3a:	0e 94 43 06 	call	0xc86	; 0xc86 <writeInstruction>
     d3e:	8c 2f       	mov	r24, r28
     d40:	0e 94 08 06 	call	0xc10	; 0xc10 <writeCharacter>
     d44:	8d 2f       	mov	r24, r29
     d46:	0e 94 43 06 	call	0xc86	; 0xc86 <writeInstruction>
     d4a:	0f 5f       	subi	r16, 0xFF	; 255
     d4c:	1f 4f       	sbci	r17, 0xFF	; 255
     d4e:	ba cf       	rjmp	.-140    	; 0xcc4 <recebe_valor+0x12>
     d50:	df 91       	pop	r29
     d52:	cf 91       	pop	r28
     d54:	1f 91       	pop	r17
     d56:	0f 91       	pop	r16
     d58:	ff 90       	pop	r15
     d5a:	ef 90       	pop	r14
     d5c:	08 95       	ret

00000d5e <setup_lcd>:
     d5e:	83 ef       	ldi	r24, 0xF3	; 243
     d60:	84 b9       	out	0x04, r24	; 4
     d62:	85 b1       	in	r24, 0x05	; 5
     d64:	8e 7f       	andi	r24, 0xFE	; 254
     d66:	85 b9       	out	0x05, r24	; 5
     d68:	85 b1       	in	r24, 0x05	; 5
     d6a:	8d 7f       	andi	r24, 0xFD	; 253
     d6c:	85 b9       	out	0x05, r24	; 5
     d6e:	80 e3       	ldi	r24, 0x30	; 48
     d70:	0e 94 d9 05 	call	0xbb2	; 0xbb2 <write>
     d74:	8f e3       	ldi	r24, 0x3F	; 63
     d76:	9c e9       	ldi	r25, 0x9C	; 156
     d78:	01 97       	sbiw	r24, 0x01	; 1
     d7a:	f1 f7       	brne	.-4      	; 0xd78 <setup_lcd+0x1a>
     d7c:	00 c0       	rjmp	.+0      	; 0xd7e <setup_lcd+0x20>
     d7e:	00 00       	nop
     d80:	88 e2       	ldi	r24, 0x28	; 40
     d82:	0e 94 d9 05 	call	0xbb2	; 0xbb2 <write>
     d86:	95 ed       	ldi	r25, 0xD5	; 213
     d88:	9a 95       	dec	r25
     d8a:	f1 f7       	brne	.-4      	; 0xd88 <setup_lcd+0x2a>
     d8c:	00 00       	nop
     d8e:	88 e2       	ldi	r24, 0x28	; 40
     d90:	0e 94 43 06 	call	0xc86	; 0xc86 <writeInstruction>
     d94:	88 e0       	ldi	r24, 0x08	; 8
     d96:	0e 94 43 06 	call	0xc86	; 0xc86 <writeInstruction>
     d9a:	81 e0       	ldi	r24, 0x01	; 1
     d9c:	0e 94 43 06 	call	0xc86	; 0xc86 <writeInstruction>
     da0:	86 e0       	ldi	r24, 0x06	; 6
     da2:	0e 94 43 06 	call	0xc86	; 0xc86 <writeInstruction>
     da6:	08 95       	ret

00000da8 <validarSenha>:
     da8:	cf 93       	push	r28
     daa:	df 93       	push	r29
     dac:	ec 01       	movw	r28, r24
     dae:	db 01       	movw	r26, r22
     db0:	81 e0       	ldi	r24, 0x01	; 1
     db2:	20 e0       	ldi	r18, 0x00	; 0
     db4:	30 e0       	ldi	r19, 0x00	; 0
     db6:	0e c0       	rjmp	.+28     	; 0xdd4 <validarSenha+0x2c>
     db8:	a9 01       	movw	r20, r18
     dba:	fe 01       	movw	r30, r28
     dbc:	e2 0f       	add	r30, r18
     dbe:	f3 1f       	adc	r31, r19
     dc0:	70 81       	ld	r23, Z
     dc2:	fd 01       	movw	r30, r26
     dc4:	e2 0f       	add	r30, r18
     dc6:	f3 1f       	adc	r31, r19
     dc8:	90 81       	ld	r25, Z
     dca:	79 13       	cpse	r23, r25
     dcc:	80 e0       	ldi	r24, 0x00	; 0
     dce:	9a 01       	movw	r18, r20
     dd0:	2f 5f       	subi	r18, 0xFF	; 255
     dd2:	3f 4f       	sbci	r19, 0xFF	; 255
     dd4:	24 30       	cpi	r18, 0x04	; 4
     dd6:	31 05       	cpc	r19, r1
     dd8:	7c f3       	brlt	.-34     	; 0xdb8 <validarSenha+0x10>
     dda:	df 91       	pop	r29
     ddc:	cf 91       	pop	r28
     dde:	08 95       	ret

00000de0 <lerSenha>:
     de0:	ff 92       	push	r15
     de2:	0f 93       	push	r16
     de4:	1f 93       	push	r17
     de6:	cf 93       	push	r28
     de8:	df 93       	push	r29
     dea:	8c 01       	movw	r16, r24
     dec:	0e 94 76 05 	call	0xaec	; 0xaec <teclaDebouce>
     df0:	0e 94 94 05 	call	0xb28	; 0xb28 <acao_tecla>
     df4:	f8 01       	movw	r30, r16
     df6:	80 83       	st	Z, r24
     df8:	80 ec       	ldi	r24, 0xC0	; 192
     dfa:	0e 94 43 06 	call	0xc86	; 0xc86 <writeInstruction>
     dfe:	80 e0       	ldi	r24, 0x00	; 0
     e00:	c0 e0       	ldi	r28, 0x00	; 0
     e02:	d0 e0       	ldi	r29, 0x00	; 0
     e04:	3e c0       	rjmp	.+124    	; 0xe82 <lerSenha+0xa2>
     e06:	0e 94 76 05 	call	0xaec	; 0xaec <teclaDebouce>
     e0a:	f8 01       	movw	r30, r16
     e0c:	80 83       	st	Z, r24
     e0e:	89 31       	cpi	r24, 0x19	; 25
     e10:	d1 f0       	breq	.+52     	; 0xe46 <lerSenha+0x66>
     e12:	8b 30       	cpi	r24, 0x0B	; 11
     e14:	c1 f0       	breq	.+48     	; 0xe46 <lerSenha+0x66>
     e16:	89 30       	cpi	r24, 0x09	; 9
     e18:	b1 f0       	breq	.+44     	; 0xe46 <lerSenha+0x66>
     e1a:	c4 30       	cpi	r28, 0x04	; 4
     e1c:	d1 05       	cpc	r29, r1
     e1e:	9c f4       	brge	.+38     	; 0xe46 <lerSenha+0x66>
     e20:	8f 5c       	subi	r24, 0xCF	; 207
     e22:	80 83       	st	Z, r24
     e24:	8b 33       	cpi	r24, 0x3B	; 59
     e26:	11 f4       	brne	.+4      	; 0xe2c <lerSenha+0x4c>
     e28:	80 e3       	ldi	r24, 0x30	; 48
     e2a:	80 83       	st	Z, r24
     e2c:	f8 01       	movw	r30, r16
     e2e:	80 81       	ld	r24, Z
     e30:	fe 01       	movw	r30, r28
     e32:	ea 5b       	subi	r30, 0xBA	; 186
     e34:	fe 4f       	sbci	r31, 0xFE	; 254
     e36:	80 83       	st	Z, r24
     e38:	8a e1       	ldi	r24, 0x1A	; 26
     e3a:	95 e0       	ldi	r25, 0x05	; 5
     e3c:	0e 94 1a 06 	call	0xc34	; 0xc34 <writeString>
     e40:	21 96       	adiw	r28, 0x01	; 1
     e42:	80 e0       	ldi	r24, 0x00	; 0
     e44:	1e c0       	rjmp	.+60     	; 0xe82 <lerSenha+0xa2>
     e46:	89 30       	cpi	r24, 0x09	; 9
     e48:	b9 f4       	brne	.+46     	; 0xe78 <lerSenha+0x98>
     e4a:	1c 16       	cp	r1, r28
     e4c:	1d 06       	cpc	r1, r29
     e4e:	6c f4       	brge	.+26     	; 0xe6a <lerSenha+0x8a>
     e50:	8c 2f       	mov	r24, r28
     e52:	81 50       	subi	r24, 0x01	; 1
     e54:	80 6c       	ori	r24, 0xC0	; 192
     e56:	f8 2e       	mov	r15, r24
     e58:	0e 94 43 06 	call	0xc86	; 0xc86 <writeInstruction>
     e5c:	80 e2       	ldi	r24, 0x20	; 32
     e5e:	0e 94 08 06 	call	0xc10	; 0xc10 <writeCharacter>
     e62:	8f 2d       	mov	r24, r15
     e64:	0e 94 43 06 	call	0xc86	; 0xc86 <writeInstruction>
     e68:	21 97       	sbiw	r28, 0x01	; 1
     e6a:	86 e4       	ldi	r24, 0x46	; 70
     e6c:	fe 01       	movw	r30, r28
     e6e:	ea 5b       	subi	r30, 0xBA	; 186
     e70:	fe 4f       	sbci	r31, 0xFE	; 254
     e72:	80 83       	st	Z, r24
     e74:	80 e0       	ldi	r24, 0x00	; 0
     e76:	05 c0       	rjmp	.+10     	; 0xe82 <lerSenha+0xa2>
     e78:	8b 30       	cpi	r24, 0x0B	; 11
     e7a:	11 f0       	breq	.+4      	; 0xe80 <lerSenha+0xa0>
     e7c:	80 e0       	ldi	r24, 0x00	; 0
     e7e:	01 c0       	rjmp	.+2      	; 0xe82 <lerSenha+0xa2>
     e80:	81 e0       	ldi	r24, 0x01	; 1
     e82:	88 23       	and	r24, r24
     e84:	09 f4       	brne	.+2      	; 0xe88 <lerSenha+0xa8>
     e86:	bf cf       	rjmp	.-130    	; 0xe06 <lerSenha+0x26>
     e88:	20 97       	sbiw	r28, 0x00	; 0
     e8a:	09 f4       	brne	.+2      	; 0xe8e <lerSenha+0xae>
     e8c:	bc cf       	rjmp	.-136    	; 0xe06 <lerSenha+0x26>
     e8e:	89 e1       	ldi	r24, 0x19	; 25
     e90:	f8 01       	movw	r30, r16
     e92:	80 83       	st	Z, r24
     e94:	df 91       	pop	r29
     e96:	cf 91       	pop	r28
     e98:	1f 91       	pop	r17
     e9a:	0f 91       	pop	r16
     e9c:	ff 90       	pop	r15
     e9e:	08 95       	ret

00000ea0 <menu_vendas>:
     ea0:	81 e0       	ldi	r24, 0x01	; 1
     ea2:	0e 94 43 06 	call	0xc86	; 0xc86 <writeInstruction>
     ea6:	80 e8       	ldi	r24, 0x80	; 128
     ea8:	0e 94 43 06 	call	0xc86	; 0xc86 <writeInstruction>
     eac:	8b e7       	ldi	r24, 0x7B	; 123
     eae:	91 e0       	ldi	r25, 0x01	; 1
     eb0:	0e 94 1a 06 	call	0xc34	; 0xc34 <writeString>
     eb4:	80 ec       	ldi	r24, 0xC0	; 192
     eb6:	0e 94 43 06 	call	0xc86	; 0xc86 <writeInstruction>
     eba:	89 e8       	ldi	r24, 0x89	; 137
     ebc:	91 e0       	ldi	r25, 0x01	; 1
     ebe:	0e 94 1a 06 	call	0xc34	; 0xc34 <writeString>
     ec2:	08 95       	ret

00000ec4 <tela_bloqueio_inicial>:
     ec4:	85 e9       	ldi	r24, 0x95	; 149
     ec6:	91 e0       	ldi	r25, 0x01	; 1
     ec8:	0e 94 1a 06 	call	0xc34	; 0xc34 <writeString>
     ecc:	80 ec       	ldi	r24, 0xC0	; 192
     ece:	0e 94 43 06 	call	0xc86	; 0xc86 <writeInstruction>
     ed2:	81 ea       	ldi	r24, 0xA1	; 161
     ed4:	91 e0       	ldi	r25, 0x01	; 1
     ed6:	0e 94 1a 06 	call	0xc34	; 0xc34 <writeString>
     eda:	2f ef       	ldi	r18, 0xFF	; 255
     edc:	83 ed       	ldi	r24, 0xD3	; 211
     ede:	90 e3       	ldi	r25, 0x30	; 48
     ee0:	21 50       	subi	r18, 0x01	; 1
     ee2:	80 40       	sbci	r24, 0x00	; 0
     ee4:	90 40       	sbci	r25, 0x00	; 0
     ee6:	e1 f7       	brne	.-8      	; 0xee0 <tela_bloqueio_inicial+0x1c>
     ee8:	00 c0       	rjmp	.+0      	; 0xeea <tela_bloqueio_inicial+0x26>
     eea:	00 00       	nop
     eec:	83 e0       	ldi	r24, 0x03	; 3
     eee:	0e 94 43 06 	call	0xc86	; 0xc86 <writeInstruction>
     ef2:	08 95       	ret

00000ef4 <menu_pagamento>:
     ef4:	81 e0       	ldi	r24, 0x01	; 1
     ef6:	0e 94 43 06 	call	0xc86	; 0xc86 <writeInstruction>
     efa:	80 e8       	ldi	r24, 0x80	; 128
     efc:	0e 94 43 06 	call	0xc86	; 0xc86 <writeInstruction>
     f00:	8b ea       	ldi	r24, 0xAB	; 171
     f02:	91 e0       	ldi	r25, 0x01	; 1
     f04:	0e 94 1a 06 	call	0xc34	; 0xc34 <writeString>
     f08:	80 ec       	ldi	r24, 0xC0	; 192
     f0a:	0e 94 43 06 	call	0xc86	; 0xc86 <writeInstruction>
     f0e:	8b eb       	ldi	r24, 0xBB	; 187
     f10:	91 e0       	ldi	r25, 0x01	; 1
     f12:	0e 94 1a 06 	call	0xc34	; 0xc34 <writeString>
     f16:	08 95       	ret

00000f18 <metodo_pagamento>:
     f18:	0e 94 7a 07 	call	0xef4	; 0xef4 <menu_pagamento>
     f1c:	0e 94 76 05 	call	0xaec	; 0xaec <teclaDebouce>
     f20:	89 31       	cpi	r24, 0x19	; 25
     f22:	e1 f3       	breq	.-8      	; 0xf1c <metodo_pagamento+0x4>
     f24:	8f 5f       	subi	r24, 0xFF	; 255
     f26:	08 95       	ret

00000f28 <menu_cartao>:
     f28:	81 e0       	ldi	r24, 0x01	; 1
     f2a:	0e 94 43 06 	call	0xc86	; 0xc86 <writeInstruction>
     f2e:	80 e8       	ldi	r24, 0x80	; 128
     f30:	0e 94 43 06 	call	0xc86	; 0xc86 <writeInstruction>
     f34:	8c ec       	ldi	r24, 0xCC	; 204
     f36:	91 e0       	ldi	r25, 0x01	; 1
     f38:	0e 94 1a 06 	call	0xc34	; 0xc34 <writeString>
     f3c:	80 ec       	ldi	r24, 0xC0	; 192
     f3e:	0e 94 43 06 	call	0xc86	; 0xc86 <writeInstruction>
     f42:	8a ed       	ldi	r24, 0xDA	; 218
     f44:	91 e0       	ldi	r25, 0x01	; 1
     f46:	0e 94 1a 06 	call	0xc34	; 0xc34 <writeString>
     f4a:	08 95       	ret

00000f4c <tela_OK>:
     f4c:	81 e0       	ldi	r24, 0x01	; 1
     f4e:	0e 94 43 06 	call	0xc86	; 0xc86 <writeInstruction>
     f52:	80 e8       	ldi	r24, 0x80	; 128
     f54:	0e 94 43 06 	call	0xc86	; 0xc86 <writeInstruction>
     f58:	88 ee       	ldi	r24, 0xE8	; 232
     f5a:	91 e0       	ldi	r25, 0x01	; 1
     f5c:	0e 94 1a 06 	call	0xc34	; 0xc34 <writeString>
     f60:	80 ec       	ldi	r24, 0xC0	; 192
     f62:	0e 94 43 06 	call	0xc86	; 0xc86 <writeInstruction>
     f66:	86 ef       	ldi	r24, 0xF6	; 246
     f68:	91 e0       	ldi	r25, 0x01	; 1
     f6a:	0e 94 1a 06 	call	0xc34	; 0xc34 <writeString>
     f6e:	2f ef       	ldi	r18, 0xFF	; 255
     f70:	8f e4       	ldi	r24, 0x4F	; 79
     f72:	93 ec       	ldi	r25, 0xC3	; 195
     f74:	21 50       	subi	r18, 0x01	; 1
     f76:	80 40       	sbci	r24, 0x00	; 0
     f78:	90 40       	sbci	r25, 0x00	; 0
     f7a:	e1 f7       	brne	.-8      	; 0xf74 <tela_OK+0x28>
     f7c:	00 c0       	rjmp	.+0      	; 0xf7e <tela_OK+0x32>
     f7e:	00 00       	nop
     f80:	08 95       	ret

00000f82 <tela_CF>:
     f82:	81 e0       	ldi	r24, 0x01	; 1
     f84:	0e 94 43 06 	call	0xc86	; 0xc86 <writeInstruction>
     f88:	80 e8       	ldi	r24, 0x80	; 128
     f8a:	0e 94 43 06 	call	0xc86	; 0xc86 <writeInstruction>
     f8e:	82 e0       	ldi	r24, 0x02	; 2
     f90:	92 e0       	ldi	r25, 0x02	; 2
     f92:	0e 94 1a 06 	call	0xc34	; 0xc34 <writeString>
     f96:	80 ec       	ldi	r24, 0xC0	; 192
     f98:	0e 94 43 06 	call	0xc86	; 0xc86 <writeInstruction>
     f9c:	8d e0       	ldi	r24, 0x0D	; 13
     f9e:	92 e0       	ldi	r25, 0x02	; 2
     fa0:	0e 94 1a 06 	call	0xc34	; 0xc34 <writeString>
     fa4:	2f ef       	ldi	r18, 0xFF	; 255
     fa6:	8b e7       	ldi	r24, 0x7B	; 123
     fa8:	92 e9       	ldi	r25, 0x92	; 146
     faa:	21 50       	subi	r18, 0x01	; 1
     fac:	80 40       	sbci	r24, 0x00	; 0
     fae:	90 40       	sbci	r25, 0x00	; 0
     fb0:	e1 f7       	brne	.-8      	; 0xfaa <tela_CF+0x28>
     fb2:	00 c0       	rjmp	.+0      	; 0xfb4 <tela_CF+0x32>
     fb4:	00 00       	nop
     fb6:	08 95       	ret

00000fb8 <tela_SI>:
     fb8:	81 e0       	ldi	r24, 0x01	; 1
     fba:	0e 94 43 06 	call	0xc86	; 0xc86 <writeInstruction>
     fbe:	80 e8       	ldi	r24, 0x80	; 128
     fc0:	0e 94 43 06 	call	0xc86	; 0xc86 <writeInstruction>
     fc4:	82 e0       	ldi	r24, 0x02	; 2
     fc6:	92 e0       	ldi	r25, 0x02	; 2
     fc8:	0e 94 1a 06 	call	0xc34	; 0xc34 <writeString>
     fcc:	80 ec       	ldi	r24, 0xC0	; 192
     fce:	0e 94 43 06 	call	0xc86	; 0xc86 <writeInstruction>
     fd2:	8d e1       	ldi	r24, 0x1D	; 29
     fd4:	92 e0       	ldi	r25, 0x02	; 2
     fd6:	0e 94 1a 06 	call	0xc34	; 0xc34 <writeString>
     fda:	2f ef       	ldi	r18, 0xFF	; 255
     fdc:	8b e7       	ldi	r24, 0x7B	; 123
     fde:	92 e9       	ldi	r25, 0x92	; 146
     fe0:	21 50       	subi	r18, 0x01	; 1
     fe2:	80 40       	sbci	r24, 0x00	; 0
     fe4:	90 40       	sbci	r25, 0x00	; 0
     fe6:	e1 f7       	brne	.-8      	; 0xfe0 <tela_SI+0x28>
     fe8:	00 c0       	rjmp	.+0      	; 0xfea <tela_SI+0x32>
     fea:	00 00       	nop
     fec:	08 95       	ret

00000fee <tela_SF>:
     fee:	81 e0       	ldi	r24, 0x01	; 1
     ff0:	0e 94 43 06 	call	0xc86	; 0xc86 <writeInstruction>
     ff4:	80 e8       	ldi	r24, 0x80	; 128
     ff6:	0e 94 43 06 	call	0xc86	; 0xc86 <writeInstruction>
     ffa:	82 e0       	ldi	r24, 0x02	; 2
     ffc:	92 e0       	ldi	r25, 0x02	; 2
     ffe:	0e 94 1a 06 	call	0xc34	; 0xc34 <writeString>
    1002:	80 ec       	ldi	r24, 0xC0	; 192
    1004:	0e 94 43 06 	call	0xc86	; 0xc86 <writeInstruction>
    1008:	8a e2       	ldi	r24, 0x2A	; 42
    100a:	92 e0       	ldi	r25, 0x02	; 2
    100c:	0e 94 1a 06 	call	0xc34	; 0xc34 <writeString>
    1010:	2f ef       	ldi	r18, 0xFF	; 255
    1012:	8b e7       	ldi	r24, 0x7B	; 123
    1014:	92 e9       	ldi	r25, 0x92	; 146
    1016:	21 50       	subi	r18, 0x01	; 1
    1018:	80 40       	sbci	r24, 0x00	; 0
    101a:	90 40       	sbci	r25, 0x00	; 0
    101c:	e1 f7       	brne	.-8      	; 0x1016 <tela_SF+0x28>
    101e:	00 c0       	rjmp	.+0      	; 0x1020 <tela_SF+0x32>
    1020:	00 00       	nop
    1022:	08 95       	ret

00001024 <login>:
    1024:	ef 92       	push	r14
    1026:	ff 92       	push	r15
    1028:	1f 93       	push	r17
    102a:	cf 93       	push	r28
    102c:	df 93       	push	r29
    102e:	7c 01       	movw	r14, r24
    1030:	10 e0       	ldi	r17, 0x00	; 0
    1032:	53 c0       	rjmp	.+166    	; 0x10da <login+0xb6>
    1034:	81 e0       	ldi	r24, 0x01	; 1
    1036:	0e 94 43 06 	call	0xc86	; 0xc86 <writeInstruction>
    103a:	82 e0       	ldi	r24, 0x02	; 2
    103c:	0e 94 43 06 	call	0xc86	; 0xc86 <writeInstruction>
    1040:	8a e3       	ldi	r24, 0x3A	; 58
    1042:	92 e0       	ldi	r25, 0x02	; 2
    1044:	0e 94 1a 06 	call	0xc34	; 0xc34 <writeString>
    1048:	c7 01       	movw	r24, r14
    104a:	0e 94 f0 06 	call	0xde0	; 0xde0 <lerSenha>
    104e:	c0 e0       	ldi	r28, 0x00	; 0
    1050:	d0 e0       	ldi	r29, 0x00	; 0
    1052:	3d c0       	rjmp	.+122    	; 0x10ce <login+0xaa>
    1054:	11 11       	cpse	r17, r1
    1056:	0c c0       	rjmp	.+24     	; 0x1070 <login+0x4c>
    1058:	be 01       	movw	r22, r28
    105a:	66 0f       	add	r22, r22
    105c:	77 1f       	adc	r23, r23
    105e:	66 0f       	add	r22, r22
    1060:	77 1f       	adc	r23, r23
    1062:	66 5b       	subi	r22, 0xB6	; 182
    1064:	7e 4f       	sbci	r23, 0xFE	; 254
    1066:	86 e4       	ldi	r24, 0x46	; 70
    1068:	91 e0       	ldi	r25, 0x01	; 1
    106a:	0e 94 d4 06 	call	0xda8	; 0xda8 <validarSenha>
    106e:	18 2f       	mov	r17, r24
    1070:	11 23       	and	r17, r17
    1072:	61 f1       	breq	.+88     	; 0x10cc <login+0xa8>
    1074:	81 e0       	ldi	r24, 0x01	; 1
    1076:	0e 94 43 06 	call	0xc86	; 0xc86 <writeInstruction>
    107a:	80 e8       	ldi	r24, 0x80	; 128
    107c:	0e 94 43 06 	call	0xc86	; 0xc86 <writeInstruction>
    1080:	89 e4       	ldi	r24, 0x49	; 73
    1082:	92 e0       	ldi	r25, 0x02	; 2
    1084:	0e 94 1a 06 	call	0xc34	; 0xc34 <writeString>
    1088:	80 ec       	ldi	r24, 0xC0	; 192
    108a:	0e 94 43 06 	call	0xc86	; 0xc86 <writeInstruction>
    108e:	c1 11       	cpse	r28, r1
    1090:	05 c0       	rjmp	.+10     	; 0x109c <login+0x78>
    1092:	83 e5       	ldi	r24, 0x53	; 83
    1094:	92 e0       	ldi	r25, 0x02	; 2
    1096:	0e 94 1a 06 	call	0xc34	; 0xc34 <writeString>
    109a:	0d c0       	rjmp	.+26     	; 0x10b6 <login+0x92>
    109c:	c1 30       	cpi	r28, 0x01	; 1
    109e:	29 f4       	brne	.+10     	; 0x10aa <login+0x86>
    10a0:	81 e6       	ldi	r24, 0x61	; 97
    10a2:	92 e0       	ldi	r25, 0x02	; 2
    10a4:	0e 94 1a 06 	call	0xc34	; 0xc34 <writeString>
    10a8:	06 c0       	rjmp	.+12     	; 0x10b6 <login+0x92>
    10aa:	c2 30       	cpi	r28, 0x02	; 2
    10ac:	21 f4       	brne	.+8      	; 0x10b6 <login+0x92>
    10ae:	8c e6       	ldi	r24, 0x6C	; 108
    10b0:	92 e0       	ldi	r25, 0x02	; 2
    10b2:	0e 94 1a 06 	call	0xc34	; 0xc34 <writeString>
    10b6:	2f ef       	ldi	r18, 0xFF	; 255
    10b8:	87 ea       	ldi	r24, 0xA7	; 167
    10ba:	91 e6       	ldi	r25, 0x61	; 97
    10bc:	21 50       	subi	r18, 0x01	; 1
    10be:	80 40       	sbci	r24, 0x00	; 0
    10c0:	90 40       	sbci	r25, 0x00	; 0
    10c2:	e1 f7       	brne	.-8      	; 0x10bc <login+0x98>
    10c4:	00 c0       	rjmp	.+0      	; 0x10c6 <login+0xa2>
    10c6:	00 00       	nop
    10c8:	8c 2f       	mov	r24, r28
    10ca:	0b c0       	rjmp	.+22     	; 0x10e2 <login+0xbe>
    10cc:	21 96       	adiw	r28, 0x01	; 1
    10ce:	c3 30       	cpi	r28, 0x03	; 3
    10d0:	d1 05       	cpc	r29, r1
    10d2:	0c f4       	brge	.+2      	; 0x10d6 <login+0xb2>
    10d4:	bf cf       	rjmp	.-130    	; 0x1054 <login+0x30>
    10d6:	0e 94 f7 07 	call	0xfee	; 0xfee <tela_SF>
    10da:	11 23       	and	r17, r17
    10dc:	09 f4       	brne	.+2      	; 0x10e0 <login+0xbc>
    10de:	aa cf       	rjmp	.-172    	; 0x1034 <login+0x10>
    10e0:	8f ef       	ldi	r24, 0xFF	; 255
    10e2:	df 91       	pop	r29
    10e4:	cf 91       	pop	r28
    10e6:	1f 91       	pop	r17
    10e8:	ff 90       	pop	r15
    10ea:	ef 90       	pop	r14
    10ec:	08 95       	ret

000010ee <tela_cartaoEstorno>:
    10ee:	81 e0       	ldi	r24, 0x01	; 1
    10f0:	0e 94 43 06 	call	0xc86	; 0xc86 <writeInstruction>
    10f4:	80 e8       	ldi	r24, 0x80	; 128
    10f6:	0e 94 43 06 	call	0xc86	; 0xc86 <writeInstruction>
    10fa:	87 e7       	ldi	r24, 0x77	; 119
    10fc:	92 e0       	ldi	r25, 0x02	; 2
    10fe:	0e 94 1a 06 	call	0xc34	; 0xc34 <writeString>
    1102:	80 ec       	ldi	r24, 0xC0	; 192
    1104:	0e 94 43 06 	call	0xc86	; 0xc86 <writeInstruction>
    1108:	08 95       	ret

0000110a <tela_valorEstorno>:
    110a:	81 e0       	ldi	r24, 0x01	; 1
    110c:	0e 94 43 06 	call	0xc86	; 0xc86 <writeInstruction>
    1110:	80 e8       	ldi	r24, 0x80	; 128
    1112:	0e 94 43 06 	call	0xc86	; 0xc86 <writeInstruction>
    1116:	87 e8       	ldi	r24, 0x87	; 135
    1118:	92 e0       	ldi	r25, 0x02	; 2
    111a:	0e 94 1a 06 	call	0xc34	; 0xc34 <writeString>
    111e:	80 ec       	ldi	r24, 0xC0	; 192
    1120:	0e 94 43 06 	call	0xc86	; 0xc86 <writeInstruction>
    1124:	86 e9       	ldi	r24, 0x96	; 150
    1126:	92 e0       	ldi	r25, 0x02	; 2
    1128:	0e 94 1a 06 	call	0xc34	; 0xc34 <writeString>
    112c:	08 95       	ret

0000112e <tela_estorno>:
    112e:	81 e0       	ldi	r24, 0x01	; 1
    1130:	0e 94 43 06 	call	0xc86	; 0xc86 <writeInstruction>
    1134:	80 e8       	ldi	r24, 0x80	; 128
    1136:	0e 94 43 06 	call	0xc86	; 0xc86 <writeInstruction>
    113a:	8a e9       	ldi	r24, 0x9A	; 154
    113c:	92 e0       	ldi	r25, 0x02	; 2
    113e:	0e 94 1a 06 	call	0xc34	; 0xc34 <writeString>
    1142:	80 ec       	ldi	r24, 0xC0	; 192
    1144:	0e 94 43 06 	call	0xc86	; 0xc86 <writeInstruction>
    1148:	08 95       	ret

0000114a <tela_vendaAvista>:
    114a:	81 e0       	ldi	r24, 0x01	; 1
    114c:	0e 94 43 06 	call	0xc86	; 0xc86 <writeInstruction>
    1150:	80 e8       	ldi	r24, 0x80	; 128
    1152:	0e 94 43 06 	call	0xc86	; 0xc86 <writeInstruction>
    1156:	86 ea       	ldi	r24, 0xA6	; 166
    1158:	92 e0       	ldi	r25, 0x02	; 2
    115a:	0e 94 1a 06 	call	0xc34	; 0xc34 <writeString>
    115e:	80 ec       	ldi	r24, 0xC0	; 192
    1160:	0e 94 43 06 	call	0xc86	; 0xc86 <writeInstruction>
    1164:	86 e9       	ldi	r24, 0x96	; 150
    1166:	92 e0       	ldi	r25, 0x02	; 2
    1168:	0e 94 1a 06 	call	0xc34	; 0xc34 <writeString>
    116c:	08 95       	ret

0000116e <tela_vendaParcelada>:
    116e:	81 e0       	ldi	r24, 0x01	; 1
    1170:	0e 94 43 06 	call	0xc86	; 0xc86 <writeInstruction>
    1174:	80 e8       	ldi	r24, 0x80	; 128
    1176:	0e 94 43 06 	call	0xc86	; 0xc86 <writeInstruction>
    117a:	87 eb       	ldi	r24, 0xB7	; 183
    117c:	92 e0       	ldi	r25, 0x02	; 2
    117e:	0e 94 1a 06 	call	0xc34	; 0xc34 <writeString>
    1182:	80 ec       	ldi	r24, 0xC0	; 192
    1184:	0e 94 43 06 	call	0xc86	; 0xc86 <writeInstruction>
    1188:	86 e9       	ldi	r24, 0x96	; 150
    118a:	92 e0       	ldi	r25, 0x02	; 2
    118c:	0e 94 1a 06 	call	0xc34	; 0xc34 <writeString>
    1190:	08 95       	ret

00001192 <tela_vendaInterna>:
    1192:	cf 93       	push	r28
    1194:	df 93       	push	r29
    1196:	ec 01       	movw	r28, r24
    1198:	81 e0       	ldi	r24, 0x01	; 1
    119a:	0e 94 43 06 	call	0xc86	; 0xc86 <writeInstruction>
    119e:	80 e8       	ldi	r24, 0x80	; 128
    11a0:	0e 94 43 06 	call	0xc86	; 0xc86 <writeInstruction>
    11a4:	c1 30       	cpi	r28, 0x01	; 1
    11a6:	d1 05       	cpc	r29, r1
    11a8:	a9 f4       	brne	.+42     	; 0x11d4 <tela_vendaInterna+0x42>
    11aa:	86 ec       	ldi	r24, 0xC6	; 198
    11ac:	92 e0       	ldi	r25, 0x02	; 2
    11ae:	0e 94 1a 06 	call	0xc34	; 0xc34 <writeString>
    11b2:	80 ec       	ldi	r24, 0xC0	; 192
    11b4:	0e 94 43 06 	call	0xc86	; 0xc86 <writeInstruction>
    11b8:	84 ed       	ldi	r24, 0xD4	; 212
    11ba:	92 e0       	ldi	r25, 0x02	; 2
    11bc:	0e 94 1a 06 	call	0xc34	; 0xc34 <writeString>
    11c0:	2f ef       	ldi	r18, 0xFF	; 255
    11c2:	87 ea       	ldi	r24, 0xA7	; 167
    11c4:	91 e6       	ldi	r25, 0x61	; 97
    11c6:	21 50       	subi	r18, 0x01	; 1
    11c8:	80 40       	sbci	r24, 0x00	; 0
    11ca:	90 40       	sbci	r25, 0x00	; 0
    11cc:	e1 f7       	brne	.-8      	; 0x11c6 <tela_vendaInterna+0x34>
    11ce:	00 c0       	rjmp	.+0      	; 0x11d0 <tela_vendaInterna+0x3e>
    11d0:	00 00       	nop
    11d2:	19 c0       	rjmp	.+50     	; 0x1206 <tela_vendaInterna+0x74>
    11d4:	cd 2b       	or	r28, r29
    11d6:	a9 f4       	brne	.+42     	; 0x1202 <tela_vendaInterna+0x70>
    11d8:	8f ed       	ldi	r24, 0xDF	; 223
    11da:	92 e0       	ldi	r25, 0x02	; 2
    11dc:	0e 94 1a 06 	call	0xc34	; 0xc34 <writeString>
    11e0:	80 ec       	ldi	r24, 0xC0	; 192
    11e2:	0e 94 43 06 	call	0xc86	; 0xc86 <writeInstruction>
    11e6:	8f ee       	ldi	r24, 0xEF	; 239
    11e8:	92 e0       	ldi	r25, 0x02	; 2
    11ea:	0e 94 1a 06 	call	0xc34	; 0xc34 <writeString>
    11ee:	2f ef       	ldi	r18, 0xFF	; 255
    11f0:	87 ea       	ldi	r24, 0xA7	; 167
    11f2:	91 e6       	ldi	r25, 0x61	; 97
    11f4:	21 50       	subi	r18, 0x01	; 1
    11f6:	80 40       	sbci	r24, 0x00	; 0
    11f8:	90 40       	sbci	r25, 0x00	; 0
    11fa:	e1 f7       	brne	.-8      	; 0x11f4 <tela_vendaInterna+0x62>
    11fc:	00 c0       	rjmp	.+0      	; 0x11fe <tela_vendaInterna+0x6c>
    11fe:	00 00       	nop
    1200:	02 c0       	rjmp	.+4      	; 0x1206 <tela_vendaInterna+0x74>
    1202:	0e 94 f7 07 	call	0xfee	; 0xfee <tela_SF>
    1206:	df 91       	pop	r29
    1208:	cf 91       	pop	r28
    120a:	08 95       	ret

0000120c <tela_nParcelas>:
    120c:	81 e0       	ldi	r24, 0x01	; 1
    120e:	0e 94 43 06 	call	0xc86	; 0xc86 <writeInstruction>
    1212:	80 e8       	ldi	r24, 0x80	; 128
    1214:	0e 94 43 06 	call	0xc86	; 0xc86 <writeInstruction>
    1218:	80 e0       	ldi	r24, 0x00	; 0
    121a:	93 e0       	ldi	r25, 0x03	; 3
    121c:	0e 94 1a 06 	call	0xc34	; 0xc34 <writeString>
    1220:	80 ec       	ldi	r24, 0xC0	; 192
    1222:	0e 94 43 06 	call	0xc86	; 0xc86 <writeInstruction>
    1226:	08 95       	ret

00001228 <n_parcelas>:
    1228:	0f 93       	push	r16
    122a:	1f 93       	push	r17
    122c:	cf 93       	push	r28
    122e:	df 93       	push	r29
    1230:	0e 94 06 09 	call	0x120c	; 0x120c <tela_nParcelas>
    1234:	c0 e0       	ldi	r28, 0x00	; 0
    1236:	d0 e0       	ldi	r29, 0x00	; 0
    1238:	11 e3       	ldi	r17, 0x31	; 49
    123a:	0e 94 76 05 	call	0xaec	; 0xaec <teclaDebouce>
    123e:	89 31       	cpi	r24, 0x19	; 25
    1240:	e1 f3       	breq	.-8      	; 0x123a <n_parcelas+0x12>
    1242:	8f 5c       	subi	r24, 0xCF	; 207
    1244:	8a 33       	cpi	r24, 0x3A	; 58
    1246:	99 f4       	brne	.+38     	; 0x126e <n_parcelas+0x46>
    1248:	1c 16       	cp	r1, r28
    124a:	1d 06       	cpc	r1, r29
    124c:	b4 f7       	brge	.-20     	; 0x123a <n_parcelas+0x12>
    124e:	1c 2f       	mov	r17, r28
    1250:	11 50       	subi	r17, 0x01	; 1
    1252:	10 6c       	ori	r17, 0xC0	; 192
    1254:	81 2f       	mov	r24, r17
    1256:	0e 94 43 06 	call	0xc86	; 0xc86 <writeInstruction>
    125a:	86 e7       	ldi	r24, 0x76	; 118
    125c:	95 e0       	ldi	r25, 0x05	; 5
    125e:	0e 94 1a 06 	call	0xc34	; 0xc34 <writeString>
    1262:	81 2f       	mov	r24, r17
    1264:	0e 94 43 06 	call	0xc86	; 0xc86 <writeInstruction>
    1268:	21 97       	sbiw	r28, 0x01	; 1
    126a:	11 e3       	ldi	r17, 0x31	; 49
    126c:	e6 cf       	rjmp	.-52     	; 0x123a <n_parcelas+0x12>
    126e:	8c 33       	cpi	r24, 0x3C	; 60
    1270:	11 f4       	brne	.+4      	; 0x1276 <n_parcelas+0x4e>
    1272:	11 33       	cpi	r17, 0x31	; 49
    1274:	c9 f4       	brne	.+50     	; 0x12a8 <n_parcelas+0x80>
    1276:	1c 16       	cp	r1, r28
    1278:	1d 06       	cpc	r1, r29
    127a:	fc f2       	brlt	.-66     	; 0x123a <n_parcelas+0x12>
    127c:	84 33       	cpi	r24, 0x34	; 52
    127e:	e8 f6       	brcc	.-70     	; 0x123a <n_parcelas+0x12>
    1280:	82 33       	cpi	r24, 0x32	; 50
    1282:	d8 f2       	brcs	.-74     	; 0x123a <n_parcelas+0x12>
    1284:	8b 33       	cpi	r24, 0x3B	; 59
    1286:	11 f0       	breq	.+4      	; 0x128c <n_parcelas+0x64>
    1288:	18 2f       	mov	r17, r24
    128a:	01 c0       	rjmp	.+2      	; 0x128e <n_parcelas+0x66>
    128c:	10 e3       	ldi	r17, 0x30	; 48
    128e:	0c 2f       	mov	r16, r28
    1290:	00 6c       	ori	r16, 0xC0	; 192
    1292:	80 2f       	mov	r24, r16
    1294:	0e 94 43 06 	call	0xc86	; 0xc86 <writeInstruction>
    1298:	81 2f       	mov	r24, r17
    129a:	0e 94 08 06 	call	0xc10	; 0xc10 <writeCharacter>
    129e:	80 2f       	mov	r24, r16
    12a0:	0e 94 43 06 	call	0xc86	; 0xc86 <writeInstruction>
    12a4:	21 96       	adiw	r28, 0x01	; 1
    12a6:	c9 cf       	rjmp	.-110    	; 0x123a <n_parcelas+0x12>
    12a8:	81 2f       	mov	r24, r17
    12aa:	df 91       	pop	r29
    12ac:	cf 91       	pop	r28
    12ae:	1f 91       	pop	r17
    12b0:	0f 91       	pop	r16
    12b2:	08 95       	ret

000012b4 <tela_senhaCartao>:
    12b4:	81 e0       	ldi	r24, 0x01	; 1
    12b6:	0e 94 43 06 	call	0xc86	; 0xc86 <writeInstruction>
    12ba:	80 e8       	ldi	r24, 0x80	; 128
    12bc:	0e 94 43 06 	call	0xc86	; 0xc86 <writeInstruction>
    12c0:	81 e1       	ldi	r24, 0x11	; 17
    12c2:	93 e0       	ldi	r25, 0x03	; 3
    12c4:	0e 94 1a 06 	call	0xc34	; 0xc34 <writeString>
    12c8:	80 ec       	ldi	r24, 0xC0	; 192
    12ca:	0e 94 43 06 	call	0xc86	; 0xc86 <writeInstruction>
    12ce:	08 95       	ret

000012d0 <recebe_senha>:
    12d0:	ef 92       	push	r14
    12d2:	ff 92       	push	r15
    12d4:	1f 93       	push	r17
    12d6:	cf 93       	push	r28
    12d8:	df 93       	push	r29
    12da:	7c 01       	movw	r14, r24
    12dc:	0e 94 5a 09 	call	0x12b4	; 0x12b4 <tela_senhaCartao>
    12e0:	c0 e0       	ldi	r28, 0x00	; 0
    12e2:	d0 e0       	ldi	r29, 0x00	; 0
    12e4:	0e 94 76 05 	call	0xaec	; 0xaec <teclaDebouce>
    12e8:	89 31       	cpi	r24, 0x19	; 25
    12ea:	e1 f3       	breq	.-8      	; 0x12e4 <recebe_senha+0x14>
    12ec:	8f 5c       	subi	r24, 0xCF	; 207
    12ee:	8a 33       	cpi	r24, 0x3A	; 58
    12f0:	b9 f4       	brne	.+46     	; 0x1320 <recebe_senha+0x50>
    12f2:	1c 16       	cp	r1, r28
    12f4:	1d 06       	cpc	r1, r29
    12f6:	b4 f7       	brge	.-20     	; 0x12e4 <recebe_senha+0x14>
    12f8:	1c 2f       	mov	r17, r28
    12fa:	11 50       	subi	r17, 0x01	; 1
    12fc:	10 6c       	ori	r17, 0xC0	; 192
    12fe:	81 2f       	mov	r24, r17
    1300:	0e 94 43 06 	call	0xc86	; 0xc86 <writeInstruction>
    1304:	86 e7       	ldi	r24, 0x76	; 118
    1306:	95 e0       	ldi	r25, 0x05	; 5
    1308:	0e 94 1a 06 	call	0xc34	; 0xc34 <writeString>
    130c:	81 2f       	mov	r24, r17
    130e:	0e 94 43 06 	call	0xc86	; 0xc86 <writeInstruction>
    1312:	21 97       	sbiw	r28, 0x01	; 1
    1314:	f7 01       	movw	r30, r14
    1316:	ec 0f       	add	r30, r28
    1318:	fd 1f       	adc	r31, r29
    131a:	80 e3       	ldi	r24, 0x30	; 48
    131c:	80 83       	st	Z, r24
    131e:	e2 cf       	rjmp	.-60     	; 0x12e4 <recebe_senha+0x14>
    1320:	8c 33       	cpi	r24, 0x3C	; 60
    1322:	c1 f0       	breq	.+48     	; 0x1354 <recebe_senha+0x84>
    1324:	c6 30       	cpi	r28, 0x06	; 6
    1326:	d1 05       	cpc	r29, r1
    1328:	ec f6       	brge	.-70     	; 0x12e4 <recebe_senha+0x14>
    132a:	8b 33       	cpi	r24, 0x3B	; 59
    132c:	09 f4       	brne	.+2      	; 0x1330 <recebe_senha+0x60>
    132e:	80 e3       	ldi	r24, 0x30	; 48
    1330:	f7 01       	movw	r30, r14
    1332:	ec 0f       	add	r30, r28
    1334:	fd 1f       	adc	r31, r29
    1336:	80 83       	st	Z, r24
    1338:	1c 2f       	mov	r17, r28
    133a:	10 6c       	ori	r17, 0xC0	; 192
    133c:	81 2f       	mov	r24, r17
    133e:	0e 94 43 06 	call	0xc86	; 0xc86 <writeInstruction>
    1342:	8a e1       	ldi	r24, 0x1A	; 26
    1344:	95 e0       	ldi	r25, 0x05	; 5
    1346:	0e 94 1a 06 	call	0xc34	; 0xc34 <writeString>
    134a:	81 2f       	mov	r24, r17
    134c:	0e 94 43 06 	call	0xc86	; 0xc86 <writeInstruction>
    1350:	21 96       	adiw	r28, 0x01	; 1
    1352:	c8 cf       	rjmp	.-112    	; 0x12e4 <recebe_senha+0x14>
    1354:	df 91       	pop	r29
    1356:	cf 91       	pop	r28
    1358:	1f 91       	pop	r17
    135a:	ff 90       	pop	r15
    135c:	ef 90       	pop	r14
    135e:	08 95       	ret

00001360 <tela_numCartao>:
    1360:	81 e0       	ldi	r24, 0x01	; 1
    1362:	0e 94 43 06 	call	0xc86	; 0xc86 <writeInstruction>
    1366:	80 e8       	ldi	r24, 0x80	; 128
    1368:	0e 94 43 06 	call	0xc86	; 0xc86 <writeInstruction>
    136c:	82 e2       	ldi	r24, 0x22	; 34
    136e:	93 e0       	ldi	r25, 0x03	; 3
    1370:	0e 94 1a 06 	call	0xc34	; 0xc34 <writeString>
    1374:	80 ec       	ldi	r24, 0xC0	; 192
    1376:	0e 94 43 06 	call	0xc86	; 0xc86 <writeInstruction>
    137a:	08 95       	ret

0000137c <recebe_cartao>:
    137c:	ef 92       	push	r14
    137e:	ff 92       	push	r15
    1380:	0f 93       	push	r16
    1382:	1f 93       	push	r17
    1384:	cf 93       	push	r28
    1386:	df 93       	push	r29
    1388:	7c 01       	movw	r14, r24
    138a:	0e 94 b0 09 	call	0x1360	; 0x1360 <tela_numCartao>
    138e:	00 e0       	ldi	r16, 0x00	; 0
    1390:	10 e0       	ldi	r17, 0x00	; 0
    1392:	0e 94 76 05 	call	0xaec	; 0xaec <teclaDebouce>
    1396:	89 31       	cpi	r24, 0x19	; 25
    1398:	e1 f3       	breq	.-8      	; 0x1392 <recebe_cartao+0x16>
    139a:	c1 e3       	ldi	r28, 0x31	; 49
    139c:	c8 0f       	add	r28, r24
    139e:	ca 33       	cpi	r28, 0x3A	; 58
    13a0:	c1 f4       	brne	.+48     	; 0x13d2 <recebe_cartao+0x56>
    13a2:	10 16       	cp	r1, r16
    13a4:	11 06       	cpc	r1, r17
    13a6:	ac f7       	brge	.-22     	; 0x1392 <recebe_cartao+0x16>
    13a8:	cf ef       	ldi	r28, 0xFF	; 255
    13aa:	c0 0f       	add	r28, r16
    13ac:	c0 6c       	ori	r28, 0xC0	; 192
    13ae:	8c 2f       	mov	r24, r28
    13b0:	0e 94 43 06 	call	0xc86	; 0xc86 <writeInstruction>
    13b4:	86 e7       	ldi	r24, 0x76	; 118
    13b6:	95 e0       	ldi	r25, 0x05	; 5
    13b8:	0e 94 1a 06 	call	0xc34	; 0xc34 <writeString>
    13bc:	8c 2f       	mov	r24, r28
    13be:	0e 94 43 06 	call	0xc86	; 0xc86 <writeInstruction>
    13c2:	01 50       	subi	r16, 0x01	; 1
    13c4:	11 09       	sbc	r17, r1
    13c6:	f7 01       	movw	r30, r14
    13c8:	e0 0f       	add	r30, r16
    13ca:	f1 1f       	adc	r31, r17
    13cc:	80 e3       	ldi	r24, 0x30	; 48
    13ce:	80 83       	st	Z, r24
    13d0:	e0 cf       	rjmp	.-64     	; 0x1392 <recebe_cartao+0x16>
    13d2:	cc 33       	cpi	r28, 0x3C	; 60
    13d4:	c1 f0       	breq	.+48     	; 0x1406 <recebe_cartao+0x8a>
    13d6:	06 30       	cpi	r16, 0x06	; 6
    13d8:	11 05       	cpc	r17, r1
    13da:	dc f6       	brge	.-74     	; 0x1392 <recebe_cartao+0x16>
    13dc:	cb 33       	cpi	r28, 0x3B	; 59
    13de:	09 f4       	brne	.+2      	; 0x13e2 <recebe_cartao+0x66>
    13e0:	c0 e3       	ldi	r28, 0x30	; 48
    13e2:	f7 01       	movw	r30, r14
    13e4:	e0 0f       	add	r30, r16
    13e6:	f1 1f       	adc	r31, r17
    13e8:	c0 83       	st	Z, r28
    13ea:	d0 2f       	mov	r29, r16
    13ec:	d0 6c       	ori	r29, 0xC0	; 192
    13ee:	8d 2f       	mov	r24, r29
    13f0:	0e 94 43 06 	call	0xc86	; 0xc86 <writeInstruction>
    13f4:	8c 2f       	mov	r24, r28
    13f6:	0e 94 08 06 	call	0xc10	; 0xc10 <writeCharacter>
    13fa:	8d 2f       	mov	r24, r29
    13fc:	0e 94 43 06 	call	0xc86	; 0xc86 <writeInstruction>
    1400:	0f 5f       	subi	r16, 0xFF	; 255
    1402:	1f 4f       	sbci	r17, 0xFF	; 255
    1404:	c6 cf       	rjmp	.-116    	; 0x1392 <recebe_cartao+0x16>
    1406:	df 91       	pop	r29
    1408:	cf 91       	pop	r28
    140a:	1f 91       	pop	r17
    140c:	0f 91       	pop	r16
    140e:	ff 90       	pop	r15
    1410:	ef 90       	pop	r14
    1412:	08 95       	ret

00001414 <tela_processandoVenda>:
    1414:	81 e0       	ldi	r24, 0x01	; 1
    1416:	0e 94 43 06 	call	0xc86	; 0xc86 <writeInstruction>
    141a:	80 e8       	ldi	r24, 0x80	; 128
    141c:	0e 94 43 06 	call	0xc86	; 0xc86 <writeInstruction>
    1420:	84 e3       	ldi	r24, 0x34	; 52
    1422:	93 e0       	ldi	r25, 0x03	; 3
    1424:	0e 94 1a 06 	call	0xc34	; 0xc34 <writeString>
    1428:	80 ec       	ldi	r24, 0xC0	; 192
    142a:	0e 94 43 06 	call	0xc86	; 0xc86 <writeInstruction>
    142e:	80 e4       	ldi	r24, 0x40	; 64
    1430:	93 e0       	ldi	r25, 0x03	; 3
    1432:	0e 94 1a 06 	call	0xc34	; 0xc34 <writeString>
    1436:	08 95       	ret

00001438 <tela_processandoVenda2>:
    1438:	81 e0       	ldi	r24, 0x01	; 1
    143a:	0e 94 43 06 	call	0xc86	; 0xc86 <writeInstruction>
    143e:	80 e8       	ldi	r24, 0x80	; 128
    1440:	0e 94 43 06 	call	0xc86	; 0xc86 <writeInstruction>
    1444:	84 e3       	ldi	r24, 0x34	; 52
    1446:	93 e0       	ldi	r25, 0x03	; 3
    1448:	0e 94 1a 06 	call	0xc34	; 0xc34 <writeString>
    144c:	80 ec       	ldi	r24, 0xC0	; 192
    144e:	0e 94 43 06 	call	0xc86	; 0xc86 <writeInstruction>
    1452:	8d e4       	ldi	r24, 0x4D	; 77
    1454:	93 e0       	ldi	r25, 0x03	; 3
    1456:	0e 94 1a 06 	call	0xc34	; 0xc34 <writeString>
    145a:	08 95       	ret

0000145c <tela_processandoVenda3>:
    145c:	81 e0       	ldi	r24, 0x01	; 1
    145e:	0e 94 43 06 	call	0xc86	; 0xc86 <writeInstruction>
    1462:	80 e8       	ldi	r24, 0x80	; 128
    1464:	0e 94 43 06 	call	0xc86	; 0xc86 <writeInstruction>
    1468:	84 e3       	ldi	r24, 0x34	; 52
    146a:	93 e0       	ldi	r25, 0x03	; 3
    146c:	0e 94 1a 06 	call	0xc34	; 0xc34 <writeString>
    1470:	80 ec       	ldi	r24, 0xC0	; 192
    1472:	0e 94 43 06 	call	0xc86	; 0xc86 <writeInstruction>
    1476:	8d e5       	ldi	r24, 0x5D	; 93
    1478:	93 e0       	ldi	r25, 0x03	; 3
    147a:	0e 94 1a 06 	call	0xc34	; 0xc34 <writeString>
    147e:	08 95       	ret

00001480 <menuADM>:
    1480:	2f ef       	ldi	r18, 0xFF	; 255
    1482:	8e e9       	ldi	r24, 0x9E	; 158
    1484:	94 e2       	ldi	r25, 0x24	; 36
    1486:	21 50       	subi	r18, 0x01	; 1
    1488:	80 40       	sbci	r24, 0x00	; 0
    148a:	90 40       	sbci	r25, 0x00	; 0
    148c:	e1 f7       	brne	.-8      	; 0x1486 <menuADM+0x6>
    148e:	00 c0       	rjmp	.+0      	; 0x1490 <menuADM+0x10>
    1490:	00 00       	nop
    1492:	83 e0       	ldi	r24, 0x03	; 3
    1494:	0e 94 43 06 	call	0xc86	; 0xc86 <writeInstruction>
    1498:	8d e6       	ldi	r24, 0x6D	; 109
    149a:	93 e0       	ldi	r25, 0x03	; 3
    149c:	0e 94 1a 06 	call	0xc34	; 0xc34 <writeString>
    14a0:	80 ec       	ldi	r24, 0xC0	; 192
    14a2:	0e 94 43 06 	call	0xc86	; 0xc86 <writeInstruction>
    14a6:	8d e7       	ldi	r24, 0x7D	; 125
    14a8:	93 e0       	ldi	r25, 0x03	; 3
    14aa:	0e 94 1a 06 	call	0xc34	; 0xc34 <writeString>
    14ae:	2f ef       	ldi	r18, 0xFF	; 255
    14b0:	8d e3       	ldi	r24, 0x3D	; 61
    14b2:	99 e4       	ldi	r25, 0x49	; 73
    14b4:	21 50       	subi	r18, 0x01	; 1
    14b6:	80 40       	sbci	r24, 0x00	; 0
    14b8:	90 40       	sbci	r25, 0x00	; 0
    14ba:	e1 f7       	brne	.-8      	; 0x14b4 <menuADM+0x34>
    14bc:	00 c0       	rjmp	.+0      	; 0x14be <menuADM+0x3e>
    14be:	00 00       	nop
    14c0:	81 e0       	ldi	r24, 0x01	; 1
    14c2:	0e 94 43 06 	call	0xc86	; 0xc86 <writeInstruction>
    14c6:	80 e8       	ldi	r24, 0x80	; 128
    14c8:	0e 94 43 06 	call	0xc86	; 0xc86 <writeInstruction>
    14cc:	8e e8       	ldi	r24, 0x8E	; 142
    14ce:	93 e0       	ldi	r25, 0x03	; 3
    14d0:	0e 94 1a 06 	call	0xc34	; 0xc34 <writeString>
    14d4:	80 ec       	ldi	r24, 0xC0	; 192
    14d6:	0e 94 43 06 	call	0xc86	; 0xc86 <writeInstruction>
    14da:	8f e9       	ldi	r24, 0x9F	; 159
    14dc:	93 e0       	ldi	r25, 0x03	; 3
    14de:	0e 94 1a 06 	call	0xc34	; 0xc34 <writeString>
    14e2:	08 95       	ret

000014e4 <tela_instrucoes_configOper>:
    14e4:	81 e0       	ldi	r24, 0x01	; 1
    14e6:	0e 94 43 06 	call	0xc86	; 0xc86 <writeInstruction>
    14ea:	80 e8       	ldi	r24, 0x80	; 128
    14ec:	0e 94 43 06 	call	0xc86	; 0xc86 <writeInstruction>
    14f0:	80 eb       	ldi	r24, 0xB0	; 176
    14f2:	93 e0       	ldi	r25, 0x03	; 3
    14f4:	0e 94 1a 06 	call	0xc34	; 0xc34 <writeString>
    14f8:	80 ec       	ldi	r24, 0xC0	; 192
    14fa:	0e 94 43 06 	call	0xc86	; 0xc86 <writeInstruction>
    14fe:	81 ec       	ldi	r24, 0xC1	; 193
    1500:	93 e0       	ldi	r25, 0x03	; 3
    1502:	0e 94 1a 06 	call	0xc34	; 0xc34 <writeString>
    1506:	2f ef       	ldi	r18, 0xFF	; 255
    1508:	8d e3       	ldi	r24, 0x3D	; 61
    150a:	99 e4       	ldi	r25, 0x49	; 73
    150c:	21 50       	subi	r18, 0x01	; 1
    150e:	80 40       	sbci	r24, 0x00	; 0
    1510:	90 40       	sbci	r25, 0x00	; 0
    1512:	e1 f7       	brne	.-8      	; 0x150c <tela_instrucoes_configOper+0x28>
    1514:	00 c0       	rjmp	.+0      	; 0x1516 <tela_instrucoes_configOper+0x32>
    1516:	00 00       	nop
    1518:	08 95       	ret

0000151a <tela_continuar_modo_atual>:
    151a:	81 e0       	ldi	r24, 0x01	; 1
    151c:	0e 94 43 06 	call	0xc86	; 0xc86 <writeInstruction>
    1520:	80 e8       	ldi	r24, 0x80	; 128
    1522:	0e 94 43 06 	call	0xc86	; 0xc86 <writeInstruction>
    1526:	80 ed       	ldi	r24, 0xD0	; 208
    1528:	93 e0       	ldi	r25, 0x03	; 3
    152a:	0e 94 1a 06 	call	0xc34	; 0xc34 <writeString>
    152e:	80 ec       	ldi	r24, 0xC0	; 192
    1530:	0e 94 43 06 	call	0xc86	; 0xc86 <writeInstruction>
    1534:	80 ee       	ldi	r24, 0xE0	; 224
    1536:	93 e0       	ldi	r25, 0x03	; 3
    1538:	0e 94 1a 06 	call	0xc34	; 0xc34 <writeString>
    153c:	08 95       	ret

0000153e <continuar_modo_atual>:
    153e:	cf 93       	push	r28
    1540:	df 93       	push	r29
    1542:	ec 01       	movw	r28, r24
    1544:	0e 94 8d 0a 	call	0x151a	; 0x151a <tela_continuar_modo_atual>
    1548:	89 e1       	ldi	r24, 0x19	; 25
    154a:	88 83       	st	Y, r24
    154c:	03 c0       	rjmp	.+6      	; 0x1554 <continuar_modo_atual+0x16>
    154e:	0e 94 76 05 	call	0xaec	; 0xaec <teclaDebouce>
    1552:	88 83       	st	Y, r24
    1554:	98 81       	ld	r25, Y
    1556:	9b 30       	cpi	r25, 0x0B	; 11
    1558:	11 f0       	breq	.+4      	; 0x155e <continuar_modo_atual+0x20>
    155a:	99 30       	cpi	r25, 0x09	; 9
    155c:	c1 f7       	brne	.-16     	; 0x154e <continuar_modo_atual+0x10>
    155e:	81 e0       	ldi	r24, 0x01	; 1
    1560:	9b 30       	cpi	r25, 0x0B	; 11
    1562:	09 f4       	brne	.+2      	; 0x1566 <continuar_modo_atual+0x28>
    1564:	80 e0       	ldi	r24, 0x00	; 0
    1566:	df 91       	pop	r29
    1568:	cf 91       	pop	r28
    156a:	08 95       	ret

0000156c <tela_instrucoes_configDiaMesAno>:
    156c:	81 e0       	ldi	r24, 0x01	; 1
    156e:	0e 94 43 06 	call	0xc86	; 0xc86 <writeInstruction>
    1572:	80 e8       	ldi	r24, 0x80	; 128
    1574:	0e 94 43 06 	call	0xc86	; 0xc86 <writeInstruction>
    1578:	8f ee       	ldi	r24, 0xEF	; 239
    157a:	93 e0       	ldi	r25, 0x03	; 3
    157c:	0e 94 1a 06 	call	0xc34	; 0xc34 <writeString>
    1580:	80 ec       	ldi	r24, 0xC0	; 192
    1582:	0e 94 43 06 	call	0xc86	; 0xc86 <writeInstruction>
    1586:	89 ef       	ldi	r24, 0xF9	; 249
    1588:	93 e0       	ldi	r25, 0x03	; 3
    158a:	0e 94 1a 06 	call	0xc34	; 0xc34 <writeString>
    158e:	2f ef       	ldi	r18, 0xFF	; 255
    1590:	8d e3       	ldi	r24, 0x3D	; 61
    1592:	99 e4       	ldi	r25, 0x49	; 73
    1594:	21 50       	subi	r18, 0x01	; 1
    1596:	80 40       	sbci	r24, 0x00	; 0
    1598:	90 40       	sbci	r25, 0x00	; 0
    159a:	e1 f7       	brne	.-8      	; 0x1594 <tela_instrucoes_configDiaMesAno+0x28>
    159c:	00 c0       	rjmp	.+0      	; 0x159e <tela_instrucoes_configDiaMesAno+0x32>
    159e:	00 00       	nop
    15a0:	81 e0       	ldi	r24, 0x01	; 1
    15a2:	0e 94 43 06 	call	0xc86	; 0xc86 <writeInstruction>
    15a6:	80 e8       	ldi	r24, 0x80	; 128
    15a8:	0e 94 43 06 	call	0xc86	; 0xc86 <writeInstruction>
    15ac:	86 e0       	ldi	r24, 0x06	; 6
    15ae:	94 e0       	ldi	r25, 0x04	; 4
    15b0:	0e 94 1a 06 	call	0xc34	; 0xc34 <writeString>
    15b4:	80 ec       	ldi	r24, 0xC0	; 192
    15b6:	0e 94 43 06 	call	0xc86	; 0xc86 <writeInstruction>
    15ba:	84 e1       	ldi	r24, 0x14	; 20
    15bc:	94 e0       	ldi	r25, 0x04	; 4
    15be:	0e 94 1a 06 	call	0xc34	; 0xc34 <writeString>
    15c2:	08 95       	ret

000015c4 <tela_instrucoes_configHoraMinSeg>:
    15c4:	81 e0       	ldi	r24, 0x01	; 1
    15c6:	0e 94 43 06 	call	0xc86	; 0xc86 <writeInstruction>
    15ca:	80 e8       	ldi	r24, 0x80	; 128
    15cc:	0e 94 43 06 	call	0xc86	; 0xc86 <writeInstruction>
    15d0:	8f ee       	ldi	r24, 0xEF	; 239
    15d2:	93 e0       	ldi	r25, 0x03	; 3
    15d4:	0e 94 1a 06 	call	0xc34	; 0xc34 <writeString>
    15d8:	80 ec       	ldi	r24, 0xC0	; 192
    15da:	0e 94 43 06 	call	0xc86	; 0xc86 <writeInstruction>
    15de:	8b e1       	ldi	r24, 0x1B	; 27
    15e0:	94 e0       	ldi	r25, 0x04	; 4
    15e2:	0e 94 1a 06 	call	0xc34	; 0xc34 <writeString>
    15e6:	2f ef       	ldi	r18, 0xFF	; 255
    15e8:	8d e3       	ldi	r24, 0x3D	; 61
    15ea:	99 e4       	ldi	r25, 0x49	; 73
    15ec:	21 50       	subi	r18, 0x01	; 1
    15ee:	80 40       	sbci	r24, 0x00	; 0
    15f0:	90 40       	sbci	r25, 0x00	; 0
    15f2:	e1 f7       	brne	.-8      	; 0x15ec <tela_instrucoes_configHoraMinSeg+0x28>
    15f4:	00 c0       	rjmp	.+0      	; 0x15f6 <tela_instrucoes_configHoraMinSeg+0x32>
    15f6:	00 00       	nop
    15f8:	81 e0       	ldi	r24, 0x01	; 1
    15fa:	0e 94 43 06 	call	0xc86	; 0xc86 <writeInstruction>
    15fe:	80 e8       	ldi	r24, 0x80	; 128
    1600:	0e 94 43 06 	call	0xc86	; 0xc86 <writeInstruction>
    1604:	86 e0       	ldi	r24, 0x06	; 6
    1606:	94 e0       	ldi	r25, 0x04	; 4
    1608:	0e 94 1a 06 	call	0xc34	; 0xc34 <writeString>
    160c:	80 ec       	ldi	r24, 0xC0	; 192
    160e:	0e 94 43 06 	call	0xc86	; 0xc86 <writeInstruction>
    1612:	88 e2       	ldi	r24, 0x28	; 40
    1614:	94 e0       	ldi	r25, 0x04	; 4
    1616:	0e 94 1a 06 	call	0xc34	; 0xc34 <writeString>
    161a:	08 95       	ret

0000161c <tela_operacaoConcluida>:
    161c:	81 e0       	ldi	r24, 0x01	; 1
    161e:	0e 94 43 06 	call	0xc86	; 0xc86 <writeInstruction>
    1622:	80 e8       	ldi	r24, 0x80	; 128
    1624:	0e 94 43 06 	call	0xc86	; 0xc86 <writeInstruction>
    1628:	8f e2       	ldi	r24, 0x2F	; 47
    162a:	94 e0       	ldi	r25, 0x04	; 4
    162c:	0e 94 1a 06 	call	0xc34	; 0xc34 <writeString>
    1630:	80 ec       	ldi	r24, 0xC0	; 192
    1632:	0e 94 43 06 	call	0xc86	; 0xc86 <writeInstruction>
    1636:	88 e3       	ldi	r24, 0x38	; 56
    1638:	94 e0       	ldi	r25, 0x04	; 4
    163a:	0e 94 1a 06 	call	0xc34	; 0xc34 <writeString>
    163e:	2f ef       	ldi	r18, 0xFF	; 255
    1640:	83 ed       	ldi	r24, 0xD3	; 211
    1642:	90 e3       	ldi	r25, 0x30	; 48
    1644:	21 50       	subi	r18, 0x01	; 1
    1646:	80 40       	sbci	r24, 0x00	; 0
    1648:	90 40       	sbci	r25, 0x00	; 0
    164a:	e1 f7       	brne	.-8      	; 0x1644 <tela_operacaoConcluida+0x28>
    164c:	00 c0       	rjmp	.+0      	; 0x164e <tela_operacaoConcluida+0x32>
    164e:	00 00       	nop
    1650:	08 95       	ret

00001652 <tela_dataInvalida>:
    1652:	81 e0       	ldi	r24, 0x01	; 1
    1654:	0e 94 43 06 	call	0xc86	; 0xc86 <writeInstruction>
    1658:	80 e8       	ldi	r24, 0x80	; 128
    165a:	0e 94 43 06 	call	0xc86	; 0xc86 <writeInstruction>
    165e:	83 e4       	ldi	r24, 0x43	; 67
    1660:	94 e0       	ldi	r25, 0x04	; 4
    1662:	0e 94 1a 06 	call	0xc34	; 0xc34 <writeString>
    1666:	80 ec       	ldi	r24, 0xC0	; 192
    1668:	0e 94 43 06 	call	0xc86	; 0xc86 <writeInstruction>
    166c:	82 e5       	ldi	r24, 0x52	; 82
    166e:	94 e0       	ldi	r25, 0x04	; 4
    1670:	0e 94 1a 06 	call	0xc34	; 0xc34 <writeString>
    1674:	2f ef       	ldi	r18, 0xFF	; 255
    1676:	83 ed       	ldi	r24, 0xD3	; 211
    1678:	90 e3       	ldi	r25, 0x30	; 48
    167a:	21 50       	subi	r18, 0x01	; 1
    167c:	80 40       	sbci	r24, 0x00	; 0
    167e:	90 40       	sbci	r25, 0x00	; 0
    1680:	e1 f7       	brne	.-8      	; 0x167a <tela_dataInvalida+0x28>
    1682:	00 c0       	rjmp	.+0      	; 0x1684 <tela_dataInvalida+0x32>
    1684:	00 00       	nop
    1686:	08 95       	ret

00001688 <tela_operadorDesabilitado>:
    1688:	cf 93       	push	r28
    168a:	c8 2f       	mov	r28, r24
    168c:	81 e0       	ldi	r24, 0x01	; 1
    168e:	0e 94 43 06 	call	0xc86	; 0xc86 <writeInstruction>
    1692:	80 e8       	ldi	r24, 0x80	; 128
    1694:	0e 94 43 06 	call	0xc86	; 0xc86 <writeInstruction>
    1698:	82 e6       	ldi	r24, 0x62	; 98
    169a:	94 e0       	ldi	r25, 0x04	; 4
    169c:	0e 94 1a 06 	call	0xc34	; 0xc34 <writeString>
    16a0:	80 e3       	ldi	r24, 0x30	; 48
    16a2:	8c 0f       	add	r24, r28
    16a4:	0e 94 08 06 	call	0xc10	; 0xc10 <writeCharacter>
    16a8:	80 ec       	ldi	r24, 0xC0	; 192
    16aa:	0e 94 43 06 	call	0xc86	; 0xc86 <writeInstruction>
    16ae:	8c e6       	ldi	r24, 0x6C	; 108
    16b0:	94 e0       	ldi	r25, 0x04	; 4
    16b2:	0e 94 1a 06 	call	0xc34	; 0xc34 <writeString>
    16b6:	2f ef       	ldi	r18, 0xFF	; 255
    16b8:	83 ed       	ldi	r24, 0xD3	; 211
    16ba:	90 e3       	ldi	r25, 0x30	; 48
    16bc:	21 50       	subi	r18, 0x01	; 1
    16be:	80 40       	sbci	r24, 0x00	; 0
    16c0:	90 40       	sbci	r25, 0x00	; 0
    16c2:	e1 f7       	brne	.-8      	; 0x16bc <tela_operadorDesabilitado+0x34>
    16c4:	00 c0       	rjmp	.+0      	; 0x16c6 <tela_operadorDesabilitado+0x3e>
    16c6:	00 00       	nop
    16c8:	cf 91       	pop	r28
    16ca:	08 95       	ret

000016cc <tela_semPendencias>:
    16cc:	81 e0       	ldi	r24, 0x01	; 1
    16ce:	0e 94 43 06 	call	0xc86	; 0xc86 <writeInstruction>
    16d2:	80 e8       	ldi	r24, 0x80	; 128
    16d4:	0e 94 43 06 	call	0xc86	; 0xc86 <writeInstruction>
    16d8:	89 e7       	ldi	r24, 0x79	; 121
    16da:	94 e0       	ldi	r25, 0x04	; 4
    16dc:	0e 94 1a 06 	call	0xc34	; 0xc34 <writeString>
    16e0:	80 ec       	ldi	r24, 0xC0	; 192
    16e2:	0e 94 43 06 	call	0xc86	; 0xc86 <writeInstruction>
    16e6:	81 e8       	ldi	r24, 0x81	; 129
    16e8:	94 e0       	ldi	r25, 0x04	; 4
    16ea:	0e 94 1a 06 	call	0xc34	; 0xc34 <writeString>
    16ee:	2f ef       	ldi	r18, 0xFF	; 255
    16f0:	83 ed       	ldi	r24, 0xD3	; 211
    16f2:	90 e3       	ldi	r25, 0x30	; 48
    16f4:	21 50       	subi	r18, 0x01	; 1
    16f6:	80 40       	sbci	r24, 0x00	; 0
    16f8:	90 40       	sbci	r25, 0x00	; 0
    16fa:	e1 f7       	brne	.-8      	; 0x16f4 <tela_semPendencias+0x28>
    16fc:	00 c0       	rjmp	.+0      	; 0x16fe <tela_semPendencias+0x32>
    16fe:	00 00       	nop
    1700:	08 95       	ret

00001702 <tela_opcaoInvalida>:
    1702:	81 e0       	ldi	r24, 0x01	; 1
    1704:	0e 94 43 06 	call	0xc86	; 0xc86 <writeInstruction>
    1708:	80 e8       	ldi	r24, 0x80	; 128
    170a:	0e 94 43 06 	call	0xc86	; 0xc86 <writeInstruction>
    170e:	8c e8       	ldi	r24, 0x8C	; 140
    1710:	94 e0       	ldi	r25, 0x04	; 4
    1712:	0e 94 1a 06 	call	0xc34	; 0xc34 <writeString>
    1716:	80 ec       	ldi	r24, 0xC0	; 192
    1718:	0e 94 43 06 	call	0xc86	; 0xc86 <writeInstruction>
    171c:	83 e9       	ldi	r24, 0x93	; 147
    171e:	94 e0       	ldi	r25, 0x04	; 4
    1720:	0e 94 1a 06 	call	0xc34	; 0xc34 <writeString>
    1724:	2f ef       	ldi	r18, 0xFF	; 255
    1726:	83 ed       	ldi	r24, 0xD3	; 211
    1728:	90 e3       	ldi	r25, 0x30	; 48
    172a:	21 50       	subi	r18, 0x01	; 1
    172c:	80 40       	sbci	r24, 0x00	; 0
    172e:	90 40       	sbci	r25, 0x00	; 0
    1730:	e1 f7       	brne	.-8      	; 0x172a <tela_opcaoInvalida+0x28>
    1732:	00 c0       	rjmp	.+0      	; 0x1734 <tela_opcaoInvalida+0x32>
    1734:	00 00       	nop
    1736:	08 95       	ret

00001738 <tela_cobrarPagAgendado>:
    1738:	81 e0       	ldi	r24, 0x01	; 1
    173a:	0e 94 43 06 	call	0xc86	; 0xc86 <writeInstruction>
    173e:	80 e8       	ldi	r24, 0x80	; 128
    1740:	0e 94 43 06 	call	0xc86	; 0xc86 <writeInstruction>
    1744:	8c e9       	ldi	r24, 0x9C	; 156
    1746:	94 e0       	ldi	r25, 0x04	; 4
    1748:	0e 94 1a 06 	call	0xc34	; 0xc34 <writeString>
    174c:	80 ec       	ldi	r24, 0xC0	; 192
    174e:	0e 94 43 06 	call	0xc86	; 0xc86 <writeInstruction>
    1752:	85 ea       	ldi	r24, 0xA5	; 165
    1754:	94 e0       	ldi	r25, 0x04	; 4
    1756:	0e 94 1a 06 	call	0xc34	; 0xc34 <writeString>
    175a:	2f ef       	ldi	r18, 0xFF	; 255
    175c:	83 ed       	ldi	r24, 0xD3	; 211
    175e:	90 e3       	ldi	r25, 0x30	; 48
    1760:	21 50       	subi	r18, 0x01	; 1
    1762:	80 40       	sbci	r24, 0x00	; 0
    1764:	90 40       	sbci	r25, 0x00	; 0
    1766:	e1 f7       	brne	.-8      	; 0x1760 <tela_cobrarPagAgendado+0x28>
    1768:	00 c0       	rjmp	.+0      	; 0x176a <tela_cobrarPagAgendado+0x32>
    176a:	00 00       	nop
    176c:	08 95       	ret

0000176e <tela_AguardandoPagAgendado>:
    176e:	81 e0       	ldi	r24, 0x01	; 1
    1770:	0e 94 43 06 	call	0xc86	; 0xc86 <writeInstruction>
    1774:	80 e8       	ldi	r24, 0x80	; 128
    1776:	0e 94 43 06 	call	0xc86	; 0xc86 <writeInstruction>
    177a:	84 eb       	ldi	r24, 0xB4	; 180
    177c:	94 e0       	ldi	r25, 0x04	; 4
    177e:	0e 94 1a 06 	call	0xc34	; 0xc34 <writeString>
    1782:	80 ec       	ldi	r24, 0xC0	; 192
    1784:	0e 94 43 06 	call	0xc86	; 0xc86 <writeInstruction>
    1788:	8f eb       	ldi	r24, 0xBF	; 191
    178a:	94 e0       	ldi	r25, 0x04	; 4
    178c:	0e 94 1a 06 	call	0xc34	; 0xc34 <writeString>
    1790:	2f ef       	ldi	r18, 0xFF	; 255
    1792:	83 ed       	ldi	r24, 0xD3	; 211
    1794:	90 e3       	ldi	r25, 0x30	; 48
    1796:	21 50       	subi	r18, 0x01	; 1
    1798:	80 40       	sbci	r24, 0x00	; 0
    179a:	90 40       	sbci	r25, 0x00	; 0
    179c:	e1 f7       	brne	.-8      	; 0x1796 <tela_AguardandoPagAgendado+0x28>
    179e:	00 c0       	rjmp	.+0      	; 0x17a0 <tela_AguardandoPagAgendado+0x32>
    17a0:	00 00       	nop
    17a2:	08 95       	ret

000017a4 <tela_instrucoes_remPendencia>:
    17a4:	81 e0       	ldi	r24, 0x01	; 1
    17a6:	0e 94 43 06 	call	0xc86	; 0xc86 <writeInstruction>
    17aa:	80 e8       	ldi	r24, 0x80	; 128
    17ac:	0e 94 43 06 	call	0xc86	; 0xc86 <writeInstruction>
    17b0:	87 ec       	ldi	r24, 0xC7	; 199
    17b2:	94 e0       	ldi	r25, 0x04	; 4
    17b4:	0e 94 1a 06 	call	0xc34	; 0xc34 <writeString>
    17b8:	80 ec       	ldi	r24, 0xC0	; 192
    17ba:	0e 94 43 06 	call	0xc86	; 0xc86 <writeInstruction>
    17be:	88 ed       	ldi	r24, 0xD8	; 216
    17c0:	94 e0       	ldi	r25, 0x04	; 4
    17c2:	0e 94 1a 06 	call	0xc34	; 0xc34 <writeString>
    17c6:	2f ef       	ldi	r18, 0xFF	; 255
    17c8:	83 ed       	ldi	r24, 0xD3	; 211
    17ca:	90 e3       	ldi	r25, 0x30	; 48
    17cc:	21 50       	subi	r18, 0x01	; 1
    17ce:	80 40       	sbci	r24, 0x00	; 0
    17d0:	90 40       	sbci	r25, 0x00	; 0
    17d2:	e1 f7       	brne	.-8      	; 0x17cc <tela_instrucoes_remPendencia+0x28>
    17d4:	00 c0       	rjmp	.+0      	; 0x17d6 <tela_instrucoes_remPendencia+0x32>
    17d6:	00 00       	nop
    17d8:	08 95       	ret

000017da <tela_infos_printPend>:
    17da:	81 e0       	ldi	r24, 0x01	; 1
    17dc:	0e 94 43 06 	call	0xc86	; 0xc86 <writeInstruction>
    17e0:	80 e8       	ldi	r24, 0x80	; 128
    17e2:	0e 94 43 06 	call	0xc86	; 0xc86 <writeInstruction>
    17e6:	86 ee       	ldi	r24, 0xE6	; 230
    17e8:	94 e0       	ldi	r25, 0x04	; 4
    17ea:	0e 94 1a 06 	call	0xc34	; 0xc34 <writeString>
    17ee:	80 ec       	ldi	r24, 0xC0	; 192
    17f0:	0e 94 43 06 	call	0xc86	; 0xc86 <writeInstruction>
    17f4:	87 ef       	ldi	r24, 0xF7	; 247
    17f6:	94 e0       	ldi	r25, 0x04	; 4
    17f8:	0e 94 1a 06 	call	0xc34	; 0xc34 <writeString>
    17fc:	2f ef       	ldi	r18, 0xFF	; 255
    17fe:	87 ea       	ldi	r24, 0xA7	; 167
    1800:	91 e6       	ldi	r25, 0x61	; 97
    1802:	21 50       	subi	r18, 0x01	; 1
    1804:	80 40       	sbci	r24, 0x00	; 0
    1806:	90 40       	sbci	r25, 0x00	; 0
    1808:	e1 f7       	brne	.-8      	; 0x1802 <tela_infos_printPend+0x28>
    180a:	00 c0       	rjmp	.+0      	; 0x180c <tela_infos_printPend+0x32>
    180c:	00 00       	nop
    180e:	08 95       	ret

00001810 <tela_dataAtual>:
    1810:	81 e0       	ldi	r24, 0x01	; 1
    1812:	0e 94 43 06 	call	0xc86	; 0xc86 <writeInstruction>
    1816:	80 e8       	ldi	r24, 0x80	; 128
    1818:	0e 94 43 06 	call	0xc86	; 0xc86 <writeInstruction>
    181c:	86 e0       	ldi	r24, 0x06	; 6
    181e:	95 e0       	ldi	r25, 0x05	; 5
    1820:	0e 94 1a 06 	call	0xc34	; 0xc34 <writeString>
    1824:	85 e8       	ldi	r24, 0x85	; 133
    1826:	0e 94 43 06 	call	0xc86	; 0xc86 <writeInstruction>
    182a:	0e 94 6a 02 	call	0x4d4	; 0x4d4 <AtualizaStringDataHora>
    182e:	81 ea       	ldi	r24, 0xA1	; 161
    1830:	96 e0       	ldi	r25, 0x06	; 6
    1832:	0e 94 1a 06 	call	0xc34	; 0xc34 <writeString>
    1836:	8d e0       	ldi	r24, 0x0D	; 13
    1838:	95 e0       	ldi	r25, 0x05	; 5
    183a:	0e 94 1a 06 	call	0xc34	; 0xc34 <writeString>
    183e:	80 ec       	ldi	r24, 0xC0	; 192
    1840:	0e 94 43 06 	call	0xc86	; 0xc86 <writeInstruction>
    1844:	81 e1       	ldi	r24, 0x11	; 17
    1846:	95 e0       	ldi	r25, 0x05	; 5
    1848:	0e 94 1a 06 	call	0xc34	; 0xc34 <writeString>
    184c:	85 ec       	ldi	r24, 0xC5	; 197
    184e:	0e 94 43 06 	call	0xc86	; 0xc86 <writeInstruction>
    1852:	8a ea       	ldi	r24, 0xAA	; 170
    1854:	96 e0       	ldi	r25, 0x06	; 6
    1856:	0e 94 1a 06 	call	0xc34	; 0xc34 <writeString>
    185a:	88 e1       	ldi	r24, 0x18	; 24
    185c:	95 e0       	ldi	r25, 0x05	; 5
    185e:	0e 94 1a 06 	call	0xc34	; 0xc34 <writeString>
    1862:	08 95       	ret

00001864 <tela_erroCom>:
    1864:	81 e0       	ldi	r24, 0x01	; 1
    1866:	0e 94 43 06 	call	0xc86	; 0xc86 <writeInstruction>
    186a:	80 e8       	ldi	r24, 0x80	; 128
    186c:	0e 94 43 06 	call	0xc86	; 0xc86 <writeInstruction>
    1870:	8c e1       	ldi	r24, 0x1C	; 28
    1872:	95 e0       	ldi	r25, 0x05	; 5
    1874:	0e 94 1a 06 	call	0xc34	; 0xc34 <writeString>
    1878:	80 ec       	ldi	r24, 0xC0	; 192
    187a:	0e 94 43 06 	call	0xc86	; 0xc86 <writeInstruction>
    187e:	84 e2       	ldi	r24, 0x24	; 36
    1880:	95 e0       	ldi	r25, 0x05	; 5
    1882:	0e 94 1a 06 	call	0xc34	; 0xc34 <writeString>
    1886:	2f ef       	ldi	r18, 0xFF	; 255
    1888:	87 ea       	ldi	r24, 0xA7	; 167
    188a:	91 e6       	ldi	r25, 0x61	; 97
    188c:	21 50       	subi	r18, 0x01	; 1
    188e:	80 40       	sbci	r24, 0x00	; 0
    1890:	90 40       	sbci	r25, 0x00	; 0
    1892:	e1 f7       	brne	.-8      	; 0x188c <tela_erroCom+0x28>
    1894:	00 c0       	rjmp	.+0      	; 0x1896 <tela_erroCom+0x32>
    1896:	00 00       	nop
    1898:	08 95       	ret

0000189a <USART_recebe>:
    189a:	1c c0       	rjmp	.+56     	; 0x18d4 <USART_recebe+0x3a>
    189c:	80 91 93 06 	lds	r24, 0x0693	; 0x800693 <com_ext>
    18a0:	86 30       	cpi	r24, 0x06	; 6
    18a2:	61 f0       	breq	.+24     	; 0x18bc <USART_recebe+0x22>
    18a4:	18 f4       	brcc	.+6      	; 0x18ac <USART_recebe+0x12>
    18a6:	82 30       	cpi	r24, 0x02	; 2
    18a8:	31 f0       	breq	.+12     	; 0x18b6 <USART_recebe+0x1c>
    18aa:	14 c0       	rjmp	.+40     	; 0x18d4 <USART_recebe+0x3a>
    18ac:	8a 30       	cpi	r24, 0x0A	; 10
    18ae:	49 f0       	breq	.+18     	; 0x18c2 <USART_recebe+0x28>
    18b0:	8d 30       	cpi	r24, 0x0D	; 13
    18b2:	51 f0       	breq	.+20     	; 0x18c8 <USART_recebe+0x2e>
    18b4:	0f c0       	rjmp	.+30     	; 0x18d4 <USART_recebe+0x3a>
    18b6:	0e 94 0a 0a 	call	0x1414	; 0x1414 <tela_processandoVenda>
    18ba:	0c c0       	rjmp	.+24     	; 0x18d4 <USART_recebe+0x3a>
    18bc:	0e 94 1c 0a 	call	0x1438	; 0x1438 <tela_processandoVenda2>
    18c0:	09 c0       	rjmp	.+18     	; 0x18d4 <USART_recebe+0x3a>
    18c2:	0e 94 2e 0a 	call	0x145c	; 0x145c <tela_processandoVenda3>
    18c6:	06 c0       	rjmp	.+12     	; 0x18d4 <USART_recebe+0x3a>
    18c8:	0e 94 32 0c 	call	0x1864	; 0x1864 <tela_erroCom>
    18cc:	10 92 93 06 	sts	0x0693, r1	; 0x800693 <com_ext>
    18d0:	80 e0       	ldi	r24, 0x00	; 0
    18d2:	08 95       	ret
    18d4:	80 91 c0 00 	lds	r24, 0x00C0	; 0x8000c0 <__TEXT_REGION_LENGTH__+0x7f80c0>
    18d8:	88 23       	and	r24, r24
    18da:	04 f7       	brge	.-64     	; 0x189c <USART_recebe+0x2>
    18dc:	80 91 c6 00 	lds	r24, 0x00C6	; 0x8000c6 <__TEXT_REGION_LENGTH__+0x7f80c6>
    18e0:	08 95       	ret

000018e2 <aguarda_cartao>:
    18e2:	cf 93       	push	r28
    18e4:	0e 94 94 07 	call	0xf28	; 0xf28 <menu_cartao>
    18e8:	c9 e1       	ldi	r28, 0x19	; 25
    18ea:	15 c0       	rjmp	.+42     	; 0x1916 <aguarda_cartao+0x34>
    18ec:	0e 94 76 05 	call	0xaec	; 0xaec <teclaDebouce>
    18f0:	c8 2f       	mov	r28, r24
    18f2:	80 91 c0 00 	lds	r24, 0x00C0	; 0x8000c0 <__TEXT_REGION_LENGTH__+0x7f80c0>
    18f6:	88 23       	and	r24, r24
    18f8:	74 f4       	brge	.+28     	; 0x1916 <aguarda_cartao+0x34>
    18fa:	0e 94 4d 0c 	call	0x189a	; 0x189a <USART_recebe>
    18fe:	83 34       	cpi	r24, 0x43	; 67
    1900:	51 f4       	brne	.+20     	; 0x1916 <aguarda_cartao+0x34>
    1902:	0e 94 4d 0c 	call	0x189a	; 0x189a <USART_recebe>
    1906:	8d 34       	cpi	r24, 0x4D	; 77
    1908:	19 f0       	breq	.+6      	; 0x1910 <aguarda_cartao+0x2e>
    190a:	87 35       	cpi	r24, 0x57	; 87
    190c:	49 f0       	breq	.+18     	; 0x1920 <aguarda_cartao+0x3e>
    190e:	03 c0       	rjmp	.+6      	; 0x1916 <aguarda_cartao+0x34>
    1910:	81 e0       	ldi	r24, 0x01	; 1
    1912:	90 e0       	ldi	r25, 0x00	; 0
    1914:	07 c0       	rjmp	.+14     	; 0x1924 <aguarda_cartao+0x42>
    1916:	c9 31       	cpi	r28, 0x19	; 25
    1918:	49 f3       	breq	.-46     	; 0x18ec <aguarda_cartao+0xa>
    191a:	83 e0       	ldi	r24, 0x03	; 3
    191c:	90 e0       	ldi	r25, 0x00	; 0
    191e:	02 c0       	rjmp	.+4      	; 0x1924 <aguarda_cartao+0x42>
    1920:	82 e0       	ldi	r24, 0x02	; 2
    1922:	90 e0       	ldi	r25, 0x00	; 0
    1924:	cf 91       	pop	r28
    1926:	08 95       	ret

00001928 <requisicao_externa>:
    1928:	cf 92       	push	r12
    192a:	df 92       	push	r13
    192c:	ef 92       	push	r14
    192e:	ff 92       	push	r15
    1930:	0f 93       	push	r16
    1932:	1f 93       	push	r17
    1934:	cf 93       	push	r28
    1936:	df 93       	push	r29
    1938:	cd b7       	in	r28, 0x3d	; 61
    193a:	de b7       	in	r29, 0x3e	; 62
    193c:	65 97       	sbiw	r28, 0x15	; 21
    193e:	0f b6       	in	r0, 0x3f	; 63
    1940:	f8 94       	cli
    1942:	de bf       	out	0x3e, r29	; 62
    1944:	0f be       	out	0x3f, r0	; 63
    1946:	cd bf       	out	0x3d, r28	; 61
    1948:	79 01       	movw	r14, r18
    194a:	21 30       	cpi	r18, 0x01	; 1
    194c:	31 05       	cpc	r19, r1
    194e:	09 f0       	breq	.+2      	; 0x1952 <requisicao_externa+0x2a>
    1950:	43 c0       	rjmp	.+134    	; 0x19d8 <requisicao_externa+0xb0>
    1952:	26 e5       	ldi	r18, 0x56	; 86
    1954:	29 83       	std	Y+1, r18	; 0x01
    1956:	2a 83       	std	Y+2, r18	; 0x02
    1958:	22 e0       	ldi	r18, 0x02	; 2
    195a:	30 e0       	ldi	r19, 0x00	; 0
    195c:	34 c0       	rjmp	.+104    	; 0x19c6 <requisicao_externa+0x9e>
    195e:	28 30       	cpi	r18, 0x08	; 8
    1960:	31 05       	cpc	r19, r1
    1962:	64 f4       	brge	.+24     	; 0x197c <requisicao_externa+0x54>
    1964:	fc 01       	movw	r30, r24
    1966:	e2 0f       	add	r30, r18
    1968:	f3 1f       	adc	r31, r19
    196a:	32 97       	sbiw	r30, 0x02	; 2
    196c:	a0 81       	ld	r26, Z
    196e:	e1 e0       	ldi	r30, 0x01	; 1
    1970:	f0 e0       	ldi	r31, 0x00	; 0
    1972:	ec 0f       	add	r30, r28
    1974:	fd 1f       	adc	r31, r29
    1976:	e2 0f       	add	r30, r18
    1978:	f3 1f       	adc	r31, r19
    197a:	a0 83       	st	Z, r26
    197c:	d9 01       	movw	r26, r18
    197e:	f9 01       	movw	r30, r18
    1980:	38 97       	sbiw	r30, 0x08	; 8
    1982:	e6 30       	cpi	r30, 0x06	; 6
    1984:	f1 05       	cpc	r31, r1
    1986:	50 f4       	brcc	.+20     	; 0x199c <requisicao_externa+0x74>
    1988:	e6 0f       	add	r30, r22
    198a:	f7 1f       	adc	r31, r23
    198c:	10 81       	ld	r17, Z
    198e:	e1 e0       	ldi	r30, 0x01	; 1
    1990:	f0 e0       	ldi	r31, 0x00	; 0
    1992:	ec 0f       	add	r30, r28
    1994:	fd 1f       	adc	r31, r29
    1996:	e2 0f       	add	r30, r18
    1998:	f3 1f       	adc	r31, r19
    199a:	10 83       	st	Z, r17
    199c:	2e 30       	cpi	r18, 0x0E	; 14
    199e:	31 05       	cpc	r19, r1
    19a0:	7c f0       	brlt	.+30     	; 0x19c0 <requisicao_externa+0x98>
    19a2:	e2 e1       	ldi	r30, 0x12	; 18
    19a4:	f0 e0       	ldi	r31, 0x00	; 0
    19a6:	e2 1b       	sub	r30, r18
    19a8:	f3 0b       	sbc	r31, r19
    19aa:	e4 0f       	add	r30, r20
    19ac:	f5 1f       	adc	r31, r21
    19ae:	d0 80       	ld	r13, Z
    19b0:	e1 e0       	ldi	r30, 0x01	; 1
    19b2:	f0 e0       	ldi	r31, 0x00	; 0
    19b4:	ec 0f       	add	r30, r28
    19b6:	fd 1f       	adc	r31, r29
    19b8:	2e 0f       	add	r18, r30
    19ba:	3f 1f       	adc	r19, r31
    19bc:	f9 01       	movw	r30, r18
    19be:	d0 82       	st	Z, r13
    19c0:	9d 01       	movw	r18, r26
    19c2:	2f 5f       	subi	r18, 0xFF	; 255
    19c4:	3f 4f       	sbci	r19, 0xFF	; 255
    19c6:	23 31       	cpi	r18, 0x13	; 19
    19c8:	31 05       	cpc	r19, r1
    19ca:	4c f2       	brlt	.-110    	; 0x195e <requisicao_externa+0x36>
    19cc:	0f 2e       	mov	r0, r31
    19ce:	f3 e1       	ldi	r31, 0x13	; 19
    19d0:	cf 2e       	mov	r12, r31
    19d2:	d1 2c       	mov	r13, r1
    19d4:	f0 2d       	mov	r31, r0
    19d6:	80 c0       	rjmp	.+256    	; 0x1ad8 <requisicao_externa+0x1b0>
    19d8:	23 2b       	or	r18, r19
    19da:	81 f5       	brne	.+96     	; 0x1a3c <requisicao_externa+0x114>
    19dc:	25 e4       	ldi	r18, 0x45	; 69
    19de:	29 83       	std	Y+1, r18	; 0x01
    19e0:	26 e5       	ldi	r18, 0x56	; 86
    19e2:	2a 83       	std	Y+2, r18	; 0x02
    19e4:	22 e0       	ldi	r18, 0x02	; 2
    19e6:	30 e0       	ldi	r19, 0x00	; 0
    19e8:	20 c0       	rjmp	.+64     	; 0x1a2a <requisicao_externa+0x102>
    19ea:	28 30       	cpi	r18, 0x08	; 8
    19ec:	31 05       	cpc	r19, r1
    19ee:	6c f4       	brge	.+26     	; 0x1a0a <requisicao_externa+0xe2>
    19f0:	fc 01       	movw	r30, r24
    19f2:	e2 0f       	add	r30, r18
    19f4:	f3 1f       	adc	r31, r19
    19f6:	32 97       	sbiw	r30, 0x02	; 2
    19f8:	60 81       	ld	r22, Z
    19fa:	e1 e0       	ldi	r30, 0x01	; 1
    19fc:	f0 e0       	ldi	r31, 0x00	; 0
    19fe:	ec 0f       	add	r30, r28
    1a00:	fd 1f       	adc	r31, r29
    1a02:	e2 0f       	add	r30, r18
    1a04:	f3 1f       	adc	r31, r19
    1a06:	60 83       	st	Z, r22
    1a08:	0e c0       	rjmp	.+28     	; 0x1a26 <requisicao_externa+0xfe>
    1a0a:	ec e0       	ldi	r30, 0x0C	; 12
    1a0c:	f0 e0       	ldi	r31, 0x00	; 0
    1a0e:	e2 1b       	sub	r30, r18
    1a10:	f3 0b       	sbc	r31, r19
    1a12:	e4 0f       	add	r30, r20
    1a14:	f5 1f       	adc	r31, r21
    1a16:	60 81       	ld	r22, Z
    1a18:	e1 e0       	ldi	r30, 0x01	; 1
    1a1a:	f0 e0       	ldi	r31, 0x00	; 0
    1a1c:	ec 0f       	add	r30, r28
    1a1e:	fd 1f       	adc	r31, r29
    1a20:	e2 0f       	add	r30, r18
    1a22:	f3 1f       	adc	r31, r19
    1a24:	60 83       	st	Z, r22
    1a26:	2f 5f       	subi	r18, 0xFF	; 255
    1a28:	3f 4f       	sbci	r19, 0xFF	; 255
    1a2a:	2d 30       	cpi	r18, 0x0D	; 13
    1a2c:	31 05       	cpc	r19, r1
    1a2e:	ec f2       	brlt	.-70     	; 0x19ea <requisicao_externa+0xc2>
    1a30:	0f 2e       	mov	r0, r31
    1a32:	fd e0       	ldi	r31, 0x0D	; 13
    1a34:	cf 2e       	mov	r12, r31
    1a36:	d1 2c       	mov	r13, r1
    1a38:	f0 2d       	mov	r31, r0
    1a3a:	4e c0       	rjmp	.+156    	; 0x1ad8 <requisicao_externa+0x1b0>
    1a3c:	26 e5       	ldi	r18, 0x56	; 86
    1a3e:	29 83       	std	Y+1, r18	; 0x01
    1a40:	20 e5       	ldi	r18, 0x50	; 80
    1a42:	2a 83       	std	Y+2, r18	; 0x02
    1a44:	22 e0       	ldi	r18, 0x02	; 2
    1a46:	30 e0       	ldi	r19, 0x00	; 0
    1a48:	3e c0       	rjmp	.+124    	; 0x1ac6 <requisicao_externa+0x19e>
    1a4a:	28 30       	cpi	r18, 0x08	; 8
    1a4c:	31 05       	cpc	r19, r1
    1a4e:	64 f4       	brge	.+24     	; 0x1a68 <requisicao_externa+0x140>
    1a50:	fc 01       	movw	r30, r24
    1a52:	e2 0f       	add	r30, r18
    1a54:	f3 1f       	adc	r31, r19
    1a56:	32 97       	sbiw	r30, 0x02	; 2
    1a58:	a0 81       	ld	r26, Z
    1a5a:	e1 e0       	ldi	r30, 0x01	; 1
    1a5c:	f0 e0       	ldi	r31, 0x00	; 0
    1a5e:	ec 0f       	add	r30, r28
    1a60:	fd 1f       	adc	r31, r29
    1a62:	e2 0f       	add	r30, r18
    1a64:	f3 1f       	adc	r31, r19
    1a66:	a0 83       	st	Z, r26
    1a68:	d9 01       	movw	r26, r18
    1a6a:	f9 01       	movw	r30, r18
    1a6c:	38 97       	sbiw	r30, 0x08	; 8
    1a6e:	e6 30       	cpi	r30, 0x06	; 6
    1a70:	f1 05       	cpc	r31, r1
    1a72:	50 f4       	brcc	.+20     	; 0x1a88 <requisicao_externa+0x160>
    1a74:	e6 0f       	add	r30, r22
    1a76:	f7 1f       	adc	r31, r23
    1a78:	10 81       	ld	r17, Z
    1a7a:	e1 e0       	ldi	r30, 0x01	; 1
    1a7c:	f0 e0       	ldi	r31, 0x00	; 0
    1a7e:	ec 0f       	add	r30, r28
    1a80:	fd 1f       	adc	r31, r29
    1a82:	e2 0f       	add	r30, r18
    1a84:	f3 1f       	adc	r31, r19
    1a86:	10 83       	st	Z, r17
    1a88:	2e 30       	cpi	r18, 0x0E	; 14
    1a8a:	31 05       	cpc	r19, r1
    1a8c:	39 f4       	brne	.+14     	; 0x1a9c <requisicao_externa+0x174>
    1a8e:	e1 e0       	ldi	r30, 0x01	; 1
    1a90:	f0 e0       	ldi	r31, 0x00	; 0
    1a92:	ec 0f       	add	r30, r28
    1a94:	fd 1f       	adc	r31, r29
    1a96:	e2 0f       	add	r30, r18
    1a98:	f3 1f       	adc	r31, r19
    1a9a:	e0 82       	st	Z, r14
    1a9c:	2f 30       	cpi	r18, 0x0F	; 15
    1a9e:	31 05       	cpc	r19, r1
    1aa0:	7c f0       	brlt	.+30     	; 0x1ac0 <requisicao_externa+0x198>
    1aa2:	e3 e1       	ldi	r30, 0x13	; 19
    1aa4:	f0 e0       	ldi	r31, 0x00	; 0
    1aa6:	e2 1b       	sub	r30, r18
    1aa8:	f3 0b       	sbc	r31, r19
    1aaa:	e4 0f       	add	r30, r20
    1aac:	f5 1f       	adc	r31, r21
    1aae:	d0 80       	ld	r13, Z
    1ab0:	01 e0       	ldi	r16, 0x01	; 1
    1ab2:	10 e0       	ldi	r17, 0x00	; 0
    1ab4:	0c 0f       	add	r16, r28
    1ab6:	1d 1f       	adc	r17, r29
    1ab8:	20 0f       	add	r18, r16
    1aba:	31 1f       	adc	r19, r17
    1abc:	f9 01       	movw	r30, r18
    1abe:	d0 82       	st	Z, r13
    1ac0:	9d 01       	movw	r18, r26
    1ac2:	2f 5f       	subi	r18, 0xFF	; 255
    1ac4:	3f 4f       	sbci	r19, 0xFF	; 255
    1ac6:	24 31       	cpi	r18, 0x14	; 20
    1ac8:	31 05       	cpc	r19, r1
    1aca:	0c f4       	brge	.+2      	; 0x1ace <requisicao_externa+0x1a6>
    1acc:	be cf       	rjmp	.-132    	; 0x1a4a <requisicao_externa+0x122>
    1ace:	0f 2e       	mov	r0, r31
    1ad0:	f4 e1       	ldi	r31, 0x14	; 20
    1ad2:	cf 2e       	mov	r12, r31
    1ad4:	d1 2c       	mov	r13, r1
    1ad6:	f0 2d       	mov	r31, r0
    1ad8:	00 e0       	ldi	r16, 0x00	; 0
    1ada:	10 e0       	ldi	r17, 0x00	; 0
    1adc:	0b c0       	rjmp	.+22     	; 0x1af4 <requisicao_externa+0x1cc>
    1ade:	e1 e0       	ldi	r30, 0x01	; 1
    1ae0:	f0 e0       	ldi	r31, 0x00	; 0
    1ae2:	ec 0f       	add	r30, r28
    1ae4:	fd 1f       	adc	r31, r29
    1ae6:	e0 0f       	add	r30, r16
    1ae8:	f1 1f       	adc	r31, r17
    1aea:	80 81       	ld	r24, Z
    1aec:	0e 94 c2 05 	call	0xb84	; 0xb84 <USART_envia>
    1af0:	0f 5f       	subi	r16, 0xFF	; 255
    1af2:	1f 4f       	sbci	r17, 0xFF	; 255
    1af4:	0c 15       	cp	r16, r12
    1af6:	1d 05       	cpc	r17, r13
    1af8:	94 f3       	brlt	.-28     	; 0x1ade <requisicao_externa+0x1b6>
    1afa:	8d e0       	ldi	r24, 0x0D	; 13
    1afc:	0e 94 c2 05 	call	0xb84	; 0xb84 <USART_envia>
    1b00:	81 e0       	ldi	r24, 0x01	; 1
    1b02:	80 93 93 06 	sts	0x0693, r24	; 0x800693 <com_ext>
    1b06:	e1 14       	cp	r14, r1
    1b08:	f1 04       	cpc	r15, r1
    1b0a:	99 f4       	brne	.+38     	; 0x1b32 <requisicao_externa+0x20a>
    1b0c:	0e 94 4d 0c 	call	0x189a	; 0x189a <USART_recebe>
    1b10:	83 34       	cpi	r24, 0x43	; 67
    1b12:	51 f0       	breq	.+20     	; 0x1b28 <requisicao_externa+0x200>
    1b14:	8f 34       	cpi	r24, 0x4F	; 79
    1b16:	19 f0       	breq	.+6      	; 0x1b1e <requisicao_externa+0x1f6>
    1b18:	81 11       	cpse	r24, r1
    1b1a:	f5 cf       	rjmp	.-22     	; 0x1b06 <requisicao_externa+0x1de>
    1b1c:	32 c0       	rjmp	.+100    	; 0x1b82 <requisicao_externa+0x25a>
    1b1e:	0e 94 a6 07 	call	0xf4c	; 0xf4c <tela_OK>
    1b22:	81 e0       	ldi	r24, 0x01	; 1
    1b24:	90 e0       	ldi	r25, 0x00	; 0
    1b26:	35 c0       	rjmp	.+106    	; 0x1b92 <requisicao_externa+0x26a>
    1b28:	0e 94 c1 07 	call	0xf82	; 0xf82 <tela_CF>
    1b2c:	83 e0       	ldi	r24, 0x03	; 3
    1b2e:	90 e0       	ldi	r25, 0x00	; 0
    1b30:	30 c0       	rjmp	.+96     	; 0x1b92 <requisicao_externa+0x26a>
    1b32:	0e 94 4d 0c 	call	0x189a	; 0x189a <USART_recebe>
    1b36:	83 34       	cpi	r24, 0x43	; 67
    1b38:	71 f0       	breq	.+28     	; 0x1b56 <requisicao_externa+0x22e>
    1b3a:	18 f4       	brcc	.+6      	; 0x1b42 <requisicao_externa+0x21a>
    1b3c:	88 23       	and	r24, r24
    1b3e:	21 f1       	breq	.+72     	; 0x1b88 <requisicao_externa+0x260>
    1b40:	e2 cf       	rjmp	.-60     	; 0x1b06 <requisicao_externa+0x1de>
    1b42:	8f 34       	cpi	r24, 0x4F	; 79
    1b44:	19 f0       	breq	.+6      	; 0x1b4c <requisicao_externa+0x224>
    1b46:	83 35       	cpi	r24, 0x53	; 83
    1b48:	59 f0       	breq	.+22     	; 0x1b60 <requisicao_externa+0x238>
    1b4a:	dd cf       	rjmp	.-70     	; 0x1b06 <requisicao_externa+0x1de>
    1b4c:	0e 94 a6 07 	call	0xf4c	; 0xf4c <tela_OK>
    1b50:	81 e0       	ldi	r24, 0x01	; 1
    1b52:	90 e0       	ldi	r25, 0x00	; 0
    1b54:	1e c0       	rjmp	.+60     	; 0x1b92 <requisicao_externa+0x26a>
    1b56:	0e 94 c1 07 	call	0xf82	; 0xf82 <tela_CF>
    1b5a:	83 e0       	ldi	r24, 0x03	; 3
    1b5c:	90 e0       	ldi	r25, 0x00	; 0
    1b5e:	19 c0       	rjmp	.+50     	; 0x1b92 <requisicao_externa+0x26a>
    1b60:	0e 94 4d 0c 	call	0x189a	; 0x189a <USART_recebe>
    1b64:	86 34       	cpi	r24, 0x46	; 70
    1b66:	19 f0       	breq	.+6      	; 0x1b6e <requisicao_externa+0x246>
    1b68:	89 34       	cpi	r24, 0x49	; 73
    1b6a:	31 f0       	breq	.+12     	; 0x1b78 <requisicao_externa+0x250>
    1b6c:	10 c0       	rjmp	.+32     	; 0x1b8e <requisicao_externa+0x266>
    1b6e:	0e 94 f7 07 	call	0xfee	; 0xfee <tela_SF>
    1b72:	82 e0       	ldi	r24, 0x02	; 2
    1b74:	90 e0       	ldi	r25, 0x00	; 0
    1b76:	0d c0       	rjmp	.+26     	; 0x1b92 <requisicao_externa+0x26a>
    1b78:	0e 94 dc 07 	call	0xfb8	; 0xfb8 <tela_SI>
    1b7c:	84 e0       	ldi	r24, 0x04	; 4
    1b7e:	90 e0       	ldi	r25, 0x00	; 0
    1b80:	08 c0       	rjmp	.+16     	; 0x1b92 <requisicao_externa+0x26a>
    1b82:	85 e0       	ldi	r24, 0x05	; 5
    1b84:	90 e0       	ldi	r25, 0x00	; 0
    1b86:	05 c0       	rjmp	.+10     	; 0x1b92 <requisicao_externa+0x26a>
    1b88:	85 e0       	ldi	r24, 0x05	; 5
    1b8a:	90 e0       	ldi	r25, 0x00	; 0
    1b8c:	02 c0       	rjmp	.+4      	; 0x1b92 <requisicao_externa+0x26a>
    1b8e:	85 e0       	ldi	r24, 0x05	; 5
    1b90:	90 e0       	ldi	r25, 0x00	; 0
    1b92:	65 96       	adiw	r28, 0x15	; 21
    1b94:	0f b6       	in	r0, 0x3f	; 63
    1b96:	f8 94       	cli
    1b98:	de bf       	out	0x3e, r29	; 62
    1b9a:	0f be       	out	0x3f, r0	; 63
    1b9c:	cd bf       	out	0x3d, r28	; 61
    1b9e:	df 91       	pop	r29
    1ba0:	cf 91       	pop	r28
    1ba2:	1f 91       	pop	r17
    1ba4:	0f 91       	pop	r16
    1ba6:	ff 90       	pop	r15
    1ba8:	ef 90       	pop	r14
    1baa:	df 90       	pop	r13
    1bac:	cf 90       	pop	r12
    1bae:	08 95       	ret

00001bb0 <processa_estorno>:
    1bb0:	af 92       	push	r10
    1bb2:	bf 92       	push	r11
    1bb4:	cf 92       	push	r12
    1bb6:	df 92       	push	r13
    1bb8:	ef 92       	push	r14
    1bba:	ff 92       	push	r15
    1bbc:	0f 93       	push	r16
    1bbe:	1f 93       	push	r17
    1bc0:	cf 93       	push	r28
    1bc2:	df 93       	push	r29
    1bc4:	7c 01       	movw	r14, r24
    1bc6:	6b 01       	movw	r12, r22
    1bc8:	8a 01       	movw	r16, r20
    1bca:	80 e0       	ldi	r24, 0x00	; 0
    1bcc:	90 e0       	ldi	r25, 0x00	; 0
    1bce:	38 c0       	rjmp	.+112    	; 0x1c40 <processa_estorno+0x90>
    1bd0:	21 e0       	ldi	r18, 0x01	; 1
    1bd2:	e2 16       	cp	r14, r18
    1bd4:	f1 04       	cpc	r15, r1
    1bd6:	89 f4       	brne	.+34     	; 0x1bfa <processa_estorno+0x4a>
    1bd8:	02 97       	sbiw	r24, 0x02	; 2
    1bda:	51 f4       	brne	.+20     	; 0x1bf0 <processa_estorno+0x40>
    1bdc:	0e c0       	rjmp	.+28     	; 0x1bfa <processa_estorno+0x4a>
    1bde:	58 01       	movw	r10, r16
    1be0:	ac 0e       	add	r10, r28
    1be2:	bd 1e       	adc	r11, r29
    1be4:	0e 94 4d 0c 	call	0x189a	; 0x189a <USART_recebe>
    1be8:	f5 01       	movw	r30, r10
    1bea:	80 83       	st	Z, r24
    1bec:	21 96       	adiw	r28, 0x01	; 1
    1bee:	02 c0       	rjmp	.+4      	; 0x1bf4 <processa_estorno+0x44>
    1bf0:	c0 e0       	ldi	r28, 0x00	; 0
    1bf2:	d0 e0       	ldi	r29, 0x00	; 0
    1bf4:	c6 30       	cpi	r28, 0x06	; 6
    1bf6:	d1 05       	cpc	r29, r1
    1bf8:	94 f3       	brlt	.-28     	; 0x1bde <processa_estorno+0x2e>
    1bfa:	f2 e0       	ldi	r31, 0x02	; 2
    1bfc:	ef 16       	cp	r14, r31
    1bfe:	f1 04       	cpc	r15, r1
    1c00:	79 f4       	brne	.+30     	; 0x1c20 <processa_estorno+0x70>
    1c02:	09 c0       	rjmp	.+18     	; 0x1c16 <processa_estorno+0x66>
    1c04:	58 01       	movw	r10, r16
    1c06:	ac 0e       	add	r10, r28
    1c08:	bd 1e       	adc	r11, r29
    1c0a:	0e 94 4d 0c 	call	0x189a	; 0x189a <USART_recebe>
    1c0e:	f5 01       	movw	r30, r10
    1c10:	80 83       	st	Z, r24
    1c12:	21 96       	adiw	r28, 0x01	; 1
    1c14:	02 c0       	rjmp	.+4      	; 0x1c1a <processa_estorno+0x6a>
    1c16:	c0 e0       	ldi	r28, 0x00	; 0
    1c18:	d0 e0       	ldi	r29, 0x00	; 0
    1c1a:	c6 30       	cpi	r28, 0x06	; 6
    1c1c:	d1 05       	cpc	r29, r1
    1c1e:	94 f3       	brlt	.-28     	; 0x1c04 <processa_estorno+0x54>
    1c20:	f3 e0       	ldi	r31, 0x03	; 3
    1c22:	ef 16       	cp	r14, r31
    1c24:	f1 04       	cpc	r15, r1
    1c26:	19 f4       	brne	.+6      	; 0x1c2e <processa_estorno+0x7e>
    1c28:	c8 01       	movw	r24, r16
    1c2a:	0e 94 be 09 	call	0x137c	; 0x137c <recebe_cartao>
    1c2e:	20 e0       	ldi	r18, 0x00	; 0
    1c30:	30 e0       	ldi	r19, 0x00	; 0
    1c32:	a6 01       	movw	r20, r12
    1c34:	b8 01       	movw	r22, r16
    1c36:	c8 01       	movw	r24, r16
    1c38:	0e 94 94 0c 	call	0x1928	; 0x1928 <requisicao_externa>
    1c3c:	10 92 93 06 	sts	0x0693, r1	; 0x800693 <com_ext>
    1c40:	81 30       	cpi	r24, 0x01	; 1
    1c42:	91 05       	cpc	r25, r1
    1c44:	39 f0       	breq	.+14     	; 0x1c54 <processa_estorno+0xa4>
    1c46:	83 30       	cpi	r24, 0x03	; 3
    1c48:	91 05       	cpc	r25, r1
    1c4a:	21 f0       	breq	.+8      	; 0x1c54 <processa_estorno+0xa4>
    1c4c:	85 30       	cpi	r24, 0x05	; 5
    1c4e:	91 05       	cpc	r25, r1
    1c50:	09 f0       	breq	.+2      	; 0x1c54 <processa_estorno+0xa4>
    1c52:	be cf       	rjmp	.-132    	; 0x1bd0 <processa_estorno+0x20>
    1c54:	df 91       	pop	r29
    1c56:	cf 91       	pop	r28
    1c58:	1f 91       	pop	r17
    1c5a:	0f 91       	pop	r16
    1c5c:	ff 90       	pop	r15
    1c5e:	ef 90       	pop	r14
    1c60:	df 90       	pop	r13
    1c62:	cf 90       	pop	r12
    1c64:	bf 90       	pop	r11
    1c66:	af 90       	pop	r10
    1c68:	08 95       	ret

00001c6a <estorno>:
    1c6a:	0f 93       	push	r16
    1c6c:	1f 93       	push	r17
    1c6e:	cf 93       	push	r28
    1c70:	df 93       	push	r29
    1c72:	cd b7       	in	r28, 0x3d	; 61
    1c74:	de b7       	in	r29, 0x3e	; 62
    1c76:	6b 97       	sbiw	r28, 0x1b	; 27
    1c78:	0f b6       	in	r0, 0x3f	; 63
    1c7a:	f8 94       	cli
    1c7c:	de bf       	out	0x3e, r29	; 62
    1c7e:	0f be       	out	0x3f, r0	; 63
    1c80:	cd bf       	out	0x3d, r28	; 61
    1c82:	80 e3       	ldi	r24, 0x30	; 48
    1c84:	89 83       	std	Y+1, r24	; 0x01
    1c86:	8a 83       	std	Y+2, r24	; 0x02
    1c88:	8b 83       	std	Y+3, r24	; 0x03
    1c8a:	8c 83       	std	Y+4, r24	; 0x04
    1c8c:	86 e0       	ldi	r24, 0x06	; 6
    1c8e:	e8 e5       	ldi	r30, 0x58	; 88
    1c90:	f1 e0       	ldi	r31, 0x01	; 1
    1c92:	de 01       	movw	r26, r28
    1c94:	15 96       	adiw	r26, 0x05	; 5
    1c96:	01 90       	ld	r0, Z+
    1c98:	0d 92       	st	X+, r0
    1c9a:	8a 95       	dec	r24
    1c9c:	e1 f7       	brne	.-8      	; 0x1c96 <estorno+0x2c>
    1c9e:	85 e0       	ldi	r24, 0x05	; 5
    1ca0:	ee e5       	ldi	r30, 0x5E	; 94
    1ca2:	f1 e0       	ldi	r31, 0x01	; 1
    1ca4:	de 01       	movw	r26, r28
    1ca6:	1b 96       	adiw	r26, 0x0b	; 11
    1ca8:	01 90       	ld	r0, Z+
    1caa:	0d 92       	st	X+, r0
    1cac:	8a 95       	dec	r24
    1cae:	e1 f7       	brne	.-8      	; 0x1ca8 <estorno+0x3e>
    1cb0:	8c e0       	ldi	r24, 0x0C	; 12
    1cb2:	e3 e6       	ldi	r30, 0x63	; 99
    1cb4:	f1 e0       	ldi	r31, 0x01	; 1
    1cb6:	de 01       	movw	r26, r28
    1cb8:	50 96       	adiw	r26, 0x10	; 16
    1cba:	01 90       	ld	r0, Z+
    1cbc:	0d 92       	st	X+, r0
    1cbe:	8a 95       	dec	r24
    1cc0:	e1 f7       	brne	.-8      	; 0x1cba <estorno+0x50>
    1cc2:	0e 94 97 08 	call	0x112e	; 0x112e <tela_estorno>
    1cc6:	ce 01       	movw	r24, r28
    1cc8:	01 96       	adiw	r24, 0x01	; 1
    1cca:	0e 94 68 09 	call	0x12d0	; 0x12d0 <recebe_senha>
    1cce:	80 e0       	ldi	r24, 0x00	; 0
    1cd0:	90 e0       	ldi	r25, 0x00	; 0
    1cd2:	00 e0       	ldi	r16, 0x00	; 0
    1cd4:	10 e0       	ldi	r17, 0x00	; 0
    1cd6:	14 c0       	rjmp	.+40     	; 0x1d00 <estorno+0x96>
    1cd8:	00 97       	sbiw	r24, 0x00	; 0
    1cda:	81 f4       	brne	.+32     	; 0x1cfc <estorno+0x92>
    1cdc:	b8 01       	movw	r22, r16
    1cde:	66 0f       	add	r22, r22
    1ce0:	77 1f       	adc	r23, r23
    1ce2:	66 0f       	add	r22, r22
    1ce4:	77 1f       	adc	r23, r23
    1ce6:	80 e1       	ldi	r24, 0x10	; 16
    1ce8:	90 e0       	ldi	r25, 0x00	; 0
    1cea:	8c 0f       	add	r24, r28
    1cec:	9d 1f       	adc	r25, r29
    1cee:	68 0f       	add	r22, r24
    1cf0:	79 1f       	adc	r23, r25
    1cf2:	ce 01       	movw	r24, r28
    1cf4:	01 96       	adiw	r24, 0x01	; 1
    1cf6:	0e 94 d4 06 	call	0xda8	; 0xda8 <validarSenha>
    1cfa:	90 e0       	ldi	r25, 0x00	; 0
    1cfc:	0f 5f       	subi	r16, 0xFF	; 255
    1cfe:	1f 4f       	sbci	r17, 0xFF	; 255
    1d00:	03 30       	cpi	r16, 0x03	; 3
    1d02:	11 05       	cpc	r17, r1
    1d04:	4c f3       	brlt	.-46     	; 0x1cd8 <estorno+0x6e>
    1d06:	89 2b       	or	r24, r25
    1d08:	c1 f0       	breq	.+48     	; 0x1d3a <estorno+0xd0>
    1d0a:	0e 94 85 08 	call	0x110a	; 0x110a <tela_valorEstorno>
    1d0e:	ce 01       	movw	r24, r28
    1d10:	0b 96       	adiw	r24, 0x0b	; 11
    1d12:	0e 94 59 06 	call	0xcb2	; 0xcb2 <recebe_valor>
    1d16:	ce 01       	movw	r24, r28
    1d18:	0b 96       	adiw	r24, 0x0b	; 11
    1d1a:	0e 94 e8 04 	call	0x9d0	; 0x9d0 <formata_valor>
    1d1e:	0e 94 77 08 	call	0x10ee	; 0x10ee <tela_cartaoEstorno>
    1d22:	0e 94 71 0c 	call	0x18e2	; 0x18e2 <aguarda_cartao>
    1d26:	ae 01       	movw	r20, r28
    1d28:	4b 5f       	subi	r20, 0xFB	; 251
    1d2a:	5f 4f       	sbci	r21, 0xFF	; 255
    1d2c:	be 01       	movw	r22, r28
    1d2e:	65 5f       	subi	r22, 0xF5	; 245
    1d30:	7f 4f       	sbci	r23, 0xFF	; 255
    1d32:	90 e0       	ldi	r25, 0x00	; 0
    1d34:	0e 94 d8 0d 	call	0x1bb0	; 0x1bb0 <processa_estorno>
    1d38:	02 c0       	rjmp	.+4      	; 0x1d3e <estorno+0xd4>
    1d3a:	0e 94 f7 07 	call	0xfee	; 0xfee <tela_SF>
    1d3e:	9f ef       	ldi	r25, 0xFF	; 255
    1d40:	2b e7       	ldi	r18, 0x7B	; 123
    1d42:	82 e9       	ldi	r24, 0x92	; 146
    1d44:	91 50       	subi	r25, 0x01	; 1
    1d46:	20 40       	sbci	r18, 0x00	; 0
    1d48:	80 40       	sbci	r24, 0x00	; 0
    1d4a:	e1 f7       	brne	.-8      	; 0x1d44 <estorno+0xda>
    1d4c:	00 c0       	rjmp	.+0      	; 0x1d4e <estorno+0xe4>
    1d4e:	00 00       	nop
    1d50:	6b 96       	adiw	r28, 0x1b	; 27
    1d52:	0f b6       	in	r0, 0x3f	; 63
    1d54:	f8 94       	cli
    1d56:	de bf       	out	0x3e, r29	; 62
    1d58:	0f be       	out	0x3f, r0	; 63
    1d5a:	cd bf       	out	0x3d, r28	; 61
    1d5c:	df 91       	pop	r29
    1d5e:	cf 91       	pop	r28
    1d60:	1f 91       	pop	r17
    1d62:	0f 91       	pop	r16
    1d64:	08 95       	ret

00001d66 <processa_pagamento>:
    1d66:	2f 92       	push	r2
    1d68:	3f 92       	push	r3
    1d6a:	4f 92       	push	r4
    1d6c:	5f 92       	push	r5
    1d6e:	6f 92       	push	r6
    1d70:	7f 92       	push	r7
    1d72:	8f 92       	push	r8
    1d74:	9f 92       	push	r9
    1d76:	af 92       	push	r10
    1d78:	bf 92       	push	r11
    1d7a:	cf 92       	push	r12
    1d7c:	df 92       	push	r13
    1d7e:	ef 92       	push	r14
    1d80:	ff 92       	push	r15
    1d82:	0f 93       	push	r16
    1d84:	1f 93       	push	r17
    1d86:	cf 93       	push	r28
    1d88:	df 93       	push	r29
    1d8a:	1c 01       	movw	r2, r24
    1d8c:	5b 01       	movw	r10, r22
    1d8e:	74 2e       	mov	r7, r20
    1d90:	29 01       	movw	r4, r18
    1d92:	48 01       	movw	r8, r16
    1d94:	61 2c       	mov	r6, r1
    1d96:	00 e0       	ldi	r16, 0x00	; 0
    1d98:	10 e0       	ldi	r17, 0x00	; 0
    1d9a:	75 c0       	rjmp	.+234    	; 0x1e86 <processa_pagamento+0x120>
    1d9c:	81 e0       	ldi	r24, 0x01	; 1
    1d9e:	a8 16       	cp	r10, r24
    1da0:	b1 04       	cpc	r11, r1
    1da2:	b9 f4       	brne	.+46     	; 0x1dd2 <processa_pagamento+0x6c>
    1da4:	02 30       	cpi	r16, 0x02	; 2
    1da6:	11 05       	cpc	r17, r1
    1da8:	59 f4       	brne	.+22     	; 0x1dc0 <processa_pagamento+0x5a>
    1daa:	10 c0       	rjmp	.+32     	; 0x1dcc <processa_pagamento+0x66>
    1dac:	e7 01       	movw	r28, r14
    1dae:	cc 0d       	add	r28, r12
    1db0:	dd 1d       	adc	r29, r13
    1db2:	0e 94 4d 0c 	call	0x189a	; 0x189a <USART_recebe>
    1db6:	88 83       	st	Y, r24
    1db8:	ef ef       	ldi	r30, 0xFF	; 255
    1dba:	ce 1a       	sub	r12, r30
    1dbc:	de 0a       	sbc	r13, r30
    1dbe:	02 c0       	rjmp	.+4      	; 0x1dc4 <processa_pagamento+0x5e>
    1dc0:	c1 2c       	mov	r12, r1
    1dc2:	d1 2c       	mov	r13, r1
    1dc4:	f6 e0       	ldi	r31, 0x06	; 6
    1dc6:	cf 16       	cp	r12, r31
    1dc8:	d1 04       	cpc	r13, r1
    1dca:	84 f3       	brlt	.-32     	; 0x1dac <processa_pagamento+0x46>
    1dcc:	c4 01       	movw	r24, r8
    1dce:	0e 94 68 09 	call	0x12d0	; 0x12d0 <recebe_senha>
    1dd2:	82 e0       	ldi	r24, 0x02	; 2
    1dd4:	a8 16       	cp	r10, r24
    1dd6:	b1 04       	cpc	r11, r1
    1dd8:	e1 f4       	brne	.+56     	; 0x1e12 <processa_pagamento+0xac>
    1dda:	16 c0       	rjmp	.+44     	; 0x1e08 <processa_pagamento+0xa2>
    1ddc:	c6 30       	cpi	r28, 0x06	; 6
    1dde:	d1 05       	cpc	r29, r1
    1de0:	3c f4       	brge	.+14     	; 0x1df0 <processa_pagamento+0x8a>
    1de2:	0e 94 4d 0c 	call	0x189a	; 0x189a <USART_recebe>
    1de6:	f7 01       	movw	r30, r14
    1de8:	ec 0f       	add	r30, r28
    1dea:	fd 1f       	adc	r31, r29
    1dec:	80 83       	st	Z, r24
    1dee:	0a c0       	rjmp	.+20     	; 0x1e04 <processa_pagamento+0x9e>
    1df0:	6e 01       	movw	r12, r28
    1df2:	e6 e0       	ldi	r30, 0x06	; 6
    1df4:	ce 1a       	sub	r12, r30
    1df6:	d1 08       	sbc	r13, r1
    1df8:	c8 0c       	add	r12, r8
    1dfa:	d9 1c       	adc	r13, r9
    1dfc:	0e 94 4d 0c 	call	0x189a	; 0x189a <USART_recebe>
    1e00:	f6 01       	movw	r30, r12
    1e02:	80 83       	st	Z, r24
    1e04:	21 96       	adiw	r28, 0x01	; 1
    1e06:	02 c0       	rjmp	.+4      	; 0x1e0c <processa_pagamento+0xa6>
    1e08:	c0 e0       	ldi	r28, 0x00	; 0
    1e0a:	d0 e0       	ldi	r29, 0x00	; 0
    1e0c:	cc 30       	cpi	r28, 0x0C	; 12
    1e0e:	d1 05       	cpc	r29, r1
    1e10:	2c f3       	brlt	.-54     	; 0x1ddc <processa_pagamento+0x76>
    1e12:	f3 e0       	ldi	r31, 0x03	; 3
    1e14:	af 16       	cp	r10, r31
    1e16:	b1 04       	cpc	r11, r1
    1e18:	49 f4       	brne	.+18     	; 0x1e2c <processa_pagamento+0xc6>
    1e1a:	02 30       	cpi	r16, 0x02	; 2
    1e1c:	11 05       	cpc	r17, r1
    1e1e:	19 f0       	breq	.+6      	; 0x1e26 <processa_pagamento+0xc0>
    1e20:	c7 01       	movw	r24, r14
    1e22:	0e 94 be 09 	call	0x137c	; 0x137c <recebe_cartao>
    1e26:	c4 01       	movw	r24, r8
    1e28:	0e 94 68 09 	call	0x12d0	; 0x12d0 <recebe_senha>
    1e2c:	82 e0       	ldi	r24, 0x02	; 2
    1e2e:	78 12       	cpse	r7, r24
    1e30:	04 c0       	rjmp	.+8      	; 0x1e3a <processa_pagamento+0xd4>
    1e32:	c7 01       	movw	r24, r14
    1e34:	0e 94 6f 02 	call	0x4de	; 0x4de <verificarContasLocais>
    1e38:	68 2e       	mov	r6, r24
    1e3a:	61 10       	cpse	r6, r1
    1e3c:	08 c0       	rjmp	.+16     	; 0x1e4e <processa_pagamento+0xe8>
    1e3e:	91 01       	movw	r18, r2
    1e40:	a2 01       	movw	r20, r4
    1e42:	b4 01       	movw	r22, r8
    1e44:	c7 01       	movw	r24, r14
    1e46:	0e 94 94 0c 	call	0x1928	; 0x1928 <requisicao_externa>
    1e4a:	8c 01       	movw	r16, r24
    1e4c:	16 c0       	rjmp	.+44     	; 0x1e7a <processa_pagamento+0x114>
    1e4e:	a4 01       	movw	r20, r8
    1e50:	b2 01       	movw	r22, r4
    1e52:	86 2d       	mov	r24, r6
    1e54:	0e 94 b4 04 	call	0x968	; 0x968 <executarVendaInterna>
    1e58:	90 e0       	ldi	r25, 0x00	; 0
    1e5a:	81 30       	cpi	r24, 0x01	; 1
    1e5c:	91 05       	cpc	r25, r1
    1e5e:	31 f0       	breq	.+12     	; 0x1e6c <processa_pagamento+0x106>
    1e60:	82 30       	cpi	r24, 0x02	; 2
    1e62:	91 05       	cpc	r25, r1
    1e64:	31 f4       	brne	.+12     	; 0x1e72 <processa_pagamento+0x10c>
    1e66:	02 e0       	ldi	r16, 0x02	; 2
    1e68:	10 e0       	ldi	r17, 0x00	; 0
    1e6a:	05 c0       	rjmp	.+10     	; 0x1e76 <processa_pagamento+0x110>
    1e6c:	01 e0       	ldi	r16, 0x01	; 1
    1e6e:	10 e0       	ldi	r17, 0x00	; 0
    1e70:	02 c0       	rjmp	.+4      	; 0x1e76 <processa_pagamento+0x110>
    1e72:	01 e0       	ldi	r16, 0x01	; 1
    1e74:	10 e0       	ldi	r17, 0x00	; 0
    1e76:	0e 94 c9 08 	call	0x1192	; 0x1192 <tela_vendaInterna>
    1e7a:	10 92 93 06 	sts	0x0693, r1	; 0x800693 <com_ext>
    1e7e:	c8 01       	movw	r24, r16
    1e80:	03 97       	sbiw	r24, 0x03	; 3
    1e82:	03 97       	sbiw	r24, 0x03	; 3
    1e84:	38 f0       	brcs	.+14     	; 0x1e94 <processa_pagamento+0x12e>
    1e86:	01 30       	cpi	r16, 0x01	; 1
    1e88:	11 05       	cpc	r17, r1
    1e8a:	09 f0       	breq	.+2      	; 0x1e8e <processa_pagamento+0x128>
    1e8c:	87 cf       	rjmp	.-242    	; 0x1d9c <processa_pagamento+0x36>
    1e8e:	81 e0       	ldi	r24, 0x01	; 1
    1e90:	90 e0       	ldi	r25, 0x00	; 0
    1e92:	02 c0       	rjmp	.+4      	; 0x1e98 <processa_pagamento+0x132>
    1e94:	80 e0       	ldi	r24, 0x00	; 0
    1e96:	90 e0       	ldi	r25, 0x00	; 0
    1e98:	df 91       	pop	r29
    1e9a:	cf 91       	pop	r28
    1e9c:	1f 91       	pop	r17
    1e9e:	0f 91       	pop	r16
    1ea0:	ff 90       	pop	r15
    1ea2:	ef 90       	pop	r14
    1ea4:	df 90       	pop	r13
    1ea6:	cf 90       	pop	r12
    1ea8:	bf 90       	pop	r11
    1eaa:	af 90       	pop	r10
    1eac:	9f 90       	pop	r9
    1eae:	8f 90       	pop	r8
    1eb0:	7f 90       	pop	r7
    1eb2:	6f 90       	pop	r6
    1eb4:	5f 90       	pop	r5
    1eb6:	4f 90       	pop	r4
    1eb8:	3f 90       	pop	r3
    1eba:	2f 90       	pop	r2
    1ebc:	08 95       	ret

00001ebe <venda_avista>:
    1ebe:	df 92       	push	r13
    1ec0:	ef 92       	push	r14
    1ec2:	ff 92       	push	r15
    1ec4:	0f 93       	push	r16
    1ec6:	1f 93       	push	r17
    1ec8:	cf 93       	push	r28
    1eca:	df 93       	push	r29
    1ecc:	cd b7       	in	r28, 0x3d	; 61
    1ece:	de b7       	in	r29, 0x3e	; 62
    1ed0:	61 97       	sbiw	r28, 0x11	; 17
    1ed2:	0f b6       	in	r0, 0x3f	; 63
    1ed4:	f8 94       	cli
    1ed6:	de bf       	out	0x3e, r29	; 62
    1ed8:	0f be       	out	0x3f, r0	; 63
    1eda:	cd bf       	out	0x3d, r28	; 61
    1edc:	86 e0       	ldi	r24, 0x06	; 6
    1ede:	e8 e5       	ldi	r30, 0x58	; 88
    1ee0:	f1 e0       	ldi	r31, 0x01	; 1
    1ee2:	de 01       	movw	r26, r28
    1ee4:	11 96       	adiw	r26, 0x01	; 1
    1ee6:	01 90       	ld	r0, Z+
    1ee8:	0d 92       	st	X+, r0
    1eea:	8a 95       	dec	r24
    1eec:	e1 f7       	brne	.-8      	; 0x1ee6 <venda_avista+0x28>
    1eee:	86 e0       	ldi	r24, 0x06	; 6
    1ef0:	e8 e5       	ldi	r30, 0x58	; 88
    1ef2:	f1 e0       	ldi	r31, 0x01	; 1
    1ef4:	de 01       	movw	r26, r28
    1ef6:	17 96       	adiw	r26, 0x07	; 7
    1ef8:	01 90       	ld	r0, Z+
    1efa:	0d 92       	st	X+, r0
    1efc:	8a 95       	dec	r24
    1efe:	e1 f7       	brne	.-8      	; 0x1ef8 <venda_avista+0x3a>
    1f00:	85 e0       	ldi	r24, 0x05	; 5
    1f02:	ee e5       	ldi	r30, 0x5E	; 94
    1f04:	f1 e0       	ldi	r31, 0x01	; 1
    1f06:	de 01       	movw	r26, r28
    1f08:	1d 96       	adiw	r26, 0x0d	; 13
    1f0a:	01 90       	ld	r0, Z+
    1f0c:	0d 92       	st	X+, r0
    1f0e:	8a 95       	dec	r24
    1f10:	e1 f7       	brne	.-8      	; 0x1f0a <venda_avista+0x4c>
    1f12:	0e 94 a5 08 	call	0x114a	; 0x114a <tela_vendaAvista>
    1f16:	ce 01       	movw	r24, r28
    1f18:	0d 96       	adiw	r24, 0x0d	; 13
    1f1a:	0e 94 59 06 	call	0xcb2	; 0xcb2 <recebe_valor>
    1f1e:	ce 01       	movw	r24, r28
    1f20:	0d 96       	adiw	r24, 0x0d	; 13
    1f22:	0e 94 e8 04 	call	0x9d0	; 0x9d0 <formata_valor>
    1f26:	0e 94 8c 07 	call	0xf18	; 0xf18 <metodo_pagamento>
    1f2a:	d8 2e       	mov	r13, r24
    1f2c:	0e 94 71 0c 	call	0x18e2	; 0x18e2 <aguarda_cartao>
    1f30:	bc 01       	movw	r22, r24
    1f32:	77 27       	eor	r23, r23
    1f34:	ce 01       	movw	r24, r28
    1f36:	07 96       	adiw	r24, 0x07	; 7
    1f38:	7c 01       	movw	r14, r24
    1f3a:	8e 01       	movw	r16, r28
    1f3c:	0f 5f       	subi	r16, 0xFF	; 255
    1f3e:	1f 4f       	sbci	r17, 0xFF	; 255
    1f40:	9e 01       	movw	r18, r28
    1f42:	23 5f       	subi	r18, 0xF3	; 243
    1f44:	3f 4f       	sbci	r19, 0xFF	; 255
    1f46:	4d 2d       	mov	r20, r13
    1f48:	81 e0       	ldi	r24, 0x01	; 1
    1f4a:	90 e0       	ldi	r25, 0x00	; 0
    1f4c:	0e 94 b3 0e 	call	0x1d66	; 0x1d66 <processa_pagamento>
    1f50:	61 96       	adiw	r28, 0x11	; 17
    1f52:	0f b6       	in	r0, 0x3f	; 63
    1f54:	f8 94       	cli
    1f56:	de bf       	out	0x3e, r29	; 62
    1f58:	0f be       	out	0x3f, r0	; 63
    1f5a:	cd bf       	out	0x3d, r28	; 61
    1f5c:	df 91       	pop	r29
    1f5e:	cf 91       	pop	r28
    1f60:	1f 91       	pop	r17
    1f62:	0f 91       	pop	r16
    1f64:	ff 90       	pop	r15
    1f66:	ef 90       	pop	r14
    1f68:	df 90       	pop	r13
    1f6a:	08 95       	ret

00001f6c <mudarStatusOper>:
    1f6c:	fc 01       	movw	r30, r24
    1f6e:	80 81       	ld	r24, Z
    1f70:	90 e0       	ldi	r25, 0x00	; 0
    1f72:	fc 01       	movw	r30, r24
    1f74:	ec 5b       	subi	r30, 0xBC	; 188
    1f76:	fe 4f       	sbci	r31, 0xFE	; 254
    1f78:	20 81       	ld	r18, Z
    1f7a:	21 30       	cpi	r18, 0x01	; 1
    1f7c:	29 f4       	brne	.+10     	; 0x1f88 <mudarStatusOper+0x1c>
    1f7e:	fc 01       	movw	r30, r24
    1f80:	ec 5b       	subi	r30, 0xBC	; 188
    1f82:	fe 4f       	sbci	r31, 0xFE	; 254
    1f84:	10 82       	st	Z, r1
    1f86:	05 c0       	rjmp	.+10     	; 0x1f92 <mudarStatusOper+0x26>
    1f88:	fc 01       	movw	r30, r24
    1f8a:	ec 5b       	subi	r30, 0xBC	; 188
    1f8c:	fe 4f       	sbci	r31, 0xFE	; 254
    1f8e:	21 e0       	ldi	r18, 0x01	; 1
    1f90:	20 83       	st	Z, r18
    1f92:	0e 94 0e 0b 	call	0x161c	; 0x161c <tela_operacaoConcluida>
    1f96:	08 95       	ret

00001f98 <tela_status_oper>:
    1f98:	83 e0       	ldi	r24, 0x03	; 3
    1f9a:	0e 94 43 06 	call	0xc86	; 0xc86 <writeInstruction>
    1f9e:	85 e3       	ldi	r24, 0x35	; 53
    1fa0:	95 e0       	ldi	r25, 0x05	; 5
    1fa2:	0e 94 1a 06 	call	0xc34	; 0xc34 <writeString>
    1fa6:	80 91 44 01 	lds	r24, 0x0144	; 0x800144 <statusOperadores>
    1faa:	81 30       	cpi	r24, 0x01	; 1
    1fac:	29 f4       	brne	.+10     	; 0x1fb8 <tela_status_oper+0x20>
    1fae:	8c e3       	ldi	r24, 0x3C	; 60
    1fb0:	95 e0       	ldi	r25, 0x05	; 5
    1fb2:	0e 94 1a 06 	call	0xc34	; 0xc34 <writeString>
    1fb6:	04 c0       	rjmp	.+8      	; 0x1fc0 <tela_status_oper+0x28>
    1fb8:	87 e4       	ldi	r24, 0x47	; 71
    1fba:	95 e0       	ldi	r25, 0x05	; 5
    1fbc:	0e 94 1a 06 	call	0xc34	; 0xc34 <writeString>
    1fc0:	80 ec       	ldi	r24, 0xC0	; 192
    1fc2:	0e 94 43 06 	call	0xc86	; 0xc86 <writeInstruction>
    1fc6:	82 e5       	ldi	r24, 0x52	; 82
    1fc8:	95 e0       	ldi	r25, 0x05	; 5
    1fca:	0e 94 1a 06 	call	0xc34	; 0xc34 <writeString>
    1fce:	80 91 45 01 	lds	r24, 0x0145	; 0x800145 <statusOperadores+0x1>
    1fd2:	81 30       	cpi	r24, 0x01	; 1
    1fd4:	29 f4       	brne	.+10     	; 0x1fe0 <tela_status_oper+0x48>
    1fd6:	89 e5       	ldi	r24, 0x59	; 89
    1fd8:	95 e0       	ldi	r25, 0x05	; 5
    1fda:	0e 94 1a 06 	call	0xc34	; 0xc34 <writeString>
    1fde:	08 95       	ret
    1fe0:	84 e6       	ldi	r24, 0x64	; 100
    1fe2:	95 e0       	ldi	r25, 0x05	; 5
    1fe4:	0e 94 1a 06 	call	0xc34	; 0xc34 <writeString>
    1fe8:	08 95       	ret

00001fea <getOperStatus>:
    1fea:	e8 2f       	mov	r30, r24
    1fec:	f0 e0       	ldi	r31, 0x00	; 0
    1fee:	ed 5b       	subi	r30, 0xBD	; 189
    1ff0:	fe 4f       	sbci	r31, 0xFE	; 254
    1ff2:	80 81       	ld	r24, Z
    1ff4:	08 95       	ret

00001ff6 <getDiaMesAno>:
    1ff6:	af 92       	push	r10
    1ff8:	bf 92       	push	r11
    1ffa:	cf 92       	push	r12
    1ffc:	df 92       	push	r13
    1ffe:	ef 92       	push	r14
    2000:	ff 92       	push	r15
    2002:	0f 93       	push	r16
    2004:	1f 93       	push	r17
    2006:	cf 93       	push	r28
    2008:	df 93       	push	r29
    200a:	5c 01       	movw	r10, r24
    200c:	6b 01       	movw	r12, r22
    200e:	7a 01       	movw	r14, r20
    2010:	8f e6       	ldi	r24, 0x6F	; 111
    2012:	95 e0       	ldi	r25, 0x05	; 5
    2014:	0e 94 1a 06 	call	0xc34	; 0xc34 <writeString>
    2018:	86 ec       	ldi	r24, 0xC6	; 198
    201a:	0e 94 43 06 	call	0xc86	; 0xc86 <writeInstruction>
    201e:	c0 e0       	ldi	r28, 0x00	; 0
    2020:	d0 e0       	ldi	r29, 0x00	; 0
    2022:	c7 c0       	rjmp	.+398    	; 0x21b2 <getDiaMesAno+0x1bc>
    2024:	c2 30       	cpi	r28, 0x02	; 2
    2026:	d1 05       	cpc	r29, r1
    2028:	b4 f5       	brge	.+108    	; 0x2096 <getDiaMesAno+0xa0>
    202a:	0e 94 76 05 	call	0xaec	; 0xaec <teclaDebouce>
    202e:	89 31       	cpi	r24, 0x19	; 25
    2030:	91 f0       	breq	.+36     	; 0x2056 <getDiaMesAno+0x60>
    2032:	89 30       	cpi	r24, 0x09	; 9
    2034:	81 f0       	breq	.+32     	; 0x2056 <getDiaMesAno+0x60>
    2036:	8b 30       	cpi	r24, 0x0B	; 11
    2038:	71 f0       	breq	.+28     	; 0x2056 <getDiaMesAno+0x60>
    203a:	8a 30       	cpi	r24, 0x0A	; 10
    203c:	09 f4       	brne	.+2      	; 0x2040 <getDiaMesAno+0x4a>
    203e:	8f ef       	ldi	r24, 0xFF	; 255
    2040:	11 e3       	ldi	r17, 0x31	; 49
    2042:	18 0f       	add	r17, r24
    2044:	81 2f       	mov	r24, r17
    2046:	0e 94 08 06 	call	0xc10	; 0xc10 <writeCharacter>
    204a:	f5 01       	movw	r30, r10
    204c:	ec 0f       	add	r30, r28
    204e:	f1 1d       	adc	r31, r1
    2050:	10 83       	st	Z, r17
    2052:	21 96       	adiw	r28, 0x01	; 1
    2054:	20 c0       	rjmp	.+64     	; 0x2096 <getDiaMesAno+0xa0>
    2056:	89 30       	cpi	r24, 0x09	; 9
    2058:	d9 f4       	brne	.+54     	; 0x2090 <getDiaMesAno+0x9a>
    205a:	1c 16       	cp	r1, r28
    205c:	1d 06       	cpc	r1, r29
    205e:	c4 f4       	brge	.+48     	; 0x2090 <getDiaMesAno+0x9a>
    2060:	8e 01       	movw	r16, r28
    2062:	c0 fd       	sbrc	r28, 0
    2064:	05 c0       	rjmp	.+10     	; 0x2070 <getDiaMesAno+0x7a>
    2066:	20 97       	sbiw	r28, 0x00	; 0
    2068:	19 f0       	breq	.+6      	; 0x2070 <getDiaMesAno+0x7a>
    206a:	cc 5f       	subi	r28, 0xFC	; 252
    206c:	c0 68       	ori	r28, 0x80	; 128
    206e:	02 c0       	rjmp	.+4      	; 0x2074 <getDiaMesAno+0x7e>
    2070:	cb 5f       	subi	r28, 0xFB	; 251
    2072:	c0 68       	ori	r28, 0x80	; 128
    2074:	c0 64       	ori	r28, 0x40	; 64
    2076:	8c 2f       	mov	r24, r28
    2078:	0e 94 43 06 	call	0xc86	; 0xc86 <writeInstruction>
    207c:	86 e7       	ldi	r24, 0x76	; 118
    207e:	95 e0       	ldi	r25, 0x05	; 5
    2080:	0e 94 1a 06 	call	0xc34	; 0xc34 <writeString>
    2084:	8c 2f       	mov	r24, r28
    2086:	0e 94 43 06 	call	0xc86	; 0xc86 <writeInstruction>
    208a:	e8 01       	movw	r28, r16
    208c:	21 97       	sbiw	r28, 0x01	; 1
    208e:	03 c0       	rjmp	.+6      	; 0x2096 <getDiaMesAno+0xa0>
    2090:	89 30       	cpi	r24, 0x09	; 9
    2092:	09 f4       	brne	.+2      	; 0x2096 <getDiaMesAno+0xa0>
    2094:	9d c0       	rjmp	.+314    	; 0x21d0 <getDiaMesAno+0x1da>
    2096:	8e 01       	movw	r16, r28
    2098:	ce 01       	movw	r24, r28
    209a:	02 97       	sbiw	r24, 0x02	; 2
    209c:	82 30       	cpi	r24, 0x02	; 2
    209e:	91 05       	cpc	r25, r1
    20a0:	a8 f5       	brcc	.+106    	; 0x210c <getDiaMesAno+0x116>
    20a2:	c2 30       	cpi	r28, 0x02	; 2
    20a4:	d1 05       	cpc	r29, r1
    20a6:	21 f4       	brne	.+8      	; 0x20b0 <getDiaMesAno+0xba>
    20a8:	87 5f       	subi	r24, 0xF7	; 247
    20aa:	80 6c       	ori	r24, 0xC0	; 192
    20ac:	0e 94 43 06 	call	0xc86	; 0xc86 <writeInstruction>
    20b0:	0e 94 76 05 	call	0xaec	; 0xaec <teclaDebouce>
    20b4:	89 31       	cpi	r24, 0x19	; 25
    20b6:	a1 f0       	breq	.+40     	; 0x20e0 <getDiaMesAno+0xea>
    20b8:	89 30       	cpi	r24, 0x09	; 9
    20ba:	91 f0       	breq	.+36     	; 0x20e0 <getDiaMesAno+0xea>
    20bc:	8b 30       	cpi	r24, 0x0B	; 11
    20be:	81 f0       	breq	.+32     	; 0x20e0 <getDiaMesAno+0xea>
    20c0:	8a 30       	cpi	r24, 0x0A	; 10
    20c2:	09 f4       	brne	.+2      	; 0x20c6 <getDiaMesAno+0xd0>
    20c4:	8f ef       	ldi	r24, 0xFF	; 255
    20c6:	d1 e3       	ldi	r29, 0x31	; 49
    20c8:	d8 0f       	add	r29, r24
    20ca:	8d 2f       	mov	r24, r29
    20cc:	0e 94 08 06 	call	0xc10	; 0xc10 <writeCharacter>
    20d0:	c2 50       	subi	r28, 0x02	; 2
    20d2:	f6 01       	movw	r30, r12
    20d4:	ec 0f       	add	r30, r28
    20d6:	f1 1d       	adc	r31, r1
    20d8:	d0 83       	st	Z, r29
    20da:	e8 01       	movw	r28, r16
    20dc:	21 96       	adiw	r28, 0x01	; 1
    20de:	16 c0       	rjmp	.+44     	; 0x210c <getDiaMesAno+0x116>
    20e0:	89 30       	cpi	r24, 0x09	; 9
    20e2:	a1 f4       	brne	.+40     	; 0x210c <getDiaMesAno+0x116>
    20e4:	00 fd       	sbrc	r16, 0
    20e6:	03 c0       	rjmp	.+6      	; 0x20ee <getDiaMesAno+0xf8>
    20e8:	cb 5f       	subi	r28, 0xFB	; 251
    20ea:	c0 68       	ori	r28, 0x80	; 128
    20ec:	02 c0       	rjmp	.+4      	; 0x20f2 <getDiaMesAno+0xfc>
    20ee:	ca 5f       	subi	r28, 0xFA	; 250
    20f0:	c0 68       	ori	r28, 0x80	; 128
    20f2:	c0 64       	ori	r28, 0x40	; 64
    20f4:	8c 2f       	mov	r24, r28
    20f6:	0e 94 43 06 	call	0xc86	; 0xc86 <writeInstruction>
    20fa:	86 e7       	ldi	r24, 0x76	; 118
    20fc:	95 e0       	ldi	r25, 0x05	; 5
    20fe:	0e 94 1a 06 	call	0xc34	; 0xc34 <writeString>
    2102:	8c 2f       	mov	r24, r28
    2104:	0e 94 43 06 	call	0xc86	; 0xc86 <writeInstruction>
    2108:	e8 01       	movw	r28, r16
    210a:	21 97       	sbiw	r28, 0x01	; 1
    210c:	8e 01       	movw	r16, r28
    210e:	ce 01       	movw	r24, r28
    2110:	04 97       	sbiw	r24, 0x04	; 4
    2112:	82 30       	cpi	r24, 0x02	; 2
    2114:	91 05       	cpc	r25, r1
    2116:	a8 f5       	brcc	.+106    	; 0x2182 <getDiaMesAno+0x18c>
    2118:	c4 30       	cpi	r28, 0x04	; 4
    211a:	d1 05       	cpc	r29, r1
    211c:	21 f4       	brne	.+8      	; 0x2126 <getDiaMesAno+0x130>
    211e:	84 5f       	subi	r24, 0xF4	; 244
    2120:	80 6c       	ori	r24, 0xC0	; 192
    2122:	0e 94 43 06 	call	0xc86	; 0xc86 <writeInstruction>
    2126:	0e 94 76 05 	call	0xaec	; 0xaec <teclaDebouce>
    212a:	89 31       	cpi	r24, 0x19	; 25
    212c:	a1 f0       	breq	.+40     	; 0x2156 <getDiaMesAno+0x160>
    212e:	89 30       	cpi	r24, 0x09	; 9
    2130:	91 f0       	breq	.+36     	; 0x2156 <getDiaMesAno+0x160>
    2132:	8b 30       	cpi	r24, 0x0B	; 11
    2134:	81 f0       	breq	.+32     	; 0x2156 <getDiaMesAno+0x160>
    2136:	8a 30       	cpi	r24, 0x0A	; 10
    2138:	09 f4       	brne	.+2      	; 0x213c <getDiaMesAno+0x146>
    213a:	8f ef       	ldi	r24, 0xFF	; 255
    213c:	d1 e3       	ldi	r29, 0x31	; 49
    213e:	d8 0f       	add	r29, r24
    2140:	c4 50       	subi	r28, 0x04	; 4
    2142:	8d 2f       	mov	r24, r29
    2144:	0e 94 08 06 	call	0xc10	; 0xc10 <writeCharacter>
    2148:	f7 01       	movw	r30, r14
    214a:	ec 0f       	add	r30, r28
    214c:	f1 1d       	adc	r31, r1
    214e:	d0 83       	st	Z, r29
    2150:	e8 01       	movw	r28, r16
    2152:	21 96       	adiw	r28, 0x01	; 1
    2154:	16 c0       	rjmp	.+44     	; 0x2182 <getDiaMesAno+0x18c>
    2156:	89 30       	cpi	r24, 0x09	; 9
    2158:	a1 f4       	brne	.+40     	; 0x2182 <getDiaMesAno+0x18c>
    215a:	00 fd       	sbrc	r16, 0
    215c:	03 c0       	rjmp	.+6      	; 0x2164 <getDiaMesAno+0x16e>
    215e:	ca 5f       	subi	r28, 0xFA	; 250
    2160:	c0 68       	ori	r28, 0x80	; 128
    2162:	02 c0       	rjmp	.+4      	; 0x2168 <getDiaMesAno+0x172>
    2164:	c9 5f       	subi	r28, 0xF9	; 249
    2166:	c0 68       	ori	r28, 0x80	; 128
    2168:	c0 64       	ori	r28, 0x40	; 64
    216a:	8c 2f       	mov	r24, r28
    216c:	0e 94 43 06 	call	0xc86	; 0xc86 <writeInstruction>
    2170:	86 e7       	ldi	r24, 0x76	; 118
    2172:	95 e0       	ldi	r25, 0x05	; 5
    2174:	0e 94 1a 06 	call	0xc34	; 0xc34 <writeString>
    2178:	8c 2f       	mov	r24, r28
    217a:	0e 94 43 06 	call	0xc86	; 0xc86 <writeInstruction>
    217e:	e8 01       	movw	r28, r16
    2180:	21 97       	sbiw	r28, 0x01	; 1
    2182:	c6 30       	cpi	r28, 0x06	; 6
    2184:	d1 05       	cpc	r29, r1
    2186:	a9 f4       	brne	.+42     	; 0x21b2 <getDiaMesAno+0x1bc>
    2188:	0e 94 76 05 	call	0xaec	; 0xaec <teclaDebouce>
    218c:	8b 30       	cpi	r24, 0x0B	; 11
    218e:	11 f4       	brne	.+4      	; 0x2194 <getDiaMesAno+0x19e>
    2190:	21 96       	adiw	r28, 0x01	; 1
    2192:	0f c0       	rjmp	.+30     	; 0x21b2 <getDiaMesAno+0x1bc>
    2194:	89 30       	cpi	r24, 0x09	; 9
    2196:	69 f4       	brne	.+26     	; 0x21b2 <getDiaMesAno+0x1bc>
    2198:	1c 2f       	mov	r17, r28
    219a:	19 5f       	subi	r17, 0xF9	; 249
    219c:	10 6c       	ori	r17, 0xC0	; 192
    219e:	81 2f       	mov	r24, r17
    21a0:	0e 94 43 06 	call	0xc86	; 0xc86 <writeInstruction>
    21a4:	80 e2       	ldi	r24, 0x20	; 32
    21a6:	0e 94 08 06 	call	0xc10	; 0xc10 <writeCharacter>
    21aa:	81 2f       	mov	r24, r17
    21ac:	0e 94 43 06 	call	0xc86	; 0xc86 <writeInstruction>
    21b0:	21 97       	sbiw	r28, 0x01	; 1
    21b2:	c7 30       	cpi	r28, 0x07	; 7
    21b4:	d1 05       	cpc	r29, r1
    21b6:	0c f4       	brge	.+2      	; 0x21ba <getDiaMesAno+0x1c4>
    21b8:	35 cf       	rjmp	.-406    	; 0x2024 <getDiaMesAno+0x2e>
    21ba:	9f ef       	ldi	r25, 0xFF	; 255
    21bc:	2e e9       	ldi	r18, 0x9E	; 158
    21be:	84 e2       	ldi	r24, 0x24	; 36
    21c0:	91 50       	subi	r25, 0x01	; 1
    21c2:	20 40       	sbci	r18, 0x00	; 0
    21c4:	80 40       	sbci	r24, 0x00	; 0
    21c6:	e1 f7       	brne	.-8      	; 0x21c0 <getDiaMesAno+0x1ca>
    21c8:	00 c0       	rjmp	.+0      	; 0x21ca <getDiaMesAno+0x1d4>
    21ca:	00 00       	nop
    21cc:	81 e0       	ldi	r24, 0x01	; 1
    21ce:	01 c0       	rjmp	.+2      	; 0x21d2 <getDiaMesAno+0x1dc>
    21d0:	80 e0       	ldi	r24, 0x00	; 0
    21d2:	df 91       	pop	r29
    21d4:	cf 91       	pop	r28
    21d6:	1f 91       	pop	r17
    21d8:	0f 91       	pop	r16
    21da:	ff 90       	pop	r15
    21dc:	ef 90       	pop	r14
    21de:	df 90       	pop	r13
    21e0:	cf 90       	pop	r12
    21e2:	bf 90       	pop	r11
    21e4:	af 90       	pop	r10
    21e6:	08 95       	ret

000021e8 <getHoraMinSeg>:
    21e8:	af 92       	push	r10
    21ea:	bf 92       	push	r11
    21ec:	cf 92       	push	r12
    21ee:	df 92       	push	r13
    21f0:	ef 92       	push	r14
    21f2:	ff 92       	push	r15
    21f4:	0f 93       	push	r16
    21f6:	1f 93       	push	r17
    21f8:	cf 93       	push	r28
    21fa:	df 93       	push	r29
    21fc:	5c 01       	movw	r10, r24
    21fe:	6b 01       	movw	r12, r22
    2200:	7a 01       	movw	r14, r20
    2202:	88 e7       	ldi	r24, 0x78	; 120
    2204:	95 e0       	ldi	r25, 0x05	; 5
    2206:	0e 94 1a 06 	call	0xc34	; 0xc34 <writeString>
    220a:	86 ec       	ldi	r24, 0xC6	; 198
    220c:	0e 94 43 06 	call	0xc86	; 0xc86 <writeInstruction>
    2210:	c0 e0       	ldi	r28, 0x00	; 0
    2212:	d0 e0       	ldi	r29, 0x00	; 0
    2214:	ca c0       	rjmp	.+404    	; 0x23aa <getHoraMinSeg+0x1c2>
    2216:	c2 30       	cpi	r28, 0x02	; 2
    2218:	d1 05       	cpc	r29, r1
    221a:	b4 f5       	brge	.+108    	; 0x2288 <getHoraMinSeg+0xa0>
    221c:	0e 94 76 05 	call	0xaec	; 0xaec <teclaDebouce>
    2220:	89 31       	cpi	r24, 0x19	; 25
    2222:	91 f0       	breq	.+36     	; 0x2248 <getHoraMinSeg+0x60>
    2224:	89 30       	cpi	r24, 0x09	; 9
    2226:	81 f0       	breq	.+32     	; 0x2248 <getHoraMinSeg+0x60>
    2228:	8b 30       	cpi	r24, 0x0B	; 11
    222a:	71 f0       	breq	.+28     	; 0x2248 <getHoraMinSeg+0x60>
    222c:	8a 30       	cpi	r24, 0x0A	; 10
    222e:	09 f4       	brne	.+2      	; 0x2232 <getHoraMinSeg+0x4a>
    2230:	8f ef       	ldi	r24, 0xFF	; 255
    2232:	11 e3       	ldi	r17, 0x31	; 49
    2234:	18 0f       	add	r17, r24
    2236:	81 2f       	mov	r24, r17
    2238:	0e 94 08 06 	call	0xc10	; 0xc10 <writeCharacter>
    223c:	f5 01       	movw	r30, r10
    223e:	ec 0f       	add	r30, r28
    2240:	f1 1d       	adc	r31, r1
    2242:	10 83       	st	Z, r17
    2244:	21 96       	adiw	r28, 0x01	; 1
    2246:	20 c0       	rjmp	.+64     	; 0x2288 <getHoraMinSeg+0xa0>
    2248:	89 30       	cpi	r24, 0x09	; 9
    224a:	d9 f4       	brne	.+54     	; 0x2282 <getHoraMinSeg+0x9a>
    224c:	1c 16       	cp	r1, r28
    224e:	1d 06       	cpc	r1, r29
    2250:	c4 f4       	brge	.+48     	; 0x2282 <getHoraMinSeg+0x9a>
    2252:	8e 01       	movw	r16, r28
    2254:	c0 fd       	sbrc	r28, 0
    2256:	05 c0       	rjmp	.+10     	; 0x2262 <getHoraMinSeg+0x7a>
    2258:	20 97       	sbiw	r28, 0x00	; 0
    225a:	19 f0       	breq	.+6      	; 0x2262 <getHoraMinSeg+0x7a>
    225c:	cc 5f       	subi	r28, 0xFC	; 252
    225e:	c0 68       	ori	r28, 0x80	; 128
    2260:	02 c0       	rjmp	.+4      	; 0x2266 <getHoraMinSeg+0x7e>
    2262:	cb 5f       	subi	r28, 0xFB	; 251
    2264:	c0 68       	ori	r28, 0x80	; 128
    2266:	c0 64       	ori	r28, 0x40	; 64
    2268:	8c 2f       	mov	r24, r28
    226a:	0e 94 43 06 	call	0xc86	; 0xc86 <writeInstruction>
    226e:	86 e7       	ldi	r24, 0x76	; 118
    2270:	95 e0       	ldi	r25, 0x05	; 5
    2272:	0e 94 1a 06 	call	0xc34	; 0xc34 <writeString>
    2276:	8c 2f       	mov	r24, r28
    2278:	0e 94 43 06 	call	0xc86	; 0xc86 <writeInstruction>
    227c:	e8 01       	movw	r28, r16
    227e:	21 97       	sbiw	r28, 0x01	; 1
    2280:	03 c0       	rjmp	.+6      	; 0x2288 <getHoraMinSeg+0xa0>
    2282:	89 30       	cpi	r24, 0x09	; 9
    2284:	09 f4       	brne	.+2      	; 0x2288 <getHoraMinSeg+0xa0>
    2286:	a0 c0       	rjmp	.+320    	; 0x23c8 <getHoraMinSeg+0x1e0>
    2288:	8e 01       	movw	r16, r28
    228a:	ce 01       	movw	r24, r28
    228c:	02 97       	sbiw	r24, 0x02	; 2
    228e:	82 30       	cpi	r24, 0x02	; 2
    2290:	91 05       	cpc	r25, r1
    2292:	b8 f5       	brcc	.+110    	; 0x2302 <getHoraMinSeg+0x11a>
    2294:	c2 30       	cpi	r28, 0x02	; 2
    2296:	d1 05       	cpc	r29, r1
    2298:	21 f4       	brne	.+8      	; 0x22a2 <getHoraMinSeg+0xba>
    229a:	87 5f       	subi	r24, 0xF7	; 247
    229c:	80 6c       	ori	r24, 0xC0	; 192
    229e:	0e 94 43 06 	call	0xc86	; 0xc86 <writeInstruction>
    22a2:	0e 94 76 05 	call	0xaec	; 0xaec <teclaDebouce>
    22a6:	89 31       	cpi	r24, 0x19	; 25
    22a8:	a1 f0       	breq	.+40     	; 0x22d2 <getHoraMinSeg+0xea>
    22aa:	89 30       	cpi	r24, 0x09	; 9
    22ac:	91 f0       	breq	.+36     	; 0x22d2 <getHoraMinSeg+0xea>
    22ae:	8b 30       	cpi	r24, 0x0B	; 11
    22b0:	81 f0       	breq	.+32     	; 0x22d2 <getHoraMinSeg+0xea>
    22b2:	8a 30       	cpi	r24, 0x0A	; 10
    22b4:	09 f4       	brne	.+2      	; 0x22b8 <getHoraMinSeg+0xd0>
    22b6:	8f ef       	ldi	r24, 0xFF	; 255
    22b8:	d1 e3       	ldi	r29, 0x31	; 49
    22ba:	d8 0f       	add	r29, r24
    22bc:	8d 2f       	mov	r24, r29
    22be:	0e 94 08 06 	call	0xc10	; 0xc10 <writeCharacter>
    22c2:	c2 50       	subi	r28, 0x02	; 2
    22c4:	f6 01       	movw	r30, r12
    22c6:	ec 0f       	add	r30, r28
    22c8:	f1 1d       	adc	r31, r1
    22ca:	d0 83       	st	Z, r29
    22cc:	e8 01       	movw	r28, r16
    22ce:	21 96       	adiw	r28, 0x01	; 1
    22d0:	18 c0       	rjmp	.+48     	; 0x2302 <getHoraMinSeg+0x11a>
    22d2:	89 30       	cpi	r24, 0x09	; 9
    22d4:	b1 f4       	brne	.+44     	; 0x2302 <getHoraMinSeg+0x11a>
    22d6:	00 fd       	sbrc	r16, 0
    22d8:	05 c0       	rjmp	.+10     	; 0x22e4 <getHoraMinSeg+0xfc>
    22da:	20 97       	sbiw	r28, 0x00	; 0
    22dc:	19 f0       	breq	.+6      	; 0x22e4 <getHoraMinSeg+0xfc>
    22de:	cb 5f       	subi	r28, 0xFB	; 251
    22e0:	c0 68       	ori	r28, 0x80	; 128
    22e2:	02 c0       	rjmp	.+4      	; 0x22e8 <getHoraMinSeg+0x100>
    22e4:	ca 5f       	subi	r28, 0xFA	; 250
    22e6:	c0 68       	ori	r28, 0x80	; 128
    22e8:	c0 64       	ori	r28, 0x40	; 64
    22ea:	8c 2f       	mov	r24, r28
    22ec:	0e 94 43 06 	call	0xc86	; 0xc86 <writeInstruction>
    22f0:	86 e7       	ldi	r24, 0x76	; 118
    22f2:	95 e0       	ldi	r25, 0x05	; 5
    22f4:	0e 94 1a 06 	call	0xc34	; 0xc34 <writeString>
    22f8:	8c 2f       	mov	r24, r28
    22fa:	0e 94 43 06 	call	0xc86	; 0xc86 <writeInstruction>
    22fe:	e8 01       	movw	r28, r16
    2300:	21 97       	sbiw	r28, 0x01	; 1
    2302:	c4 30       	cpi	r28, 0x04	; 4
    2304:	d1 05       	cpc	r29, r1
    2306:	cc f1       	brlt	.+114    	; 0x237a <getHoraMinSeg+0x192>
    2308:	c4 30       	cpi	r28, 0x04	; 4
    230a:	d1 05       	cpc	r29, r1
    230c:	29 f4       	brne	.+10     	; 0x2318 <getHoraMinSeg+0x130>
    230e:	8c 2f       	mov	r24, r28
    2310:	88 5f       	subi	r24, 0xF8	; 248
    2312:	80 6c       	ori	r24, 0xC0	; 192
    2314:	0e 94 43 06 	call	0xc86	; 0xc86 <writeInstruction>
    2318:	0e 94 76 05 	call	0xaec	; 0xaec <teclaDebouce>
    231c:	89 31       	cpi	r24, 0x19	; 25
    231e:	a1 f0       	breq	.+40     	; 0x2348 <getHoraMinSeg+0x160>
    2320:	89 30       	cpi	r24, 0x09	; 9
    2322:	91 f0       	breq	.+36     	; 0x2348 <getHoraMinSeg+0x160>
    2324:	8b 30       	cpi	r24, 0x0B	; 11
    2326:	81 f0       	breq	.+32     	; 0x2348 <getHoraMinSeg+0x160>
    2328:	8a 30       	cpi	r24, 0x0A	; 10
    232a:	09 f4       	brne	.+2      	; 0x232e <getHoraMinSeg+0x146>
    232c:	8f ef       	ldi	r24, 0xFF	; 255
    232e:	11 e3       	ldi	r17, 0x31	; 49
    2330:	18 0f       	add	r17, r24
    2332:	81 2f       	mov	r24, r17
    2334:	0e 94 08 06 	call	0xc10	; 0xc10 <writeCharacter>
    2338:	8c 2f       	mov	r24, r28
    233a:	84 50       	subi	r24, 0x04	; 4
    233c:	f7 01       	movw	r30, r14
    233e:	e8 0f       	add	r30, r24
    2340:	f1 1d       	adc	r31, r1
    2342:	10 83       	st	Z, r17
    2344:	21 96       	adiw	r28, 0x01	; 1
    2346:	19 c0       	rjmp	.+50     	; 0x237a <getHoraMinSeg+0x192>
    2348:	89 30       	cpi	r24, 0x09	; 9
    234a:	b9 f4       	brne	.+46     	; 0x237a <getHoraMinSeg+0x192>
    234c:	8e 01       	movw	r16, r28
    234e:	c0 fd       	sbrc	r28, 0
    2350:	05 c0       	rjmp	.+10     	; 0x235c <getHoraMinSeg+0x174>
    2352:	20 97       	sbiw	r28, 0x00	; 0
    2354:	19 f0       	breq	.+6      	; 0x235c <getHoraMinSeg+0x174>
    2356:	ca 5f       	subi	r28, 0xFA	; 250
    2358:	c0 68       	ori	r28, 0x80	; 128
    235a:	02 c0       	rjmp	.+4      	; 0x2360 <getHoraMinSeg+0x178>
    235c:	c9 5f       	subi	r28, 0xF9	; 249
    235e:	c0 68       	ori	r28, 0x80	; 128
    2360:	c0 64       	ori	r28, 0x40	; 64
    2362:	8c 2f       	mov	r24, r28
    2364:	0e 94 43 06 	call	0xc86	; 0xc86 <writeInstruction>
    2368:	86 e7       	ldi	r24, 0x76	; 118
    236a:	95 e0       	ldi	r25, 0x05	; 5
    236c:	0e 94 1a 06 	call	0xc34	; 0xc34 <writeString>
    2370:	8c 2f       	mov	r24, r28
    2372:	0e 94 43 06 	call	0xc86	; 0xc86 <writeInstruction>
    2376:	e8 01       	movw	r28, r16
    2378:	21 97       	sbiw	r28, 0x01	; 1
    237a:	c6 30       	cpi	r28, 0x06	; 6
    237c:	d1 05       	cpc	r29, r1
    237e:	a9 f4       	brne	.+42     	; 0x23aa <getHoraMinSeg+0x1c2>
    2380:	0e 94 76 05 	call	0xaec	; 0xaec <teclaDebouce>
    2384:	8b 30       	cpi	r24, 0x0B	; 11
    2386:	11 f4       	brne	.+4      	; 0x238c <getHoraMinSeg+0x1a4>
    2388:	21 96       	adiw	r28, 0x01	; 1
    238a:	0f c0       	rjmp	.+30     	; 0x23aa <getHoraMinSeg+0x1c2>
    238c:	89 30       	cpi	r24, 0x09	; 9
    238e:	69 f4       	brne	.+26     	; 0x23aa <getHoraMinSeg+0x1c2>
    2390:	1c 2f       	mov	r17, r28
    2392:	19 5f       	subi	r17, 0xF9	; 249
    2394:	10 6c       	ori	r17, 0xC0	; 192
    2396:	81 2f       	mov	r24, r17
    2398:	0e 94 43 06 	call	0xc86	; 0xc86 <writeInstruction>
    239c:	80 e2       	ldi	r24, 0x20	; 32
    239e:	0e 94 08 06 	call	0xc10	; 0xc10 <writeCharacter>
    23a2:	81 2f       	mov	r24, r17
    23a4:	0e 94 43 06 	call	0xc86	; 0xc86 <writeInstruction>
    23a8:	21 97       	sbiw	r28, 0x01	; 1
    23aa:	c7 30       	cpi	r28, 0x07	; 7
    23ac:	d1 05       	cpc	r29, r1
    23ae:	0c f4       	brge	.+2      	; 0x23b2 <getHoraMinSeg+0x1ca>
    23b0:	32 cf       	rjmp	.-412    	; 0x2216 <getHoraMinSeg+0x2e>
    23b2:	2f ef       	ldi	r18, 0xFF	; 255
    23b4:	8e e9       	ldi	r24, 0x9E	; 158
    23b6:	94 e2       	ldi	r25, 0x24	; 36
    23b8:	21 50       	subi	r18, 0x01	; 1
    23ba:	80 40       	sbci	r24, 0x00	; 0
    23bc:	90 40       	sbci	r25, 0x00	; 0
    23be:	e1 f7       	brne	.-8      	; 0x23b8 <getHoraMinSeg+0x1d0>
    23c0:	00 c0       	rjmp	.+0      	; 0x23c2 <getHoraMinSeg+0x1da>
    23c2:	00 00       	nop
    23c4:	81 e0       	ldi	r24, 0x01	; 1
    23c6:	01 c0       	rjmp	.+2      	; 0x23ca <getHoraMinSeg+0x1e2>
    23c8:	80 e0       	ldi	r24, 0x00	; 0
    23ca:	df 91       	pop	r29
    23cc:	cf 91       	pop	r28
    23ce:	1f 91       	pop	r17
    23d0:	0f 91       	pop	r16
    23d2:	ff 90       	pop	r15
    23d4:	ef 90       	pop	r14
    23d6:	df 90       	pop	r13
    23d8:	cf 90       	pop	r12
    23da:	bf 90       	pop	r11
    23dc:	af 90       	pop	r10
    23de:	08 95       	ret

000023e0 <addPagamentoAgendado>:
    23e0:	cf 93       	push	r28
    23e2:	a0 e0       	ldi	r26, 0x00	; 0
    23e4:	b0 e0       	ldi	r27, 0x00	; 0
    23e6:	17 c0       	rjmp	.+46     	; 0x2416 <addPagamentoAgendado+0x36>
    23e8:	20 91 a8 05 	lds	r18, 0x05A8	; 0x8005a8 <__data_end>
    23ec:	30 91 a9 05 	lds	r19, 0x05A9	; 0x8005a9 <__data_end+0x1>
    23f0:	fc 01       	movw	r30, r24
    23f2:	ea 0f       	add	r30, r26
    23f4:	fb 1f       	adc	r31, r27
    23f6:	c0 81       	ld	r28, Z
    23f8:	f9 01       	movw	r30, r18
    23fa:	ee 0f       	add	r30, r30
    23fc:	ff 1f       	adc	r31, r31
    23fe:	e2 0f       	add	r30, r18
    2400:	f3 1f       	adc	r31, r19
    2402:	ee 0f       	add	r30, r30
    2404:	ff 1f       	adc	r31, r31
    2406:	e0 5f       	subi	r30, 0xF0	; 240
    2408:	f9 4f       	sbci	r31, 0xF9	; 249
    240a:	ea 0f       	add	r30, r26
    240c:	fb 1f       	adc	r31, r27
    240e:	20 ed       	ldi	r18, 0xD0	; 208
    2410:	2c 0f       	add	r18, r28
    2412:	20 83       	st	Z, r18
    2414:	11 96       	adiw	r26, 0x01	; 1
    2416:	a6 30       	cpi	r26, 0x06	; 6
    2418:	b1 05       	cpc	r27, r1
    241a:	34 f3       	brlt	.-52     	; 0x23e8 <addPagamentoAgendado+0x8>
    241c:	20 e0       	ldi	r18, 0x00	; 0
    241e:	30 e0       	ldi	r19, 0x00	; 0
    2420:	18 c0       	rjmp	.+48     	; 0x2452 <addPagamentoAgendado+0x72>
    2422:	80 91 a8 05 	lds	r24, 0x05A8	; 0x8005a8 <__data_end>
    2426:	90 91 a9 05 	lds	r25, 0x05A9	; 0x8005a9 <__data_end+0x1>
    242a:	fb 01       	movw	r30, r22
    242c:	e2 0f       	add	r30, r18
    242e:	f3 1f       	adc	r31, r19
    2430:	a0 81       	ld	r26, Z
    2432:	fc 01       	movw	r30, r24
    2434:	ee 0f       	add	r30, r30
    2436:	ff 1f       	adc	r31, r31
    2438:	ee 0f       	add	r30, r30
    243a:	ff 1f       	adc	r31, r31
    243c:	e8 0f       	add	r30, r24
    243e:	f9 1f       	adc	r31, r25
    2440:	ee 50       	subi	r30, 0x0E	; 14
    2442:	fa 4f       	sbci	r31, 0xFA	; 250
    2444:	e2 0f       	add	r30, r18
    2446:	f3 1f       	adc	r31, r19
    2448:	80 ed       	ldi	r24, 0xD0	; 208
    244a:	8a 0f       	add	r24, r26
    244c:	80 83       	st	Z, r24
    244e:	2f 5f       	subi	r18, 0xFF	; 255
    2450:	3f 4f       	sbci	r19, 0xFF	; 255
    2452:	25 30       	cpi	r18, 0x05	; 5
    2454:	31 05       	cpc	r19, r1
    2456:	2c f3       	brlt	.-54     	; 0x2422 <addPagamentoAgendado+0x42>
    2458:	20 e0       	ldi	r18, 0x00	; 0
    245a:	30 e0       	ldi	r19, 0x00	; 0
    245c:	1a c0       	rjmp	.+52     	; 0x2492 <addPagamentoAgendado+0xb2>
    245e:	80 91 a8 05 	lds	r24, 0x05A8	; 0x8005a8 <__data_end>
    2462:	90 91 a9 05 	lds	r25, 0x05A9	; 0x8005a9 <__data_end+0x1>
    2466:	fa 01       	movw	r30, r20
    2468:	e2 0f       	add	r30, r18
    246a:	f3 1f       	adc	r31, r19
    246c:	60 81       	ld	r22, Z
    246e:	fc 01       	movw	r30, r24
    2470:	ee 0f       	add	r30, r30
    2472:	ff 1f       	adc	r31, r31
    2474:	e8 0f       	add	r30, r24
    2476:	f9 1f       	adc	r31, r25
    2478:	ee 0f       	add	r30, r30
    247a:	ff 1f       	adc	r31, r31
    247c:	ee 0f       	add	r30, r30
    247e:	ff 1f       	adc	r31, r31
    2480:	e6 55       	subi	r30, 0x56	; 86
    2482:	fa 4f       	sbci	r31, 0xFA	; 250
    2484:	e2 0f       	add	r30, r18
    2486:	f3 1f       	adc	r31, r19
    2488:	80 ed       	ldi	r24, 0xD0	; 208
    248a:	86 0f       	add	r24, r22
    248c:	80 83       	st	Z, r24
    248e:	2f 5f       	subi	r18, 0xFF	; 255
    2490:	3f 4f       	sbci	r19, 0xFF	; 255
    2492:	2c 30       	cpi	r18, 0x0C	; 12
    2494:	31 05       	cpc	r19, r1
    2496:	1c f3       	brlt	.-58     	; 0x245e <addPagamentoAgendado+0x7e>
    2498:	80 91 a8 05 	lds	r24, 0x05A8	; 0x8005a8 <__data_end>
    249c:	90 91 a9 05 	lds	r25, 0x05A9	; 0x8005a9 <__data_end+0x1>
    24a0:	86 30       	cpi	r24, 0x06	; 6
    24a2:	91 05       	cpc	r25, r1
    24a4:	2c f4       	brge	.+10     	; 0x24b0 <addPagamentoAgendado+0xd0>
    24a6:	01 96       	adiw	r24, 0x01	; 1
    24a8:	90 93 a9 05 	sts	0x05A9, r25	; 0x8005a9 <__data_end+0x1>
    24ac:	80 93 a8 05 	sts	0x05A8, r24	; 0x8005a8 <__data_end>
    24b0:	cf 91       	pop	r28
    24b2:	08 95       	ret

000024b4 <venda_parcelada>:
    24b4:	af 92       	push	r10
    24b6:	bf 92       	push	r11
    24b8:	cf 92       	push	r12
    24ba:	df 92       	push	r13
    24bc:	ef 92       	push	r14
    24be:	ff 92       	push	r15
    24c0:	0f 93       	push	r16
    24c2:	1f 93       	push	r17
    24c4:	cf 93       	push	r28
    24c6:	df 93       	push	r29
    24c8:	cd b7       	in	r28, 0x3d	; 61
    24ca:	de b7       	in	r29, 0x3e	; 62
    24cc:	6d 97       	sbiw	r28, 0x1d	; 29
    24ce:	0f b6       	in	r0, 0x3f	; 63
    24d0:	f8 94       	cli
    24d2:	de bf       	out	0x3e, r29	; 62
    24d4:	0f be       	out	0x3f, r0	; 63
    24d6:	cd bf       	out	0x3d, r28	; 61
    24d8:	86 e0       	ldi	r24, 0x06	; 6
    24da:	e8 e5       	ldi	r30, 0x58	; 88
    24dc:	f1 e0       	ldi	r31, 0x01	; 1
    24de:	de 01       	movw	r26, r28
    24e0:	11 96       	adiw	r26, 0x01	; 1
    24e2:	01 90       	ld	r0, Z+
    24e4:	0d 92       	st	X+, r0
    24e6:	8a 95       	dec	r24
    24e8:	e1 f7       	brne	.-8      	; 0x24e2 <venda_parcelada+0x2e>
    24ea:	86 e0       	ldi	r24, 0x06	; 6
    24ec:	e8 e5       	ldi	r30, 0x58	; 88
    24ee:	f1 e0       	ldi	r31, 0x01	; 1
    24f0:	de 01       	movw	r26, r28
    24f2:	17 96       	adiw	r26, 0x07	; 7
    24f4:	01 90       	ld	r0, Z+
    24f6:	0d 92       	st	X+, r0
    24f8:	8a 95       	dec	r24
    24fa:	e1 f7       	brne	.-8      	; 0x24f4 <venda_parcelada+0x40>
    24fc:	85 e0       	ldi	r24, 0x05	; 5
    24fe:	ee e5       	ldi	r30, 0x5E	; 94
    2500:	f1 e0       	ldi	r31, 0x01	; 1
    2502:	de 01       	movw	r26, r28
    2504:	1d 96       	adiw	r26, 0x0d	; 13
    2506:	01 90       	ld	r0, Z+
    2508:	0d 92       	st	X+, r0
    250a:	8a 95       	dec	r24
    250c:	e1 f7       	brne	.-8      	; 0x2506 <venda_parcelada+0x52>
    250e:	0e 94 b7 08 	call	0x116e	; 0x116e <tela_vendaParcelada>
    2512:	ce 01       	movw	r24, r28
    2514:	0d 96       	adiw	r24, 0x0d	; 13
    2516:	0e 94 59 06 	call	0xcb2	; 0xcb2 <recebe_valor>
    251a:	ce 01       	movw	r24, r28
    251c:	0d 96       	adiw	r24, 0x0d	; 13
    251e:	0e 94 e8 04 	call	0x9d0	; 0x9d0 <formata_valor>
    2522:	0e 94 14 09 	call	0x1228	; 0x1228 <n_parcelas>
    2526:	d8 2e       	mov	r13, r24
    2528:	0e 94 8c 07 	call	0xf18	; 0xf18 <metodo_pagamento>
    252c:	c8 2e       	mov	r12, r24
    252e:	0e 94 71 0c 	call	0x18e2	; 0x18e2 <aguarda_cartao>
    2532:	bc 01       	movw	r22, r24
    2534:	77 27       	eor	r23, r23
    2536:	ae 01       	movw	r20, r28
    2538:	49 5f       	subi	r20, 0xF9	; 249
    253a:	5f 4f       	sbci	r21, 0xFF	; 255
    253c:	7a 01       	movw	r14, r20
    253e:	8e 01       	movw	r16, r28
    2540:	0f 5f       	subi	r16, 0xFF	; 255
    2542:	1f 4f       	sbci	r17, 0xFF	; 255
    2544:	9e 01       	movw	r18, r28
    2546:	23 5f       	subi	r18, 0xF3	; 243
    2548:	3f 4f       	sbci	r19, 0xFF	; 255
    254a:	4c 2d       	mov	r20, r12
    254c:	8d 2d       	mov	r24, r13
    254e:	90 e0       	ldi	r25, 0x00	; 0
    2550:	0e 94 b3 0e 	call	0x1d66	; 0x1d66 <processa_pagamento>
    2554:	01 97       	sbiw	r24, 0x01	; 1
    2556:	09 f0       	breq	.+2      	; 0x255a <venda_parcelada+0xa6>
    2558:	ae c0       	rjmp	.+348    	; 0x26b6 <venda_parcelada+0x202>
    255a:	49 89       	ldd	r20, Y+17	; 0x11
    255c:	50 e0       	ldi	r21, 0x00	; 0
    255e:	40 53       	subi	r20, 0x30	; 48
    2560:	51 09       	sbc	r21, r1
    2562:	24 e6       	ldi	r18, 0x64	; 100
    2564:	24 9f       	mul	r18, r20
    2566:	c0 01       	movw	r24, r0
    2568:	25 9f       	mul	r18, r21
    256a:	90 0d       	add	r25, r0
    256c:	11 24       	eor	r1, r1
    256e:	48 89       	ldd	r20, Y+16	; 0x10
    2570:	50 e0       	ldi	r21, 0x00	; 0
    2572:	9a 01       	movw	r18, r20
    2574:	20 53       	subi	r18, 0x30	; 48
    2576:	31 09       	sbc	r19, r1
    2578:	b9 01       	movw	r22, r18
    257a:	66 0f       	add	r22, r22
    257c:	77 1f       	adc	r23, r23
    257e:	a9 01       	movw	r20, r18
    2580:	44 0f       	add	r20, r20
    2582:	55 1f       	adc	r21, r21
    2584:	44 0f       	add	r20, r20
    2586:	55 1f       	adc	r21, r21
    2588:	44 0f       	add	r20, r20
    258a:	55 1f       	adc	r21, r21
    258c:	9b 01       	movw	r18, r22
    258e:	24 0f       	add	r18, r20
    2590:	35 1f       	adc	r19, r21
    2592:	28 0f       	add	r18, r24
    2594:	39 1f       	adc	r19, r25
    2596:	8f 85       	ldd	r24, Y+15	; 0x0f
    2598:	90 e0       	ldi	r25, 0x00	; 0
    259a:	c0 97       	sbiw	r24, 0x30	; 48
    259c:	82 0f       	add	r24, r18
    259e:	93 1f       	adc	r25, r19
    25a0:	10 ed       	ldi	r17, 0xD0	; 208
    25a2:	1d 0d       	add	r17, r13
    25a4:	e1 2e       	mov	r14, r17
    25a6:	f1 2c       	mov	r15, r1
    25a8:	b7 01       	movw	r22, r14
    25aa:	0e 94 f7 19 	call	0x33ee	; 0x33ee <__divmodhi4>
    25ae:	5c 01       	movw	r10, r24
    25b0:	fb 01       	movw	r30, r22
    25b2:	2e 85       	ldd	r18, Y+14	; 0x0e
    25b4:	30 e0       	ldi	r19, 0x00	; 0
    25b6:	20 53       	subi	r18, 0x30	; 48
    25b8:	31 09       	sbc	r19, r1
    25ba:	c9 01       	movw	r24, r18
    25bc:	88 0f       	add	r24, r24
    25be:	99 1f       	adc	r25, r25
    25c0:	22 0f       	add	r18, r18
    25c2:	33 1f       	adc	r19, r19
    25c4:	22 0f       	add	r18, r18
    25c6:	33 1f       	adc	r19, r19
    25c8:	22 0f       	add	r18, r18
    25ca:	33 1f       	adc	r19, r19
    25cc:	28 0f       	add	r18, r24
    25ce:	39 1f       	adc	r19, r25
    25d0:	8d 85       	ldd	r24, Y+13	; 0x0d
    25d2:	90 e0       	ldi	r25, 0x00	; 0
    25d4:	c0 97       	sbiw	r24, 0x30	; 48
    25d6:	82 0f       	add	r24, r18
    25d8:	93 1f       	adc	r25, r19
    25da:	b7 01       	movw	r22, r14
    25dc:	0e 94 f7 19 	call	0x33ee	; 0x33ee <__divmodhi4>
    25e0:	a6 0e       	add	r10, r22
    25e2:	b7 1e       	adc	r11, r23
    25e4:	54 e6       	ldi	r21, 0x64	; 100
    25e6:	a5 16       	cp	r10, r21
    25e8:	b1 04       	cpc	r11, r1
    25ea:	3c f0       	brlt	.+14     	; 0x25fa <venda_parcelada+0x146>
    25ec:	c5 01       	movw	r24, r10
    25ee:	64 e6       	ldi	r22, 0x64	; 100
    25f0:	70 e0       	ldi	r23, 0x00	; 0
    25f2:	0e 94 f7 19 	call	0x33ee	; 0x33ee <__divmodhi4>
    25f6:	5c 01       	movw	r10, r24
    25f8:	31 96       	adiw	r30, 0x01	; 1
    25fa:	cf 01       	movw	r24, r30
    25fc:	64 e6       	ldi	r22, 0x64	; 100
    25fe:	70 e0       	ldi	r23, 0x00	; 0
    2600:	0e 94 f7 19 	call	0x33ee	; 0x33ee <__divmodhi4>
    2604:	7c 01       	movw	r14, r24
    2606:	60 5d       	subi	r22, 0xD0	; 208
    2608:	6d 87       	std	Y+13, r22	; 0x0d
    260a:	2a e0       	ldi	r18, 0x0A	; 10
    260c:	30 e0       	ldi	r19, 0x00	; 0
    260e:	cf 01       	movw	r24, r30
    2610:	b9 01       	movw	r22, r18
    2612:	0e 94 f7 19 	call	0x33ee	; 0x33ee <__divmodhi4>
    2616:	cb 01       	movw	r24, r22
    2618:	b9 01       	movw	r22, r18
    261a:	0e 94 f7 19 	call	0x33ee	; 0x33ee <__divmodhi4>
    261e:	80 5d       	subi	r24, 0xD0	; 208
    2620:	8e 87       	std	Y+14, r24	; 0x0e
    2622:	c7 01       	movw	r24, r14
    2624:	b9 01       	movw	r22, r18
    2626:	0e 94 f7 19 	call	0x33ee	; 0x33ee <__divmodhi4>
    262a:	80 5d       	subi	r24, 0xD0	; 208
    262c:	8f 87       	std	Y+15, r24	; 0x0f
    262e:	c5 01       	movw	r24, r10
    2630:	b9 01       	movw	r22, r18
    2632:	0e 94 f7 19 	call	0x33ee	; 0x33ee <__divmodhi4>
    2636:	60 5d       	subi	r22, 0xD0	; 208
    2638:	68 8b       	std	Y+16, r22	; 0x10
    263a:	80 5d       	subi	r24, 0xD0	; 208
    263c:	89 8b       	std	Y+17, r24	; 0x11
    263e:	81 e0       	ldi	r24, 0x01	; 1
    2640:	0e 94 28 01 	call	0x250	; 0x250 <sumDate>
    2644:	20 e0       	ldi	r18, 0x00	; 0
    2646:	30 e0       	ldi	r19, 0x00	; 0
    2648:	0d c0       	rjmp	.+26     	; 0x2664 <venda_parcelada+0x1b0>
    264a:	f9 01       	movw	r30, r18
    264c:	e5 56       	subi	r30, 0x65	; 101
    264e:	f9 4f       	sbci	r31, 0xF9	; 249
    2650:	90 81       	ld	r25, Z
    2652:	e2 e1       	ldi	r30, 0x12	; 18
    2654:	f0 e0       	ldi	r31, 0x00	; 0
    2656:	ec 0f       	add	r30, r28
    2658:	fd 1f       	adc	r31, r29
    265a:	e2 0f       	add	r30, r18
    265c:	f3 1f       	adc	r31, r19
    265e:	90 83       	st	Z, r25
    2660:	2f 5f       	subi	r18, 0xFF	; 255
    2662:	3f 4f       	sbci	r19, 0xFF	; 255
    2664:	26 30       	cpi	r18, 0x06	; 6
    2666:	31 05       	cpc	r19, r1
    2668:	84 f3       	brlt	.-32     	; 0x264a <venda_parcelada+0x196>
    266a:	13 30       	cpi	r17, 0x03	; 3
    266c:	c1 f4       	brne	.+48     	; 0x269e <venda_parcelada+0x1ea>
    266e:	82 e0       	ldi	r24, 0x02	; 2
    2670:	0e 94 28 01 	call	0x250	; 0x250 <sumDate>
    2674:	80 e0       	ldi	r24, 0x00	; 0
    2676:	90 e0       	ldi	r25, 0x00	; 0
    2678:	0e c0       	rjmp	.+28     	; 0x2696 <venda_parcelada+0x1e2>
    267a:	fc 01       	movw	r30, r24
    267c:	36 96       	adiw	r30, 0x06	; 6
    267e:	dc 01       	movw	r26, r24
    2680:	a5 56       	subi	r26, 0x65	; 101
    2682:	b9 4f       	sbci	r27, 0xF9	; 249
    2684:	2c 91       	ld	r18, X
    2686:	42 e1       	ldi	r20, 0x12	; 18
    2688:	50 e0       	ldi	r21, 0x00	; 0
    268a:	4c 0f       	add	r20, r28
    268c:	5d 1f       	adc	r21, r29
    268e:	e4 0f       	add	r30, r20
    2690:	f5 1f       	adc	r31, r21
    2692:	20 83       	st	Z, r18
    2694:	01 96       	adiw	r24, 0x01	; 1
    2696:	86 30       	cpi	r24, 0x06	; 6
    2698:	91 05       	cpc	r25, r1
    269a:	7c f3       	brlt	.-34     	; 0x267a <venda_parcelada+0x1c6>
    269c:	02 c0       	rjmp	.+4      	; 0x26a2 <venda_parcelada+0x1ee>
    269e:	89 e0       	ldi	r24, 0x09	; 9
    26a0:	88 8f       	std	Y+24, r24	; 0x18
    26a2:	ae 01       	movw	r20, r28
    26a4:	4e 5e       	subi	r20, 0xEE	; 238
    26a6:	5f 4f       	sbci	r21, 0xFF	; 255
    26a8:	be 01       	movw	r22, r28
    26aa:	63 5f       	subi	r22, 0xF3	; 243
    26ac:	7f 4f       	sbci	r23, 0xFF	; 255
    26ae:	ce 01       	movw	r24, r28
    26b0:	07 96       	adiw	r24, 0x07	; 7
    26b2:	0e 94 f0 11 	call	0x23e0	; 0x23e0 <addPagamentoAgendado>
    26b6:	6d 96       	adiw	r28, 0x1d	; 29
    26b8:	0f b6       	in	r0, 0x3f	; 63
    26ba:	f8 94       	cli
    26bc:	de bf       	out	0x3e, r29	; 62
    26be:	0f be       	out	0x3f, r0	; 63
    26c0:	cd bf       	out	0x3d, r28	; 61
    26c2:	df 91       	pop	r29
    26c4:	cf 91       	pop	r28
    26c6:	1f 91       	pop	r17
    26c8:	0f 91       	pop	r16
    26ca:	ff 90       	pop	r15
    26cc:	ef 90       	pop	r14
    26ce:	df 90       	pop	r13
    26d0:	cf 90       	pop	r12
    26d2:	bf 90       	pop	r11
    26d4:	af 90       	pop	r10
    26d6:	08 95       	ret

000026d8 <processa_venda>:
    26d8:	81 33       	cpi	r24, 0x31	; 49
    26da:	91 05       	cpc	r25, r1
    26dc:	19 f4       	brne	.+6      	; 0x26e4 <processa_venda+0xc>
    26de:	0e 94 5f 0f 	call	0x1ebe	; 0x1ebe <venda_avista>
    26e2:	08 95       	ret
    26e4:	82 33       	cpi	r24, 0x32	; 50
    26e6:	91 05       	cpc	r25, r1
    26e8:	19 f4       	brne	.+6      	; 0x26f0 <processa_venda+0x18>
    26ea:	0e 94 5a 12 	call	0x24b4	; 0x24b4 <venda_parcelada>
    26ee:	08 95       	ret
    26f0:	c3 97       	sbiw	r24, 0x33	; 51
    26f2:	11 f4       	brne	.+4      	; 0x26f8 <processa_venda+0x20>
    26f4:	0e 94 35 0e 	call	0x1c6a	; 0x1c6a <estorno>
    26f8:	08 95       	ret

000026fa <comparaCartoes>:
    26fa:	dc 01       	movw	r26, r24
    26fc:	20 e0       	ldi	r18, 0x00	; 0
    26fe:	30 e0       	ldi	r19, 0x00	; 0
    2700:	0c c0       	rjmp	.+24     	; 0x271a <comparaCartoes+0x20>
    2702:	fd 01       	movw	r30, r26
    2704:	e2 0f       	add	r30, r18
    2706:	f3 1f       	adc	r31, r19
    2708:	40 81       	ld	r20, Z
    270a:	fb 01       	movw	r30, r22
    270c:	e2 0f       	add	r30, r18
    270e:	f3 1f       	adc	r31, r19
    2710:	90 81       	ld	r25, Z
    2712:	49 13       	cpse	r20, r25
    2714:	08 c0       	rjmp	.+16     	; 0x2726 <comparaCartoes+0x2c>
    2716:	2f 5f       	subi	r18, 0xFF	; 255
    2718:	3f 4f       	sbci	r19, 0xFF	; 255
    271a:	26 30       	cpi	r18, 0x06	; 6
    271c:	31 05       	cpc	r19, r1
    271e:	8c f3       	brlt	.-30     	; 0x2702 <comparaCartoes+0x8>
    2720:	81 e0       	ldi	r24, 0x01	; 1
    2722:	90 e0       	ldi	r25, 0x00	; 0
    2724:	08 95       	ret
    2726:	80 e0       	ldi	r24, 0x00	; 0
    2728:	90 e0       	ldi	r25, 0x00	; 0
    272a:	08 95       	ret

0000272c <organizaPagamentos>:
    272c:	cf 93       	push	r28
    272e:	df 93       	push	r29
    2730:	ac 01       	movw	r20, r24
    2732:	2f c0       	rjmp	.+94     	; 0x2792 <organizaPagamentos+0x66>
    2734:	9a 01       	movw	r18, r20
    2736:	2f 5f       	subi	r18, 0xFF	; 255
    2738:	3f 4f       	sbci	r19, 0xFF	; 255
    273a:	f9 01       	movw	r30, r18
    273c:	ee 0f       	add	r30, r30
    273e:	ff 1f       	adc	r31, r31
    2740:	df 01       	movw	r26, r30
    2742:	a2 0f       	add	r26, r18
    2744:	b3 1f       	adc	r27, r19
    2746:	aa 0f       	add	r26, r26
    2748:	bb 1f       	adc	r27, r27
    274a:	a0 5f       	subi	r26, 0xF0	; 240
    274c:	b9 4f       	sbci	r27, 0xF9	; 249
    274e:	a6 0f       	add	r26, r22
    2750:	b7 1f       	adc	r27, r23
    2752:	ac 91       	ld	r26, X
    2754:	e2 0f       	add	r30, r18
    2756:	f3 1f       	adc	r31, r19
    2758:	ee 0f       	add	r30, r30
    275a:	ff 1f       	adc	r31, r31
    275c:	e0 5f       	subi	r30, 0xF0	; 240
    275e:	f9 4f       	sbci	r31, 0xF9	; 249
    2760:	e6 0f       	add	r30, r22
    2762:	f7 1f       	adc	r31, r23
    2764:	10 82       	st	Z, r1
    2766:	fa 01       	movw	r30, r20
    2768:	ee 0f       	add	r30, r30
    276a:	ff 1f       	adc	r31, r31
    276c:	e4 0f       	add	r30, r20
    276e:	f5 1f       	adc	r31, r21
    2770:	ee 0f       	add	r30, r30
    2772:	ff 1f       	adc	r31, r31
    2774:	e0 5f       	subi	r30, 0xF0	; 240
    2776:	f9 4f       	sbci	r31, 0xF9	; 249
    2778:	e6 0f       	add	r30, r22
    277a:	f7 1f       	adc	r31, r23
    277c:	a0 83       	st	Z, r26
    277e:	6f 5f       	subi	r22, 0xFF	; 255
    2780:	7f 4f       	sbci	r23, 0xFF	; 255
    2782:	02 c0       	rjmp	.+4      	; 0x2788 <organizaPagamentos+0x5c>
    2784:	60 e0       	ldi	r22, 0x00	; 0
    2786:	70 e0       	ldi	r23, 0x00	; 0
    2788:	66 30       	cpi	r22, 0x06	; 6
    278a:	71 05       	cpc	r23, r1
    278c:	9c f2       	brlt	.-90     	; 0x2734 <organizaPagamentos+0x8>
    278e:	4f 5f       	subi	r20, 0xFF	; 255
    2790:	5f 4f       	sbci	r21, 0xFF	; 255
    2792:	a0 91 a8 05 	lds	r26, 0x05A8	; 0x8005a8 <__data_end>
    2796:	b0 91 a9 05 	lds	r27, 0x05A9	; 0x8005a9 <__data_end+0x1>
    279a:	bd 01       	movw	r22, r26
    279c:	61 50       	subi	r22, 0x01	; 1
    279e:	71 09       	sbc	r23, r1
    27a0:	46 17       	cp	r20, r22
    27a2:	57 07       	cpc	r21, r23
    27a4:	7c f3       	brlt	.-34     	; 0x2784 <organizaPagamentos+0x58>
    27a6:	ec 01       	movw	r28, r24
    27a8:	25 c0       	rjmp	.+74     	; 0x27f4 <organizaPagamentos+0xc8>
    27aa:	9e 01       	movw	r18, r28
    27ac:	2f 5f       	subi	r18, 0xFF	; 255
    27ae:	3f 4f       	sbci	r19, 0xFF	; 255
    27b0:	f9 01       	movw	r30, r18
    27b2:	ee 0f       	add	r30, r30
    27b4:	ff 1f       	adc	r31, r31
    27b6:	ee 0f       	add	r30, r30
    27b8:	ff 1f       	adc	r31, r31
    27ba:	e2 0f       	add	r30, r18
    27bc:	f3 1f       	adc	r31, r19
    27be:	ee 50       	subi	r30, 0x0E	; 14
    27c0:	fa 4f       	sbci	r31, 0xFA	; 250
    27c2:	e4 0f       	add	r30, r20
    27c4:	f5 1f       	adc	r31, r21
    27c6:	20 81       	ld	r18, Z
    27c8:	10 82       	st	Z, r1
    27ca:	fe 01       	movw	r30, r28
    27cc:	ee 0f       	add	r30, r30
    27ce:	ff 1f       	adc	r31, r31
    27d0:	ee 0f       	add	r30, r30
    27d2:	ff 1f       	adc	r31, r31
    27d4:	ec 0f       	add	r30, r28
    27d6:	fd 1f       	adc	r31, r29
    27d8:	ee 50       	subi	r30, 0x0E	; 14
    27da:	fa 4f       	sbci	r31, 0xFA	; 250
    27dc:	e4 0f       	add	r30, r20
    27de:	f5 1f       	adc	r31, r21
    27e0:	20 83       	st	Z, r18
    27e2:	4f 5f       	subi	r20, 0xFF	; 255
    27e4:	5f 4f       	sbci	r21, 0xFF	; 255
    27e6:	02 c0       	rjmp	.+4      	; 0x27ec <organizaPagamentos+0xc0>
    27e8:	40 e0       	ldi	r20, 0x00	; 0
    27ea:	50 e0       	ldi	r21, 0x00	; 0
    27ec:	45 30       	cpi	r20, 0x05	; 5
    27ee:	51 05       	cpc	r21, r1
    27f0:	e4 f2       	brlt	.-72     	; 0x27aa <organizaPagamentos+0x7e>
    27f2:	21 96       	adiw	r28, 0x01	; 1
    27f4:	c6 17       	cp	r28, r22
    27f6:	d7 07       	cpc	r29, r23
    27f8:	bc f3       	brlt	.-18     	; 0x27e8 <organizaPagamentos+0xbc>
    27fa:	34 c0       	rjmp	.+104    	; 0x2864 <organizaPagamentos+0x138>
    27fc:	9c 01       	movw	r18, r24
    27fe:	2f 5f       	subi	r18, 0xFF	; 255
    2800:	3f 4f       	sbci	r19, 0xFF	; 255
    2802:	f9 01       	movw	r30, r18
    2804:	ee 0f       	add	r30, r30
    2806:	ff 1f       	adc	r31, r31
    2808:	ef 01       	movw	r28, r30
    280a:	c2 0f       	add	r28, r18
    280c:	d3 1f       	adc	r29, r19
    280e:	cc 0f       	add	r28, r28
    2810:	dd 1f       	adc	r29, r29
    2812:	cc 0f       	add	r28, r28
    2814:	dd 1f       	adc	r29, r29
    2816:	c6 55       	subi	r28, 0x56	; 86
    2818:	da 4f       	sbci	r29, 0xFA	; 250
    281a:	c4 0f       	add	r28, r20
    281c:	d5 1f       	adc	r29, r21
    281e:	c8 81       	ld	r28, Y
    2820:	e2 0f       	add	r30, r18
    2822:	f3 1f       	adc	r31, r19
    2824:	ee 0f       	add	r30, r30
    2826:	ff 1f       	adc	r31, r31
    2828:	ee 0f       	add	r30, r30
    282a:	ff 1f       	adc	r31, r31
    282c:	e6 55       	subi	r30, 0x56	; 86
    282e:	fa 4f       	sbci	r31, 0xFA	; 250
    2830:	e4 0f       	add	r30, r20
    2832:	f5 1f       	adc	r31, r21
    2834:	10 82       	st	Z, r1
    2836:	fc 01       	movw	r30, r24
    2838:	ee 0f       	add	r30, r30
    283a:	ff 1f       	adc	r31, r31
    283c:	e8 0f       	add	r30, r24
    283e:	f9 1f       	adc	r31, r25
    2840:	ee 0f       	add	r30, r30
    2842:	ff 1f       	adc	r31, r31
    2844:	ee 0f       	add	r30, r30
    2846:	ff 1f       	adc	r31, r31
    2848:	e6 55       	subi	r30, 0x56	; 86
    284a:	fa 4f       	sbci	r31, 0xFA	; 250
    284c:	e4 0f       	add	r30, r20
    284e:	f5 1f       	adc	r31, r21
    2850:	c0 83       	st	Z, r28
    2852:	4f 5f       	subi	r20, 0xFF	; 255
    2854:	5f 4f       	sbci	r21, 0xFF	; 255
    2856:	02 c0       	rjmp	.+4      	; 0x285c <organizaPagamentos+0x130>
    2858:	40 e0       	ldi	r20, 0x00	; 0
    285a:	50 e0       	ldi	r21, 0x00	; 0
    285c:	4c 30       	cpi	r20, 0x0C	; 12
    285e:	51 05       	cpc	r21, r1
    2860:	6c f2       	brlt	.-102    	; 0x27fc <organizaPagamentos+0xd0>
    2862:	01 96       	adiw	r24, 0x01	; 1
    2864:	86 17       	cp	r24, r22
    2866:	97 07       	cpc	r25, r23
    2868:	bc f3       	brlt	.-18     	; 0x2858 <organizaPagamentos+0x12c>
    286a:	11 97       	sbiw	r26, 0x01	; 1
    286c:	b0 93 a9 05 	sts	0x05A9, r27	; 0x8005a9 <__data_end+0x1>
    2870:	a0 93 a8 05 	sts	0x05A8, r26	; 0x8005a8 <__data_end>
    2874:	df 91       	pop	r29
    2876:	cf 91       	pop	r28
    2878:	08 95       	ret

0000287a <removePrimeiraParcela>:
    287a:	fc 01       	movw	r30, r24
    287c:	ee 0f       	add	r30, r30
    287e:	ff 1f       	adc	r31, r31
    2880:	e8 0f       	add	r30, r24
    2882:	f9 1f       	adc	r31, r25
    2884:	ee 0f       	add	r30, r30
    2886:	ff 1f       	adc	r31, r31
    2888:	ee 0f       	add	r30, r30
    288a:	ff 1f       	adc	r31, r31
    288c:	e6 55       	subi	r30, 0x56	; 86
    288e:	fa 4f       	sbci	r31, 0xFA	; 250
    2890:	28 e0       	ldi	r18, 0x08	; 8
    2892:	20 83       	st	Z, r18
    2894:	26 81       	ldd	r18, Z+6	; 0x06
    2896:	29 30       	cpi	r18, 0x09	; 9
    2898:	11 f4       	brne	.+4      	; 0x289e <removePrimeiraParcela+0x24>
    289a:	0e 94 96 13 	call	0x272c	; 0x272c <organizaPagamentos>
    289e:	08 95       	ret

000028a0 <removeSegundaParcela>:
    28a0:	0e 94 96 13 	call	0x272c	; 0x272c <organizaPagamentos>
    28a4:	08 95       	ret

000028a6 <removePagamentoAgendado>:
    28a6:	0f 93       	push	r16
    28a8:	1f 93       	push	r17
    28aa:	cf 93       	push	r28
    28ac:	df 93       	push	r29
    28ae:	8c 01       	movw	r16, r24
    28b0:	c0 e0       	ldi	r28, 0x00	; 0
    28b2:	d0 e0       	ldi	r29, 0x00	; 0
    28b4:	0f c0       	rjmp	.+30     	; 0x28d4 <removePagamentoAgendado+0x2e>
    28b6:	ce 01       	movw	r24, r28
    28b8:	88 0f       	add	r24, r24
    28ba:	99 1f       	adc	r25, r25
    28bc:	8c 0f       	add	r24, r28
    28be:	9d 1f       	adc	r25, r29
    28c0:	88 0f       	add	r24, r24
    28c2:	99 1f       	adc	r25, r25
    28c4:	b8 01       	movw	r22, r16
    28c6:	80 5f       	subi	r24, 0xF0	; 240
    28c8:	99 4f       	sbci	r25, 0xF9	; 249
    28ca:	0e 94 7d 13 	call	0x26fa	; 0x26fa <comparaCartoes>
    28ce:	01 97       	sbiw	r24, 0x01	; 1
    28d0:	51 f0       	breq	.+20     	; 0x28e6 <removePagamentoAgendado+0x40>
    28d2:	21 96       	adiw	r28, 0x01	; 1
    28d4:	80 91 a8 05 	lds	r24, 0x05A8	; 0x8005a8 <__data_end>
    28d8:	90 91 a9 05 	lds	r25, 0x05A9	; 0x8005a9 <__data_end+0x1>
    28dc:	c8 17       	cp	r28, r24
    28de:	d9 07       	cpc	r29, r25
    28e0:	54 f3       	brlt	.-44     	; 0x28b6 <removePagamentoAgendado+0x10>
    28e2:	cf ef       	ldi	r28, 0xFF	; 255
    28e4:	df ef       	ldi	r29, 0xFF	; 255
    28e6:	cf 3f       	cpi	r28, 0xFF	; 255
    28e8:	8f ef       	ldi	r24, 0xFF	; 255
    28ea:	d8 07       	cpc	r29, r24
    28ec:	41 f1       	breq	.+80     	; 0x293e <removePagamentoAgendado+0x98>
    28ee:	fe 01       	movw	r30, r28
    28f0:	ee 0f       	add	r30, r30
    28f2:	ff 1f       	adc	r31, r31
    28f4:	ec 0f       	add	r30, r28
    28f6:	fd 1f       	adc	r31, r29
    28f8:	ee 0f       	add	r30, r30
    28fa:	ff 1f       	adc	r31, r31
    28fc:	ee 0f       	add	r30, r30
    28fe:	ff 1f       	adc	r31, r31
    2900:	e6 55       	subi	r30, 0x56	; 86
    2902:	fa 4f       	sbci	r31, 0xFA	; 250
    2904:	80 81       	ld	r24, Z
    2906:	88 30       	cpi	r24, 0x08	; 8
    2908:	31 f0       	breq	.+12     	; 0x2916 <removePagamentoAgendado+0x70>
    290a:	ce 01       	movw	r24, r28
    290c:	0e 94 3d 14 	call	0x287a	; 0x287a <removePrimeiraParcela>
    2910:	81 e0       	ldi	r24, 0x01	; 1
    2912:	90 e0       	ldi	r25, 0x00	; 0
    2914:	19 c0       	rjmp	.+50     	; 0x2948 <removePagamentoAgendado+0xa2>
    2916:	fe 01       	movw	r30, r28
    2918:	ee 0f       	add	r30, r30
    291a:	ff 1f       	adc	r31, r31
    291c:	ec 0f       	add	r30, r28
    291e:	fd 1f       	adc	r31, r29
    2920:	ee 0f       	add	r30, r30
    2922:	ff 1f       	adc	r31, r31
    2924:	ee 0f       	add	r30, r30
    2926:	ff 1f       	adc	r31, r31
    2928:	e6 55       	subi	r30, 0x56	; 86
    292a:	fa 4f       	sbci	r31, 0xFA	; 250
    292c:	86 81       	ldd	r24, Z+6	; 0x06
    292e:	89 30       	cpi	r24, 0x09	; 9
    2930:	49 f0       	breq	.+18     	; 0x2944 <removePagamentoAgendado+0x9e>
    2932:	ce 01       	movw	r24, r28
    2934:	0e 94 50 14 	call	0x28a0	; 0x28a0 <removeSegundaParcela>
    2938:	81 e0       	ldi	r24, 0x01	; 1
    293a:	90 e0       	ldi	r25, 0x00	; 0
    293c:	05 c0       	rjmp	.+10     	; 0x2948 <removePagamentoAgendado+0xa2>
    293e:	80 e0       	ldi	r24, 0x00	; 0
    2940:	90 e0       	ldi	r25, 0x00	; 0
    2942:	02 c0       	rjmp	.+4      	; 0x2948 <removePagamentoAgendado+0xa2>
    2944:	81 e0       	ldi	r24, 0x01	; 1
    2946:	90 e0       	ldi	r25, 0x00	; 0
    2948:	df 91       	pop	r29
    294a:	cf 91       	pop	r28
    294c:	1f 91       	pop	r17
    294e:	0f 91       	pop	r16
    2950:	08 95       	ret

00002952 <existePendencia>:
    2952:	80 91 00 01 	lds	r24, 0x0100	; 0x800100 <__DATA_REGION_ORIGIN__>
    2956:	90 91 01 01 	lds	r25, 0x0101	; 0x800101 <__DATA_REGION_ORIGIN__+0x1>
    295a:	18 16       	cp	r1, r24
    295c:	19 06       	cpc	r1, r25
    295e:	14 f4       	brge	.+4      	; 0x2964 <existePendencia+0x12>
    2960:	81 e0       	ldi	r24, 0x01	; 1
    2962:	08 95       	ret
    2964:	80 e0       	ldi	r24, 0x00	; 0
    2966:	08 95       	ret

00002968 <removePendencias>:
		removeSegundaParcela(achada);

	numPendecias++;
}

char removePendencias(char remover){
    2968:	cf 93       	push	r28
    296a:	df 93       	push	r29
	if(remover+1 > numPendecias)
    296c:	c8 2f       	mov	r28, r24
    296e:	d0 e0       	ldi	r29, 0x00	; 0
    2970:	9e 01       	movw	r18, r28
    2972:	2f 5f       	subi	r18, 0xFF	; 255
    2974:	3f 4f       	sbci	r19, 0xFF	; 255
    2976:	80 91 00 01 	lds	r24, 0x0100	; 0x800100 <__DATA_REGION_ORIGIN__>
    297a:	90 91 01 01 	lds	r25, 0x0101	; 0x800101 <__DATA_REGION_ORIGIN__+0x1>
    297e:	82 17       	cp	r24, r18
    2980:	93 07       	cpc	r25, r19
    2982:	0c f4       	brge	.+2      	; 0x2986 <removePendencias+0x1e>
    2984:	6e c0       	rjmp	.+220    	; 0x2a62 <removePendencias+0xfa>
	//remover = remover-1; //correo pq indice comea em zero
	short i,j;
	char temp;
	
	//remove cartoesP
	writeInstruction(lcd_Clear);
    2986:	81 e0       	ldi	r24, 0x01	; 1
    2988:	0e 94 43 06 	call	0xc86	; 0xc86 <writeInstruction>
	writeInstruction(lcd_LineOne | lcd_SetCursor);
    298c:	80 e8       	ldi	r24, 0x80	; 128
    298e:	0e 94 43 06 	call	0xc86	; 0xc86 <writeInstruction>
	for(i=remover;i<numPendecias-1;i++){
    2992:	ae 01       	movw	r20, r28
    2994:	27 c0       	rjmp	.+78     	; 0x29e4 <removePendencias+0x7c>
		for(j=0;j<NUMDIGITOSCARTOES;j++){
			temp = cartoesP[i+1][j];	
    2996:	9a 01       	movw	r18, r20
    2998:	2f 5f       	subi	r18, 0xFF	; 255
    299a:	3f 4f       	sbci	r19, 0xFF	; 255
    299c:	f9 01       	movw	r30, r18
    299e:	ee 0f       	add	r30, r30
    29a0:	ff 1f       	adc	r31, r31
    29a2:	df 01       	movw	r26, r30
    29a4:	a2 0f       	add	r26, r18
    29a6:	b3 1f       	adc	r27, r19
    29a8:	aa 0f       	add	r26, r26
    29aa:	bb 1f       	adc	r27, r27
    29ac:	a0 5e       	subi	r26, 0xE0	; 224
    29ae:	be 4f       	sbci	r27, 0xFE	; 254
    29b0:	a8 0f       	add	r26, r24
    29b2:	b9 1f       	adc	r27, r25
    29b4:	6c 91       	ld	r22, X
			cartoesP[i+1][j] = 0; //aqui que eu deleto a info da matriz
    29b6:	fd 01       	movw	r30, r26
    29b8:	10 82       	st	Z, r1
			cartoesP[i][j] = temp;			
    29ba:	fa 01       	movw	r30, r20
    29bc:	ee 0f       	add	r30, r30
    29be:	ff 1f       	adc	r31, r31
    29c0:	e4 0f       	add	r30, r20
    29c2:	f5 1f       	adc	r31, r21
    29c4:	ee 0f       	add	r30, r30
    29c6:	ff 1f       	adc	r31, r31
    29c8:	e0 5e       	subi	r30, 0xE0	; 224
    29ca:	fe 4f       	sbci	r31, 0xFE	; 254
    29cc:	e8 0f       	add	r30, r24
    29ce:	f9 1f       	adc	r31, r25
    29d0:	60 83       	st	Z, r22
	
	//remove cartoesP
	writeInstruction(lcd_Clear);
	writeInstruction(lcd_LineOne | lcd_SetCursor);
	for(i=remover;i<numPendecias-1;i++){
		for(j=0;j<NUMDIGITOSCARTOES;j++){
    29d2:	01 96       	adiw	r24, 0x01	; 1
    29d4:	02 c0       	rjmp	.+4      	; 0x29da <removePendencias+0x72>
    29d6:	80 e0       	ldi	r24, 0x00	; 0
    29d8:	90 e0       	ldi	r25, 0x00	; 0
    29da:	86 30       	cpi	r24, 0x06	; 6
    29dc:	91 05       	cpc	r25, r1
    29de:	dc f2       	brlt	.-74     	; 0x2996 <removePendencias+0x2e>
	char temp;
	
	//remove cartoesP
	writeInstruction(lcd_Clear);
	writeInstruction(lcd_LineOne | lcd_SetCursor);
	for(i=remover;i<numPendecias-1;i++){
    29e0:	4f 5f       	subi	r20, 0xFF	; 255
    29e2:	5f 4f       	sbci	r21, 0xFF	; 255
    29e4:	80 91 00 01 	lds	r24, 0x0100	; 0x800100 <__DATA_REGION_ORIGIN__>
    29e8:	90 91 01 01 	lds	r25, 0x0101	; 0x800101 <__DATA_REGION_ORIGIN__+0x1>
    29ec:	01 97       	sbiw	r24, 0x01	; 1
    29ee:	48 17       	cp	r20, r24
    29f0:	59 07       	cpc	r21, r25
    29f2:	8c f3       	brlt	.-30     	; 0x29d6 <removePendencias+0x6e>
			temp = cartoesP[i+1][j];	
			cartoesP[i+1][j] = 0; //aqui que eu deleto a info da matriz
			cartoesP[i][j] = temp;			
		}
	}
	writeCharacter('D');
    29f4:	84 e4       	ldi	r24, 0x44	; 68
    29f6:	0e 94 08 06 	call	0xc10	; 0xc10 <writeCharacter>
	//remove valParcelaP
	for(i=remover;i<numPendecias-1;i++){
    29fa:	23 c0       	rjmp	.+70     	; 0x2a42 <removePendencias+0xda>
		for(j=0;j<NUMDIGITOSVALORES-1;j++){
			temp = valParcelaP[i+1][j];
    29fc:	fe 01       	movw	r30, r28
    29fe:	31 96       	adiw	r30, 0x01	; 1
    2a00:	9f 01       	movw	r18, r30
    2a02:	22 0f       	add	r18, r18
    2a04:	33 1f       	adc	r19, r19
    2a06:	22 0f       	add	r18, r18
    2a08:	33 1f       	adc	r19, r19
    2a0a:	e2 0f       	add	r30, r18
    2a0c:	f3 1f       	adc	r31, r19
    2a0e:	ee 5f       	subi	r30, 0xFE	; 254
    2a10:	fe 4f       	sbci	r31, 0xFE	; 254
    2a12:	e8 0f       	add	r30, r24
    2a14:	f9 1f       	adc	r31, r25
    2a16:	20 81       	ld	r18, Z
			valParcelaP[i+1][j] = 0; //aqui que eu deleto a info da matriz
    2a18:	10 82       	st	Z, r1
			valParcelaP[i][j] = temp;
    2a1a:	fe 01       	movw	r30, r28
    2a1c:	ee 0f       	add	r30, r30
    2a1e:	ff 1f       	adc	r31, r31
    2a20:	ee 0f       	add	r30, r30
    2a22:	ff 1f       	adc	r31, r31
    2a24:	ec 0f       	add	r30, r28
    2a26:	fd 1f       	adc	r31, r29
    2a28:	ee 5f       	subi	r30, 0xFE	; 254
    2a2a:	fe 4f       	sbci	r31, 0xFE	; 254
    2a2c:	e8 0f       	add	r30, r24
    2a2e:	f9 1f       	adc	r31, r25
    2a30:	20 83       	st	Z, r18
		}
	}
	writeCharacter('D');
	//remove valParcelaP
	for(i=remover;i<numPendecias-1;i++){
		for(j=0;j<NUMDIGITOSVALORES-1;j++){
    2a32:	01 96       	adiw	r24, 0x01	; 1
    2a34:	02 c0       	rjmp	.+4      	; 0x2a3a <removePendencias+0xd2>
    2a36:	80 e0       	ldi	r24, 0x00	; 0
    2a38:	90 e0       	ldi	r25, 0x00	; 0
    2a3a:	84 30       	cpi	r24, 0x04	; 4
    2a3c:	91 05       	cpc	r25, r1
    2a3e:	f4 f2       	brlt	.-68     	; 0x29fc <removePendencias+0x94>
			cartoesP[i][j] = temp;			
		}
	}
	writeCharacter('D');
	//remove valParcelaP
	for(i=remover;i<numPendecias-1;i++){
    2a40:	21 96       	adiw	r28, 0x01	; 1
    2a42:	80 91 00 01 	lds	r24, 0x0100	; 0x800100 <__DATA_REGION_ORIGIN__>
    2a46:	90 91 01 01 	lds	r25, 0x0101	; 0x800101 <__DATA_REGION_ORIGIN__+0x1>
    2a4a:	9c 01       	movw	r18, r24
    2a4c:	21 50       	subi	r18, 0x01	; 1
    2a4e:	31 09       	sbc	r19, r1
    2a50:	c2 17       	cp	r28, r18
    2a52:	d3 07       	cpc	r29, r19
    2a54:	84 f3       	brlt	.-32     	; 0x2a36 <removePendencias+0xce>
			temp = valParcelaP[i+1][j];
			valParcelaP[i+1][j] = 0; //aqui que eu deleto a info da matriz
			valParcelaP[i][j] = temp;
		}
	}
	numPendecias--;
    2a56:	30 93 01 01 	sts	0x0101, r19	; 0x800101 <__DATA_REGION_ORIGIN__+0x1>
    2a5a:	20 93 00 01 	sts	0x0100, r18	; 0x800100 <__DATA_REGION_ORIGIN__>
	return 1; //removi a pendencia 
    2a5e:	81 e0       	ldi	r24, 0x01	; 1
    2a60:	01 c0       	rjmp	.+2      	; 0x2a64 <removePendencias+0xfc>
	numPendecias++;
}

char removePendencias(char remover){
	if(remover+1 > numPendecias)
		return 0; //pediu pra remover uma pendencia q no existe
    2a62:	80 e0       	ldi	r24, 0x00	; 0
		}
	}
	numPendecias--;
	return 1; //removi a pendencia 
	
}
    2a64:	df 91       	pop	r29
    2a66:	cf 91       	pop	r28
    2a68:	08 95       	ret

00002a6a <printNumPendencia>:
		_delay_ms(2300);
	}
	return 1;
}

void printNumPendencia(short num){
    2a6a:	0f 93       	push	r16
    2a6c:	1f 93       	push	r17
    2a6e:	cf 93       	push	r28
    2a70:	df 93       	push	r29
    2a72:	8c 01       	movw	r16, r24
	short i;
	//print num cartao
	for(i=0;i<NUMDIGITOSCARTOES;i++)
    2a74:	c0 e0       	ldi	r28, 0x00	; 0
    2a76:	d0 e0       	ldi	r29, 0x00	; 0
    2a78:	10 c0       	rjmp	.+32     	; 0x2a9a <printNumPendencia+0x30>
		writeCharacter(cartoesP[num][i]+48);
    2a7a:	f8 01       	movw	r30, r16
    2a7c:	ee 0f       	add	r30, r30
    2a7e:	ff 1f       	adc	r31, r31
    2a80:	e0 0f       	add	r30, r16
    2a82:	f1 1f       	adc	r31, r17
    2a84:	ee 0f       	add	r30, r30
    2a86:	ff 1f       	adc	r31, r31
    2a88:	e0 5e       	subi	r30, 0xE0	; 224
    2a8a:	fe 4f       	sbci	r31, 0xFE	; 254
    2a8c:	ec 0f       	add	r30, r28
    2a8e:	fd 1f       	adc	r31, r29
    2a90:	80 81       	ld	r24, Z
    2a92:	80 5d       	subi	r24, 0xD0	; 208
    2a94:	0e 94 08 06 	call	0xc10	; 0xc10 <writeCharacter>
}

void printNumPendencia(short num){
	short i;
	//print num cartao
	for(i=0;i<NUMDIGITOSCARTOES;i++)
    2a98:	21 96       	adiw	r28, 0x01	; 1
    2a9a:	c6 30       	cpi	r28, 0x06	; 6
    2a9c:	d1 05       	cpc	r29, r1
    2a9e:	6c f3       	brlt	.-38     	; 0x2a7a <printNumPendencia+0x10>
		writeCharacter(cartoesP[num][i]+48);
	writeString(" ");
    2aa0:	86 e7       	ldi	r24, 0x76	; 118
    2aa2:	95 e0       	ldi	r25, 0x05	; 5
    2aa4:	0e 94 1a 06 	call	0xc34	; 0xc34 <writeString>
	//print val parcela
	for(i=0;i<NUMDIGITOSVALORES;i++)
    2aa8:	c0 e0       	ldi	r28, 0x00	; 0
    2aaa:	d0 e0       	ldi	r29, 0x00	; 0
    2aac:	10 c0       	rjmp	.+32     	; 0x2ace <printNumPendencia+0x64>
		writeCharacter(valParcelaP[num][i]+48);
    2aae:	f8 01       	movw	r30, r16
    2ab0:	ee 0f       	add	r30, r30
    2ab2:	ff 1f       	adc	r31, r31
    2ab4:	ee 0f       	add	r30, r30
    2ab6:	ff 1f       	adc	r31, r31
    2ab8:	e0 0f       	add	r30, r16
    2aba:	f1 1f       	adc	r31, r17
    2abc:	ee 5f       	subi	r30, 0xFE	; 254
    2abe:	fe 4f       	sbci	r31, 0xFE	; 254
    2ac0:	ec 0f       	add	r30, r28
    2ac2:	fd 1f       	adc	r31, r29
    2ac4:	80 81       	ld	r24, Z
    2ac6:	80 5d       	subi	r24, 0xD0	; 208
    2ac8:	0e 94 08 06 	call	0xc10	; 0xc10 <writeCharacter>
	//print num cartao
	for(i=0;i<NUMDIGITOSCARTOES;i++)
		writeCharacter(cartoesP[num][i]+48);
	writeString(" ");
	//print val parcela
	for(i=0;i<NUMDIGITOSVALORES;i++)
    2acc:	21 96       	adiw	r28, 0x01	; 1
    2ace:	c5 30       	cpi	r28, 0x05	; 5
    2ad0:	d1 05       	cpc	r29, r1
    2ad2:	6c f3       	brlt	.-38     	; 0x2aae <printNumPendencia+0x44>
		writeCharacter(valParcelaP[num][i]+48);
	writeString(" -");
    2ad4:	81 e8       	ldi	r24, 0x81	; 129
    2ad6:	95 e0       	ldi	r25, 0x05	; 5
    2ad8:	0e 94 1a 06 	call	0xc34	; 0xc34 <writeString>
	writeCharacter(num+49);
    2adc:	81 e3       	ldi	r24, 0x31	; 49
    2ade:	80 0f       	add	r24, r16
    2ae0:	0e 94 08 06 	call	0xc10	; 0xc10 <writeCharacter>
}
    2ae4:	df 91       	pop	r29
    2ae6:	cf 91       	pop	r28
    2ae8:	1f 91       	pop	r17
    2aea:	0f 91       	pop	r16
    2aec:	08 95       	ret

00002aee <printPendencias>:
	return 1; //removi a pendencia 
	
}

char printPendencias(char sobeDesce){
	if(numPendecias < 1)
    2aee:	20 91 00 01 	lds	r18, 0x0100	; 0x800100 <__DATA_REGION_ORIGIN__>
    2af2:	30 91 01 01 	lds	r19, 0x0101	; 0x800101 <__DATA_REGION_ORIGIN__+0x1>
    2af6:	12 16       	cp	r1, r18
    2af8:	13 06       	cpc	r1, r19
    2afa:	0c f0       	brlt	.+2      	; 0x2afe <printPendencias+0x10>
    2afc:	7a c0       	rjmp	.+244    	; 0x2bf2 <printPendencias+0x104>
		return 0; //sem pendencias pra printar
		
	if(sobeDesce == 1 && numPendecias >= 1){
    2afe:	81 30       	cpi	r24, 0x01	; 1
    2b00:	21 f5       	brne	.+72     	; 0x2b4a <printPendencias+0x5c>
    2b02:	12 16       	cp	r1, r18
    2b04:	13 06       	cpc	r1, r19
    2b06:	0c f5       	brge	.+66     	; 0x2b4a <printPendencias+0x5c>
		writeInstruction(lcd_Clear);
    2b08:	0e 94 43 06 	call	0xc86	; 0xc86 <writeInstruction>
		writeInstruction(lcd_LineOne | lcd_SetCursor);
    2b0c:	80 e8       	ldi	r24, 0x80	; 128
    2b0e:	0e 94 43 06 	call	0xc86	; 0xc86 <writeInstruction>
		printNumPendencia(0); //pend 1
    2b12:	80 e0       	ldi	r24, 0x00	; 0
    2b14:	90 e0       	ldi	r25, 0x00	; 0
    2b16:	0e 94 35 15 	call	0x2a6a	; 0x2a6a <printNumPendencia>
		if(numPendecias > 1){
    2b1a:	80 91 00 01 	lds	r24, 0x0100	; 0x800100 <__DATA_REGION_ORIGIN__>
    2b1e:	90 91 01 01 	lds	r25, 0x0101	; 0x800101 <__DATA_REGION_ORIGIN__+0x1>
    2b22:	02 97       	sbiw	r24, 0x02	; 2
    2b24:	3c f0       	brlt	.+14     	; 0x2b34 <printPendencias+0x46>
			writeInstruction(lcd_LineTwo | lcd_SetCursor);
    2b26:	80 ec       	ldi	r24, 0xC0	; 192
    2b28:	0e 94 43 06 	call	0xc86	; 0xc86 <writeInstruction>
			printNumPendencia(1); //pend 2
    2b2c:	81 e0       	ldi	r24, 0x01	; 1
    2b2e:	90 e0       	ldi	r25, 0x00	; 0
    2b30:	0e 94 35 15 	call	0x2a6a	; 0x2a6a <printNumPendencia>
	#else
		//round up by default
		__ticks_dc = (uint32_t)(ceil(fabs(__tmp)));
	#endif

	__builtin_avr_delay_cycles(__ticks_dc);
    2b34:	2f ef       	ldi	r18, 0xFF	; 255
    2b36:	8d e4       	ldi	r24, 0x4D	; 77
    2b38:	90 e7       	ldi	r25, 0x70	; 112
    2b3a:	21 50       	subi	r18, 0x01	; 1
    2b3c:	80 40       	sbci	r24, 0x00	; 0
    2b3e:	90 40       	sbci	r25, 0x00	; 0
    2b40:	e1 f7       	brne	.-8      	; 0x2b3a <printPendencias+0x4c>
    2b42:	00 c0       	rjmp	.+0      	; 0x2b44 <printPendencias+0x56>
    2b44:	00 00       	nop
			writeInstruction(lcd_LineTwo | lcd_SetCursor);
			printNumPendencia(5); //pend 6
		}
		_delay_ms(2300);
	}
	return 1;
    2b46:	81 e0       	ldi	r24, 0x01	; 1
    2b48:	08 95       	ret
		if(numPendecias > 1){
			writeInstruction(lcd_LineTwo | lcd_SetCursor);
			printNumPendencia(1); //pend 2
		}
		_delay_ms(2300);
	}else if(sobeDesce == 2 && numPendecias > 2){
    2b4a:	82 30       	cpi	r24, 0x02	; 2
    2b4c:	41 f5       	brne	.+80     	; 0x2b9e <printPendencias+0xb0>
    2b4e:	23 30       	cpi	r18, 0x03	; 3
    2b50:	31 05       	cpc	r19, r1
    2b52:	2c f1       	brlt	.+74     	; 0x2b9e <printPendencias+0xb0>
		if(numPendecias > 2){
    2b54:	23 30       	cpi	r18, 0x03	; 3
    2b56:	31 05       	cpc	r19, r1
    2b58:	54 f0       	brlt	.+20     	; 0x2b6e <printPendencias+0x80>
			writeInstruction(lcd_Clear);
    2b5a:	81 e0       	ldi	r24, 0x01	; 1
    2b5c:	0e 94 43 06 	call	0xc86	; 0xc86 <writeInstruction>
			writeInstruction(lcd_LineOne | lcd_SetCursor);
    2b60:	80 e8       	ldi	r24, 0x80	; 128
    2b62:	0e 94 43 06 	call	0xc86	; 0xc86 <writeInstruction>
			printNumPendencia(2);	//pend 3
    2b66:	82 e0       	ldi	r24, 0x02	; 2
    2b68:	90 e0       	ldi	r25, 0x00	; 0
    2b6a:	0e 94 35 15 	call	0x2a6a	; 0x2a6a <printNumPendencia>
		}
		if(numPendecias > 3){
    2b6e:	80 91 00 01 	lds	r24, 0x0100	; 0x800100 <__DATA_REGION_ORIGIN__>
    2b72:	90 91 01 01 	lds	r25, 0x0101	; 0x800101 <__DATA_REGION_ORIGIN__+0x1>
    2b76:	04 97       	sbiw	r24, 0x04	; 4
    2b78:	3c f0       	brlt	.+14     	; 0x2b88 <printPendencias+0x9a>
			writeInstruction(lcd_LineTwo | lcd_SetCursor);
    2b7a:	80 ec       	ldi	r24, 0xC0	; 192
    2b7c:	0e 94 43 06 	call	0xc86	; 0xc86 <writeInstruction>
			printNumPendencia(3); //pend 4
    2b80:	83 e0       	ldi	r24, 0x03	; 3
    2b82:	90 e0       	ldi	r25, 0x00	; 0
    2b84:	0e 94 35 15 	call	0x2a6a	; 0x2a6a <printNumPendencia>
    2b88:	2f ef       	ldi	r18, 0xFF	; 255
    2b8a:	8d e4       	ldi	r24, 0x4D	; 77
    2b8c:	90 e7       	ldi	r25, 0x70	; 112
    2b8e:	21 50       	subi	r18, 0x01	; 1
    2b90:	80 40       	sbci	r24, 0x00	; 0
    2b92:	90 40       	sbci	r25, 0x00	; 0
    2b94:	e1 f7       	brne	.-8      	; 0x2b8e <printPendencias+0xa0>
    2b96:	00 c0       	rjmp	.+0      	; 0x2b98 <printPendencias+0xaa>
    2b98:	00 00       	nop
			writeInstruction(lcd_LineTwo | lcd_SetCursor);
			printNumPendencia(5); //pend 6
		}
		_delay_ms(2300);
	}
	return 1;
    2b9a:	81 e0       	ldi	r24, 0x01	; 1
    2b9c:	08 95       	ret
		if(numPendecias > 3){
			writeInstruction(lcd_LineTwo | lcd_SetCursor);
			printNumPendencia(3); //pend 4
		}
		_delay_ms(2300);
	}else if(sobeDesce == 3 && numPendecias >= 4){
    2b9e:	83 30       	cpi	r24, 0x03	; 3
    2ba0:	51 f5       	brne	.+84     	; 0x2bf6 <printPendencias+0x108>
    2ba2:	24 30       	cpi	r18, 0x04	; 4
    2ba4:	31 05       	cpc	r19, r1
    2ba6:	4c f1       	brlt	.+82     	; 0x2bfa <printPendencias+0x10c>
		if(numPendecias > 4){
    2ba8:	25 30       	cpi	r18, 0x05	; 5
    2baa:	31 05       	cpc	r19, r1
    2bac:	54 f0       	brlt	.+20     	; 0x2bc2 <printPendencias+0xd4>
			writeInstruction(lcd_Clear);
    2bae:	81 e0       	ldi	r24, 0x01	; 1
    2bb0:	0e 94 43 06 	call	0xc86	; 0xc86 <writeInstruction>
			writeInstruction(lcd_LineOne | lcd_SetCursor);
    2bb4:	80 e8       	ldi	r24, 0x80	; 128
    2bb6:	0e 94 43 06 	call	0xc86	; 0xc86 <writeInstruction>
			printNumPendencia(4); //pend 5
    2bba:	84 e0       	ldi	r24, 0x04	; 4
    2bbc:	90 e0       	ldi	r25, 0x00	; 0
    2bbe:	0e 94 35 15 	call	0x2a6a	; 0x2a6a <printNumPendencia>
		}
		if(numPendecias > 5){
    2bc2:	80 91 00 01 	lds	r24, 0x0100	; 0x800100 <__DATA_REGION_ORIGIN__>
    2bc6:	90 91 01 01 	lds	r25, 0x0101	; 0x800101 <__DATA_REGION_ORIGIN__+0x1>
    2bca:	06 97       	sbiw	r24, 0x06	; 6
    2bcc:	3c f0       	brlt	.+14     	; 0x2bdc <printPendencias+0xee>
			writeInstruction(lcd_LineTwo | lcd_SetCursor);
    2bce:	80 ec       	ldi	r24, 0xC0	; 192
    2bd0:	0e 94 43 06 	call	0xc86	; 0xc86 <writeInstruction>
			printNumPendencia(5); //pend 6
    2bd4:	85 e0       	ldi	r24, 0x05	; 5
    2bd6:	90 e0       	ldi	r25, 0x00	; 0
    2bd8:	0e 94 35 15 	call	0x2a6a	; 0x2a6a <printNumPendencia>
    2bdc:	2f ef       	ldi	r18, 0xFF	; 255
    2bde:	8d e4       	ldi	r24, 0x4D	; 77
    2be0:	90 e7       	ldi	r25, 0x70	; 112
    2be2:	21 50       	subi	r18, 0x01	; 1
    2be4:	80 40       	sbci	r24, 0x00	; 0
    2be6:	90 40       	sbci	r25, 0x00	; 0
    2be8:	e1 f7       	brne	.-8      	; 0x2be2 <printPendencias+0xf4>
    2bea:	00 c0       	rjmp	.+0      	; 0x2bec <printPendencias+0xfe>
    2bec:	00 00       	nop
		}
		_delay_ms(2300);
	}
	return 1;
    2bee:	81 e0       	ldi	r24, 0x01	; 1
    2bf0:	08 95       	ret
	
}

char printPendencias(char sobeDesce){
	if(numPendecias < 1)
		return 0; //sem pendencias pra printar
    2bf2:	80 e0       	ldi	r24, 0x00	; 0
    2bf4:	08 95       	ret
			writeInstruction(lcd_LineTwo | lcd_SetCursor);
			printNumPendencia(5); //pend 6
		}
		_delay_ms(2300);
	}
	return 1;
    2bf6:	81 e0       	ldi	r24, 0x01	; 1
    2bf8:	08 95       	ret
    2bfa:	81 e0       	ldi	r24, 0x01	; 1
}
    2bfc:	08 95       	ret

00002bfe <modoADM>:
#include "../Headers/relogio.h"
#include "../Headers/pendencias.h"

static char statusOperadores[] = {1,1}; //dois operadores comeam habilitados

void modoADM(char *tecla){
    2bfe:	8f 92       	push	r8
    2c00:	9f 92       	push	r9
    2c02:	af 92       	push	r10
    2c04:	bf 92       	push	r11
    2c06:	df 92       	push	r13
    2c08:	ef 92       	push	r14
    2c0a:	ff 92       	push	r15
    2c0c:	0f 93       	push	r16
    2c0e:	1f 93       	push	r17
    2c10:	cf 93       	push	r28
    2c12:	df 93       	push	r29
    2c14:	cd b7       	in	r28, 0x3d	; 61
    2c16:	de b7       	in	r29, 0x3e	; 62
    2c18:	2c 97       	sbiw	r28, 0x0c	; 12
    2c1a:	0f b6       	in	r0, 0x3f	; 63
    2c1c:	f8 94       	cli
    2c1e:	de bf       	out	0x3e, r29	; 62
    2c20:	0f be       	out	0x3f, r0	; 63
    2c22:	cd bf       	out	0x3d, r28	; 61
    2c24:	4c 01       	movw	r8, r24
	char status;
	short cont=0;
	char pendenciaValida;
	if((*tecla) == KEY_1){
    2c26:	fc 01       	movw	r30, r24
    2c28:	80 81       	ld	r24, Z
    2c2a:	81 11       	cpse	r24, r1
    2c2c:	7f c0       	rjmp	.+254    	; 0x2d2c <modoADM+0x12e>
		//mudar hora
		(*tecla) = TECLA_INVALIDA;
    2c2e:	89 e1       	ldi	r24, 0x19	; 25
    2c30:	80 83       	st	Z, r24
		char dia[2],mes[2],ano[2],hora[2],min[2],seg[2],result;
		tela_dataAtual();
    2c32:	0e 94 08 0c 	call	0x1810	; 0x1810 <tela_dataAtual>
		flagRELOGIO=1;
    2c36:	81 e0       	ldi	r24, 0x01	; 1
    2c38:	80 93 92 06 	sts	0x0692, r24	; 0x800692 <flagRELOGIO>

static char statusOperadores[] = {1,1}; //dois operadores comeam habilitados

void modoADM(char *tecla){
	char status;
	short cont=0;
    2c3c:	a1 2c       	mov	r10, r1
    2c3e:	b1 2c       	mov	r11, r1
		//mudar hora
		(*tecla) = TECLA_INVALIDA;
		char dia[2],mes[2],ano[2],hora[2],min[2],seg[2],result;
		tela_dataAtual();
		flagRELOGIO=1;
		while((*tecla)!= KEY_APAGAR){
    2c40:	6f c0       	rjmp	.+222    	; 0x2d20 <modoADM+0x122>
			*tecla = teclaDebouce();
    2c42:	0e 94 76 05 	call	0xaec	; 0xaec <teclaDebouce>
    2c46:	f4 01       	movw	r30, r8
    2c48:	80 83       	st	Z, r24
			if ((*tecla)== KEY_APAGAR) {
    2c4a:	89 30       	cpi	r24, 0x09	; 9
    2c4c:	19 f4       	brne	.+6      	; 0x2c54 <modoADM+0x56>
				flagRELOGIO = 0;
    2c4e:	10 92 92 06 	sts	0x0692, r1	; 0x800692 <flagRELOGIO>
    2c52:	66 c0       	rjmp	.+204    	; 0x2d20 <modoADM+0x122>
			}
			else if((*tecla)== KEY_CONFIRMA){
    2c54:	8b 30       	cpi	r24, 0x0B	; 11
    2c56:	09 f0       	breq	.+2      	; 0x2c5a <modoADM+0x5c>
    2c58:	63 c0       	rjmp	.+198    	; 0x2d20 <modoADM+0x122>
				flagRELOGIO=0;
    2c5a:	10 92 92 06 	sts	0x0692, r1	; 0x800692 <flagRELOGIO>
				while(cont <2 && cont != -1){
    2c5e:	54 c0       	rjmp	.+168    	; 0x2d08 <modoADM+0x10a>
					tela_instrucoes_configDiaMesAno();
    2c60:	0e 94 b6 0a 	call	0x156c	; 0x156c <tela_instrucoes_configDiaMesAno>
					status = getDiaMesAno(dia,mes,ano); //preenche dia mes e ano
    2c64:	ae 01       	movw	r20, r28
    2c66:	49 5f       	subi	r20, 0xF9	; 249
    2c68:	5f 4f       	sbci	r21, 0xFF	; 255
    2c6a:	be 01       	movw	r22, r28
    2c6c:	67 5f       	subi	r22, 0xF7	; 247
    2c6e:	7f 4f       	sbci	r23, 0xFF	; 255
    2c70:	ce 01       	movw	r24, r28
    2c72:	0b 96       	adiw	r24, 0x0b	; 11
    2c74:	0e 94 fb 0f 	call	0x1ff6	; 0x1ff6 <getDiaMesAno>
    2c78:	d8 2e       	mov	r13, r24
					result=0;
					if (status){
    2c7a:	88 23       	and	r24, r24
    2c7c:	29 f1       	breq	.+74     	; 0x2cc8 <modoADM+0xca>
						cont ++;
    2c7e:	ff ef       	ldi	r31, 0xFF	; 255
    2c80:	af 1a       	sub	r10, r31
    2c82:	bf 0a       	sbc	r11, r31
						tela_instrucoes_configHoraMinSeg();
    2c84:	0e 94 e2 0a 	call	0x15c4	; 0x15c4 <tela_instrucoes_configHoraMinSeg>
						status = getHoraMinSeg(hora,min,seg);//preenche hora min e seg
    2c88:	ae 01       	movw	r20, r28
    2c8a:	4f 5f       	subi	r20, 0xFF	; 255
    2c8c:	5f 4f       	sbci	r21, 0xFF	; 255
    2c8e:	be 01       	movw	r22, r28
    2c90:	6d 5f       	subi	r22, 0xFD	; 253
    2c92:	7f 4f       	sbci	r23, 0xFF	; 255
    2c94:	ce 01       	movw	r24, r28
    2c96:	05 96       	adiw	r24, 0x05	; 5
    2c98:	0e 94 f4 10 	call	0x21e8	; 0x21e8 <getHoraMinSeg>
    2c9c:	d8 2e       	mov	r13, r24
						if (status)result = changeDate(dia,mes,ano,hora,min,seg); //faz o update
    2c9e:	88 23       	and	r24, r24
    2ca0:	c1 f0       	breq	.+48     	; 0x2cd2 <modoADM+0xd4>
    2ca2:	ce 01       	movw	r24, r28
    2ca4:	01 96       	adiw	r24, 0x01	; 1
    2ca6:	7c 01       	movw	r14, r24
    2ca8:	8e 01       	movw	r16, r28
    2caa:	0d 5f       	subi	r16, 0xFD	; 253
    2cac:	1f 4f       	sbci	r17, 0xFF	; 255
    2cae:	9e 01       	movw	r18, r28
    2cb0:	2b 5f       	subi	r18, 0xFB	; 251
    2cb2:	3f 4f       	sbci	r19, 0xFF	; 255
    2cb4:	ae 01       	movw	r20, r28
    2cb6:	49 5f       	subi	r20, 0xF9	; 249
    2cb8:	5f 4f       	sbci	r21, 0xFF	; 255
    2cba:	be 01       	movw	r22, r28
    2cbc:	67 5f       	subi	r22, 0xF7	; 247
    2cbe:	7f 4f       	sbci	r23, 0xFF	; 255
    2cc0:	0a 96       	adiw	r24, 0x0a	; 10
    2cc2:	0e 94 86 00 	call	0x10c	; 0x10c <changeDate>
    2cc6:	06 c0       	rjmp	.+12     	; 0x2cd4 <modoADM+0xd6>
			else if((*tecla)== KEY_CONFIRMA){
				flagRELOGIO=0;
				while(cont <2 && cont != -1){
					tela_instrucoes_configDiaMesAno();
					status = getDiaMesAno(dia,mes,ano); //preenche dia mes e ano
					result=0;
    2cc8:	80 e0       	ldi	r24, 0x00	; 0
						cont ++;
						tela_instrucoes_configHoraMinSeg();
						status = getHoraMinSeg(hora,min,seg);//preenche hora min e seg
						if (status)result = changeDate(dia,mes,ano,hora,min,seg); //faz o update
					}
					else cont = -1;
    2cca:	aa 24       	eor	r10, r10
    2ccc:	aa 94       	dec	r10
    2cce:	ba 2c       	mov	r11, r10
    2cd0:	01 c0       	rjmp	.+2      	; 0x2cd4 <modoADM+0xd6>
			else if((*tecla)== KEY_CONFIRMA){
				flagRELOGIO=0;
				while(cont <2 && cont != -1){
					tela_instrucoes_configDiaMesAno();
					status = getDiaMesAno(dia,mes,ano); //preenche dia mes e ano
					result=0;
    2cd2:	80 e0       	ldi	r24, 0x00	; 0
						tela_instrucoes_configHoraMinSeg();
						status = getHoraMinSeg(hora,min,seg);//preenche hora min e seg
						if (status)result = changeDate(dia,mes,ano,hora,min,seg); //faz o update
					}
					else cont = -1;
					if(result && status) {//informa se update foi valido
    2cd4:	88 23       	and	r24, r24
    2cd6:	41 f0       	breq	.+16     	; 0x2ce8 <modoADM+0xea>
    2cd8:	dd 20       	and	r13, r13
    2cda:	31 f0       	breq	.+12     	; 0x2ce8 <modoADM+0xea>
						cont=-1;
						tela_operacaoConcluida();
    2cdc:	0e 94 0e 0b 	call	0x161c	; 0x161c <tela_operacaoConcluida>
						status = getHoraMinSeg(hora,min,seg);//preenche hora min e seg
						if (status)result = changeDate(dia,mes,ano,hora,min,seg); //faz o update
					}
					else cont = -1;
					if(result && status) {//informa se update foi valido
						cont=-1;
    2ce0:	aa 24       	eor	r10, r10
    2ce2:	aa 94       	dec	r10
    2ce4:	ba 2c       	mov	r11, r10
						tela_operacaoConcluida();
    2ce6:	0d c0       	rjmp	.+26     	; 0x2d02 <modoADM+0x104>
					}
					else if(status)
    2ce8:	dd 20       	and	r13, r13
    2cea:	19 f0       	breq	.+6      	; 0x2cf2 <modoADM+0xf4>
					tela_dataInvalida();
    2cec:	0e 94 29 0b 	call	0x1652	; 0x1652 <tela_dataInvalida>
    2cf0:	08 c0       	rjmp	.+16     	; 0x2d02 <modoADM+0x104>
					else if (!status && cont !=-1)cont=0;
    2cf2:	d1 10       	cpse	r13, r1
    2cf4:	06 c0       	rjmp	.+12     	; 0x2d02 <modoADM+0x104>
    2cf6:	9f ef       	ldi	r25, 0xFF	; 255
    2cf8:	a9 16       	cp	r10, r25
    2cfa:	b9 06       	cpc	r11, r25
    2cfc:	11 f0       	breq	.+4      	; 0x2d02 <modoADM+0x104>
    2cfe:	a1 2c       	mov	r10, r1
    2d00:	b1 2c       	mov	r11, r1
					*tecla = TECLA_INVALIDA;
    2d02:	89 e1       	ldi	r24, 0x19	; 25
    2d04:	f4 01       	movw	r30, r8
    2d06:	80 83       	st	Z, r24
			if ((*tecla)== KEY_APAGAR) {
				flagRELOGIO = 0;
			}
			else if((*tecla)== KEY_CONFIRMA){
				flagRELOGIO=0;
				while(cont <2 && cont != -1){
    2d08:	f2 e0       	ldi	r31, 0x02	; 2
    2d0a:	af 16       	cp	r10, r31
    2d0c:	b1 04       	cpc	r11, r1
    2d0e:	2c f4       	brge	.+10     	; 0x2d1a <modoADM+0x11c>
    2d10:	2f ef       	ldi	r18, 0xFF	; 255
    2d12:	a2 16       	cp	r10, r18
    2d14:	b2 06       	cpc	r11, r18
    2d16:	09 f0       	breq	.+2      	; 0x2d1a <modoADM+0x11c>
    2d18:	a3 cf       	rjmp	.-186    	; 0x2c60 <modoADM+0x62>
					else if(status)
					tela_dataInvalida();
					else if (!status && cont !=-1)cont=0;
					*tecla = TECLA_INVALIDA;
				}
				*tecla = KEY_APAGAR;
    2d1a:	89 e0       	ldi	r24, 0x09	; 9
    2d1c:	f4 01       	movw	r30, r8
    2d1e:	80 83       	st	Z, r24
		//mudar hora
		(*tecla) = TECLA_INVALIDA;
		char dia[2],mes[2],ano[2],hora[2],min[2],seg[2],result;
		tela_dataAtual();
		flagRELOGIO=1;
		while((*tecla)!= KEY_APAGAR){
    2d20:	f4 01       	movw	r30, r8
    2d22:	80 81       	ld	r24, Z
    2d24:	89 30       	cpi	r24, 0x09	; 9
    2d26:	09 f0       	breq	.+2      	; 0x2d2a <modoADM+0x12c>
    2d28:	8c cf       	rjmp	.-232    	; 0x2c42 <modoADM+0x44>
    2d2a:	64 c0       	rjmp	.+200    	; 0x2df4 <modoADM+0x1f6>
				}
				*tecla = KEY_APAGAR;
			}
		}
	
	}else if((*tecla) == KEY_2){
    2d2c:	81 30       	cpi	r24, 0x01	; 1
    2d2e:	99 f4       	brne	.+38     	; 0x2d56 <modoADM+0x158>
		//ver pendencia
		if(existePendencia()){
    2d30:	0e 94 a9 14 	call	0x2952	; 0x2952 <existePendencia>
    2d34:	88 23       	and	r24, r24
    2d36:	61 f0       	breq	.+24     	; 0x2d50 <modoADM+0x152>
			tela_infos_printPend();
    2d38:	0e 94 ed 0b 	call	0x17da	; 0x17da <tela_infos_printPend>
			printPendencias(1);
    2d3c:	81 e0       	ldi	r24, 0x01	; 1
    2d3e:	0e 94 77 15 	call	0x2aee	; 0x2aee <printPendencias>
			printPendencias(2); //se no tiver mais pendencias ele no faz nada
    2d42:	82 e0       	ldi	r24, 0x02	; 2
    2d44:	0e 94 77 15 	call	0x2aee	; 0x2aee <printPendencias>
			printPendencias(3);
    2d48:	83 e0       	ldi	r24, 0x03	; 3
    2d4a:	0e 94 77 15 	call	0x2aee	; 0x2aee <printPendencias>
    2d4e:	52 c0       	rjmp	.+164    	; 0x2df4 <modoADM+0x1f6>
		}else
			tela_semPendencias();
    2d50:	0e 94 66 0b 	call	0x16cc	; 0x16cc <tela_semPendencias>
    2d54:	4f c0       	rjmp	.+158    	; 0x2df4 <modoADM+0x1f6>
		
	}else if((*tecla) == KEY_3){
    2d56:	82 30       	cpi	r24, 0x02	; 2
    2d58:	51 f5       	brne	.+84     	; 0x2dae <modoADM+0x1b0>
		//hab/deshabilitar operadore
		tela_instrucoes_configOper();
    2d5a:	0e 94 72 0a 	call	0x14e4	; 0x14e4 <tela_instrucoes_configOper>
		tela_status_oper();
    2d5e:	0e 94 cc 0f 	call	0x1f98	; 0x1f98 <tela_status_oper>
		(*tecla) = TECLA_INVALIDA;
    2d62:	89 e1       	ldi	r24, 0x19	; 25
    2d64:	f4 01       	movw	r30, r8
    2d66:	80 83       	st	Z, r24
		while ((*tecla) == TECLA_INVALIDA){
    2d68:	04 c0       	rjmp	.+8      	; 0x2d72 <modoADM+0x174>
			(*tecla) = teclaDebouce();
    2d6a:	0e 94 76 05 	call	0xaec	; 0xaec <teclaDebouce>
    2d6e:	f4 01       	movw	r30, r8
    2d70:	80 83       	st	Z, r24
	}else if((*tecla) == KEY_3){
		//hab/deshabilitar operadore
		tela_instrucoes_configOper();
		tela_status_oper();
		(*tecla) = TECLA_INVALIDA;
		while ((*tecla) == TECLA_INVALIDA){
    2d72:	f4 01       	movw	r30, r8
    2d74:	80 81       	ld	r24, Z
    2d76:	89 31       	cpi	r24, 0x19	; 25
    2d78:	c1 f3       	breq	.-16     	; 0x2d6a <modoADM+0x16c>
			(*tecla) = teclaDebouce();
		}
		
		if((*tecla) == KEY_1 || (*tecla) == KEY_2 ) 
    2d7a:	82 30       	cpi	r24, 0x02	; 2
    2d7c:	20 f4       	brcc	.+8      	; 0x2d86 <modoADM+0x188>
			mudarStatusOper(tecla); //passando o endereo de tecla(teclaG da main), no o valor
    2d7e:	c4 01       	movw	r24, r8
    2d80:	0e 94 b6 0f 	call	0x1f6c	; 0x1f6c <mudarStatusOper>
    2d84:	10 c0       	rjmp	.+32     	; 0x2da6 <modoADM+0x1a8>
		else{
			writeInstruction(lcd_Clear | lcd_Home);
    2d86:	83 e0       	ldi	r24, 0x03	; 3
    2d88:	0e 94 43 06 	call	0xc86	; 0xc86 <writeInstruction>
			writeString("Opcao Invalida");	
    2d8c:	84 e8       	ldi	r24, 0x84	; 132
    2d8e:	95 e0       	ldi	r25, 0x05	; 5
    2d90:	0e 94 1a 06 	call	0xc34	; 0xc34 <writeString>
    2d94:	ff ef       	ldi	r31, 0xFF	; 255
    2d96:	23 ed       	ldi	r18, 0xD3	; 211
    2d98:	80 e3       	ldi	r24, 0x30	; 48
    2d9a:	f1 50       	subi	r31, 0x01	; 1
    2d9c:	20 40       	sbci	r18, 0x00	; 0
    2d9e:	80 40       	sbci	r24, 0x00	; 0
    2da0:	e1 f7       	brne	.-8      	; 0x2d9a <modoADM+0x19c>
    2da2:	00 c0       	rjmp	.+0      	; 0x2da4 <modoADM+0x1a6>
    2da4:	00 00       	nop
			_delay_ms(1000);	
		}
		(*tecla) = TECLA_INVALIDA;
    2da6:	89 e1       	ldi	r24, 0x19	; 25
    2da8:	f4 01       	movw	r30, r8
    2daa:	80 83       	st	Z, r24
    2dac:	23 c0       	rjmp	.+70     	; 0x2df4 <modoADM+0x1f6>
	}else if((*tecla) == KEY_4){
    2dae:	83 30       	cpi	r24, 0x03	; 3
    2db0:	09 f5       	brne	.+66     	; 0x2df4 <modoADM+0x1f6>
		//remover pendencia
		if(existePendencia()){
    2db2:	0e 94 a9 14 	call	0x2952	; 0x2952 <existePendencia>
    2db6:	88 23       	and	r24, r24
    2db8:	c1 f0       	breq	.+48     	; 0x2dea <modoADM+0x1ec>
			tela_instrucoes_remPendencia();
    2dba:	0e 94 d2 0b 	call	0x17a4	; 0x17a4 <tela_instrucoes_remPendencia>
			(*tecla) = TECLA_INVALIDA;
    2dbe:	89 e1       	ldi	r24, 0x19	; 25
    2dc0:	f4 01       	movw	r30, r8
    2dc2:	80 83       	st	Z, r24
			while((*tecla) == TECLA_INVALIDA){
    2dc4:	04 c0       	rjmp	.+8      	; 0x2dce <modoADM+0x1d0>
				(*tecla) = teclaDebouce();
    2dc6:	0e 94 76 05 	call	0xaec	; 0xaec <teclaDebouce>
    2dca:	f4 01       	movw	r30, r8
    2dcc:	80 83       	st	Z, r24
	}else if((*tecla) == KEY_4){
		//remover pendencia
		if(existePendencia()){
			tela_instrucoes_remPendencia();
			(*tecla) = TECLA_INVALIDA;
			while((*tecla) == TECLA_INVALIDA){
    2dce:	f4 01       	movw	r30, r8
    2dd0:	80 81       	ld	r24, Z
    2dd2:	89 31       	cpi	r24, 0x19	; 25
    2dd4:	c1 f3       	breq	.-16     	; 0x2dc6 <modoADM+0x1c8>
				(*tecla) = teclaDebouce();
				}
			pendenciaValida = removePendencias(*tecla);
    2dd6:	0e 94 b4 14 	call	0x2968	; 0x2968 <removePendencias>
			if(pendenciaValida)
    2dda:	88 23       	and	r24, r24
    2ddc:	19 f0       	breq	.+6      	; 0x2de4 <modoADM+0x1e6>
				tela_operacaoConcluida();
    2dde:	0e 94 0e 0b 	call	0x161c	; 0x161c <tela_operacaoConcluida>
    2de2:	05 c0       	rjmp	.+10     	; 0x2dee <modoADM+0x1f0>
			else
				tela_opcaoInvalida();
    2de4:	0e 94 81 0b 	call	0x1702	; 0x1702 <tela_opcaoInvalida>
    2de8:	02 c0       	rjmp	.+4      	; 0x2dee <modoADM+0x1f0>
		}else
			tela_semPendencias();
    2dea:	0e 94 66 0b 	call	0x16cc	; 0x16cc <tela_semPendencias>
		*tecla = TECLA_INVALIDA;
    2dee:	89 e1       	ldi	r24, 0x19	; 25
    2df0:	f4 01       	movw	r30, r8
    2df2:	80 83       	st	Z, r24
	}
	*tecla = TECLA_INVALIDA;
    2df4:	89 e1       	ldi	r24, 0x19	; 25
    2df6:	f4 01       	movw	r30, r8
    2df8:	80 83       	st	Z, r24
}
    2dfa:	2c 96       	adiw	r28, 0x0c	; 12
    2dfc:	0f b6       	in	r0, 0x3f	; 63
    2dfe:	f8 94       	cli
    2e00:	de bf       	out	0x3e, r29	; 62
    2e02:	0f be       	out	0x3f, r0	; 63
    2e04:	cd bf       	out	0x3d, r28	; 61
    2e06:	df 91       	pop	r29
    2e08:	cf 91       	pop	r28
    2e0a:	1f 91       	pop	r17
    2e0c:	0f 91       	pop	r16
    2e0e:	ff 90       	pop	r15
    2e10:	ef 90       	pop	r14
    2e12:	df 90       	pop	r13
    2e14:	bf 90       	pop	r11
    2e16:	af 90       	pop	r10
    2e18:	9f 90       	pop	r9
    2e1a:	8f 90       	pop	r8
    2e1c:	08 95       	ret

00002e1e <enviarPedidoSerial>:
		removePagamentoAgendado(cartao);
		tela_operacaoConcluida();
	}
}

char enviarPedidoSerial(char pedido[]){
    2e1e:	0f 93       	push	r16
    2e20:	1f 93       	push	r17
    2e22:	cf 93       	push	r28
    2e24:	df 93       	push	r29
    2e26:	8c 01       	movw	r16, r24
	short i;
	tela_cobrarPagAgendado();
    2e28:	0e 94 9c 0b 	call	0x1738	; 0x1738 <tela_cobrarPagAgendado>
	tela_AguardandoPagAgendado();
    2e2c:	0e 94 b7 0b 	call	0x176e	; 0x176e <tela_AguardandoPagAgendado>
	
	for(i=0;i<13;i++)
    2e30:	c0 e0       	ldi	r28, 0x00	; 0
    2e32:	d0 e0       	ldi	r29, 0x00	; 0
    2e34:	07 c0       	rjmp	.+14     	; 0x2e44 <enviarPedidoSerial+0x26>
		USART_envia(pedido[i]);
    2e36:	f8 01       	movw	r30, r16
    2e38:	ec 0f       	add	r30, r28
    2e3a:	fd 1f       	adc	r31, r29
    2e3c:	80 81       	ld	r24, Z
    2e3e:	0e 94 c2 05 	call	0xb84	; 0xb84 <USART_envia>
char enviarPedidoSerial(char pedido[]){
	short i;
	tela_cobrarPagAgendado();
	tela_AguardandoPagAgendado();
	
	for(i=0;i<13;i++)
    2e42:	21 96       	adiw	r28, 0x01	; 1
    2e44:	cd 30       	cpi	r28, 0x0D	; 13
    2e46:	d1 05       	cpc	r29, r1
    2e48:	b4 f3       	brlt	.-20     	; 0x2e36 <enviarPedidoSerial+0x18>
		USART_envia(pedido[i]);
	
	if(USART_recebe() == 0x4f ){
    2e4a:	0e 94 4d 0c 	call	0x189a	; 0x189a <USART_recebe>
    2e4e:	8f 34       	cpi	r24, 0x4F	; 79
    2e50:	21 f4       	brne	.+8      	; 0x2e5a <enviarPedidoSerial+0x3c>
		tela_OK();
    2e52:	0e 94 a6 07 	call	0xf4c	; 0xf4c <tela_OK>
		return 1;
    2e56:	81 e0       	ldi	r24, 0x01	; 1
    2e58:	01 c0       	rjmp	.+2      	; 0x2e5c <enviarPedidoSerial+0x3e>
	}else
		return 0;
    2e5a:	80 e0       	ldi	r24, 0x00	; 0
}
    2e5c:	df 91       	pop	r29
    2e5e:	cf 91       	pop	r28
    2e60:	1f 91       	pop	r17
    2e62:	0f 91       	pop	r16
    2e64:	08 95       	ret

00002e66 <enviarPedidoDePagamento>:
			}
		cobrar = -1;
		}
}
	
void enviarPedidoDePagamento(short cobrar){
    2e66:	cf 93       	push	r28
    2e68:	df 93       	push	r29
    2e6a:	cd b7       	in	r28, 0x3d	; 61
    2e6c:	de b7       	in	r29, 0x3e	; 62
    2e6e:	63 97       	sbiw	r28, 0x13	; 19
    2e70:	0f b6       	in	r0, 0x3f	; 63
    2e72:	f8 94       	cli
    2e74:	de bf       	out	0x3e, r29	; 62
    2e76:	0f be       	out	0x3f, r0	; 63
    2e78:	cd bf       	out	0x3d, r28	; 61
	char cartao[NUMDIGITOSCARTOES];
	char pedido[13], resultado;
	short i;
	
	for(i=0;i<NUMDIGITOSCARTOES;i++){ //pega num do cartao e prepara o pedido
    2e7a:	20 e0       	ldi	r18, 0x00	; 0
    2e7c:	30 e0       	ldi	r19, 0x00	; 0
    2e7e:	1f c0       	rjmp	.+62     	; 0x2ebe <enviarPedidoDePagamento+0x58>
		cartao[i] = cartoesA[cobrar][i];
    2e80:	fc 01       	movw	r30, r24
    2e82:	ee 0f       	add	r30, r30
    2e84:	ff 1f       	adc	r31, r31
    2e86:	e8 0f       	add	r30, r24
    2e88:	f9 1f       	adc	r31, r25
    2e8a:	ee 0f       	add	r30, r30
    2e8c:	ff 1f       	adc	r31, r31
    2e8e:	e0 5f       	subi	r30, 0xF0	; 240
    2e90:	f9 4f       	sbci	r31, 0xF9	; 249
    2e92:	e2 0f       	add	r30, r18
    2e94:	f3 1f       	adc	r31, r19
    2e96:	40 81       	ld	r20, Z
    2e98:	e1 e0       	ldi	r30, 0x01	; 1
    2e9a:	f0 e0       	ldi	r31, 0x00	; 0
    2e9c:	ec 0f       	add	r30, r28
    2e9e:	fd 1f       	adc	r31, r29
    2ea0:	e2 0f       	add	r30, r18
    2ea2:	f3 1f       	adc	r31, r19
    2ea4:	40 83       	st	Z, r20
		pedido[i+2] = cartao[i]+48;
    2ea6:	f9 01       	movw	r30, r18
    2ea8:	32 96       	adiw	r30, 0x02	; 2
    2eaa:	67 e0       	ldi	r22, 0x07	; 7
    2eac:	70 e0       	ldi	r23, 0x00	; 0
    2eae:	6c 0f       	add	r22, r28
    2eb0:	7d 1f       	adc	r23, r29
    2eb2:	e6 0f       	add	r30, r22
    2eb4:	f7 1f       	adc	r31, r23
    2eb6:	40 5d       	subi	r20, 0xD0	; 208
    2eb8:	40 83       	st	Z, r20
void enviarPedidoDePagamento(short cobrar){
	char cartao[NUMDIGITOSCARTOES];
	char pedido[13], resultado;
	short i;
	
	for(i=0;i<NUMDIGITOSCARTOES;i++){ //pega num do cartao e prepara o pedido
    2eba:	2f 5f       	subi	r18, 0xFF	; 255
    2ebc:	3f 4f       	sbci	r19, 0xFF	; 255
    2ebe:	26 30       	cpi	r18, 0x06	; 6
    2ec0:	31 05       	cpc	r19, r1
    2ec2:	f4 f2       	brlt	.-68     	; 0x2e80 <enviarPedidoDePagamento+0x1a>
    2ec4:	20 e0       	ldi	r18, 0x00	; 0
    2ec6:	30 e0       	ldi	r19, 0x00	; 0
    2ec8:	1a c0       	rjmp	.+52     	; 0x2efe <enviarPedidoDePagamento+0x98>
		cartao[i] = cartoesA[cobrar][i];
		pedido[i+2] = cartao[i]+48;
	}
	
	for(i=0;i<NUMDIGITOSVALORES;i++){ //prepara o pedido
		pedido[i+8] = valParcelaA[cobrar][i]+48;
    2eca:	a9 01       	movw	r20, r18
    2ecc:	48 5f       	subi	r20, 0xF8	; 248
    2ece:	5f 4f       	sbci	r21, 0xFF	; 255
    2ed0:	fc 01       	movw	r30, r24
    2ed2:	ee 0f       	add	r30, r30
    2ed4:	ff 1f       	adc	r31, r31
    2ed6:	ee 0f       	add	r30, r30
    2ed8:	ff 1f       	adc	r31, r31
    2eda:	e8 0f       	add	r30, r24
    2edc:	f9 1f       	adc	r31, r25
    2ede:	ee 50       	subi	r30, 0x0E	; 14
    2ee0:	fa 4f       	sbci	r31, 0xFA	; 250
    2ee2:	e2 0f       	add	r30, r18
    2ee4:	f3 1f       	adc	r31, r19
    2ee6:	60 81       	ld	r22, Z
    2ee8:	e7 e0       	ldi	r30, 0x07	; 7
    2eea:	f0 e0       	ldi	r31, 0x00	; 0
    2eec:	ec 0f       	add	r30, r28
    2eee:	fd 1f       	adc	r31, r29
    2ef0:	e4 0f       	add	r30, r20
    2ef2:	f5 1f       	adc	r31, r21
    2ef4:	40 e3       	ldi	r20, 0x30	; 48
    2ef6:	46 0f       	add	r20, r22
    2ef8:	40 83       	st	Z, r20
	for(i=0;i<NUMDIGITOSCARTOES;i++){ //pega num do cartao e prepara o pedido
		cartao[i] = cartoesA[cobrar][i];
		pedido[i+2] = cartao[i]+48;
	}
	
	for(i=0;i<NUMDIGITOSVALORES;i++){ //prepara o pedido
    2efa:	2f 5f       	subi	r18, 0xFF	; 255
    2efc:	3f 4f       	sbci	r19, 0xFF	; 255
    2efe:	25 30       	cpi	r18, 0x05	; 5
    2f00:	31 05       	cpc	r19, r1
    2f02:	1c f3       	brlt	.-58     	; 0x2eca <enviarPedidoDePagamento+0x64>
		pedido[i+8] = valParcelaA[cobrar][i]+48;
	}
		
	pedido[0] = 'A'; // finaliza o pedido
    2f04:	81 e4       	ldi	r24, 0x41	; 65
    2f06:	8f 83       	std	Y+7, r24	; 0x07
	pedido[1] = 'P';
    2f08:	80 e5       	ldi	r24, 0x50	; 80
    2f0a:	88 87       	std	Y+8, r24	; 0x08
	pedido[12] = '\r';
    2f0c:	8d e0       	ldi	r24, 0x0D	; 13
    2f0e:	8b 8b       	std	Y+19, r24	; 0x13
	
	//falar com vini sobre serial, perguntar tb sobre numeros em vendas estarem invertidos
	resultado = enviarPedidoSerial(pedido);
    2f10:	ce 01       	movw	r24, r28
    2f12:	07 96       	adiw	r24, 0x07	; 7
    2f14:	0e 94 0f 17 	call	0x2e1e	; 0x2e1e <enviarPedidoSerial>
	
	if(resultado){
    2f18:	88 23       	and	r24, r24
    2f1a:	31 f0       	breq	.+12     	; 0x2f28 <enviarPedidoDePagamento+0xc2>
		removePagamentoAgendado(cartao);
    2f1c:	ce 01       	movw	r24, r28
    2f1e:	01 96       	adiw	r24, 0x01	; 1
    2f20:	0e 94 53 14 	call	0x28a6	; 0x28a6 <removePagamentoAgendado>
		tela_operacaoConcluida();
    2f24:	0e 94 0e 0b 	call	0x161c	; 0x161c <tela_operacaoConcluida>
	}
}
    2f28:	63 96       	adiw	r28, 0x13	; 19
    2f2a:	0f b6       	in	r0, 0x3f	; 63
    2f2c:	f8 94       	cli
    2f2e:	de bf       	out	0x3e, r29	; 62
    2f30:	0f be       	out	0x3f, r0	; 63
    2f32:	cd bf       	out	0x3d, r28	; 61
    2f34:	df 91       	pop	r29
    2f36:	cf 91       	pop	r28
    2f38:	08 95       	ret

00002f3a <cobrarPagementosAgendados>:
		writeCharacter(valParcelaP[num][i]+48);
	writeString(" -");
	writeCharacter(num+49);
}

void cobrarPagementosAgendados(){
    2f3a:	0f 93       	push	r16
    2f3c:	1f 93       	push	r17
    2f3e:	cf 93       	push	r28
    2f40:	df 93       	push	r29
    2f42:	00 d0       	rcall	.+0      	; 0x2f44 <cobrarPagementosAgendados+0xa>
    2f44:	00 d0       	rcall	.+0      	; 0x2f46 <cobrarPagementosAgendados+0xc>
    2f46:	00 d0       	rcall	.+0      	; 0x2f48 <cobrarPagementosAgendados+0xe>
    2f48:	cd b7       	in	r28, 0x3d	; 61
    2f4a:	de b7       	in	r29, 0x3e	; 62
	char diaAtual[2],mesAtual[2],anoAtual[2];
	short i, cobrar=-1;
	
	//pego as infos da data atual
	AtualizaStringDataHora();
    2f4c:	0e 94 6a 02 	call	0x4d4	; 0x4d4 <AtualizaStringDataHora>
	for(i=0;i<2;i++){
    2f50:	80 e0       	ldi	r24, 0x00	; 0
    2f52:	90 e0       	ldi	r25, 0x00	; 0
    2f54:	25 c0       	rjmp	.+74     	; 0x2fa0 <cobrarPagementosAgendados+0x66>
		diaAtual[i]=stringDATA[i]-48;
    2f56:	fc 01       	movw	r30, r24
    2f58:	ef 55       	subi	r30, 0x5F	; 95
    2f5a:	f9 4f       	sbci	r31, 0xF9	; 249
    2f5c:	20 81       	ld	r18, Z
    2f5e:	e1 e0       	ldi	r30, 0x01	; 1
    2f60:	f0 e0       	ldi	r31, 0x00	; 0
    2f62:	ec 0f       	add	r30, r28
    2f64:	fd 1f       	adc	r31, r29
    2f66:	e8 0f       	add	r30, r24
    2f68:	f9 1f       	adc	r31, r25
    2f6a:	20 53       	subi	r18, 0x30	; 48
    2f6c:	20 83       	st	Z, r18
		mesAtual[i]=stringDATA[i+3]-48;
    2f6e:	fc 01       	movw	r30, r24
    2f70:	ec 55       	subi	r30, 0x5C	; 92
    2f72:	f9 4f       	sbci	r31, 0xF9	; 249
    2f74:	20 81       	ld	r18, Z
    2f76:	e3 e0       	ldi	r30, 0x03	; 3
    2f78:	f0 e0       	ldi	r31, 0x00	; 0
    2f7a:	ec 0f       	add	r30, r28
    2f7c:	fd 1f       	adc	r31, r29
    2f7e:	e8 0f       	add	r30, r24
    2f80:	f9 1f       	adc	r31, r25
    2f82:	20 53       	subi	r18, 0x30	; 48
    2f84:	20 83       	st	Z, r18
		anoAtual[i]=stringDATA[i+6]-48;
    2f86:	fc 01       	movw	r30, r24
    2f88:	e9 55       	subi	r30, 0x59	; 89
    2f8a:	f9 4f       	sbci	r31, 0xF9	; 249
    2f8c:	20 81       	ld	r18, Z
    2f8e:	e5 e0       	ldi	r30, 0x05	; 5
    2f90:	f0 e0       	ldi	r31, 0x00	; 0
    2f92:	ec 0f       	add	r30, r28
    2f94:	fd 1f       	adc	r31, r29
    2f96:	e8 0f       	add	r30, r24
    2f98:	f9 1f       	adc	r31, r25
    2f9a:	20 53       	subi	r18, 0x30	; 48
    2f9c:	20 83       	st	Z, r18
	char diaAtual[2],mesAtual[2],anoAtual[2];
	short i, cobrar=-1;
	
	//pego as infos da data atual
	AtualizaStringDataHora();
	for(i=0;i<2;i++){
    2f9e:	01 96       	adiw	r24, 0x01	; 1
    2fa0:	82 30       	cpi	r24, 0x02	; 2
    2fa2:	91 05       	cpc	r25, r1
    2fa4:	c4 f2       	brlt	.-80     	; 0x2f56 <cobrarPagementosAgendados+0x1c>
    2fa6:	00 e0       	ldi	r16, 0x00	; 0
    2fa8:	10 e0       	ldi	r17, 0x00	; 0
    2faa:	d9 c0       	rjmp	.+434    	; 0x315e <cobrarPagementosAgendados+0x224>
	}
	//012345 67891011 
	//ddmmaa|ddmma a
	//comparar com primeira coluna de datasVenc 
	for(i=0;i<numPagsAgendados;i++){
		if(datasVenc[i][0] != PARCELAPAGA_OUPENDENTE) //verifica a primeira data
    2fac:	f8 01       	movw	r30, r16
    2fae:	ee 0f       	add	r30, r30
    2fb0:	ff 1f       	adc	r31, r31
    2fb2:	e0 0f       	add	r30, r16
    2fb4:	f1 1f       	adc	r31, r17
    2fb6:	ee 0f       	add	r30, r30
    2fb8:	ff 1f       	adc	r31, r31
    2fba:	ee 0f       	add	r30, r30
    2fbc:	ff 1f       	adc	r31, r31
    2fbe:	e6 55       	subi	r30, 0x56	; 86
    2fc0:	fa 4f       	sbci	r31, 0xFA	; 250
    2fc2:	80 81       	ld	r24, Z
    2fc4:	88 30       	cpi	r24, 0x08	; 8
    2fc6:	09 f4       	brne	.+2      	; 0x2fca <cobrarPagementosAgendados+0x90>
    2fc8:	51 c0       	rjmp	.+162    	; 0x306c <cobrarPagementosAgendados+0x132>
			if(datasVenc[i][0]==diaAtual[0] && datasVenc[i][1]==diaAtual[1] && 
    2fca:	99 81       	ldd	r25, Y+1	; 0x01
    2fcc:	89 13       	cpse	r24, r25
    2fce:	51 c0       	rjmp	.+162    	; 0x3072 <cobrarPagementosAgendados+0x138>
    2fd0:	f8 01       	movw	r30, r16
    2fd2:	ee 0f       	add	r30, r30
    2fd4:	ff 1f       	adc	r31, r31
    2fd6:	e0 0f       	add	r30, r16
    2fd8:	f1 1f       	adc	r31, r17
    2fda:	ee 0f       	add	r30, r30
    2fdc:	ff 1f       	adc	r31, r31
    2fde:	ee 0f       	add	r30, r30
    2fe0:	ff 1f       	adc	r31, r31
    2fe2:	e6 55       	subi	r30, 0x56	; 86
    2fe4:	fa 4f       	sbci	r31, 0xFA	; 250
    2fe6:	91 81       	ldd	r25, Z+1	; 0x01
    2fe8:	8a 81       	ldd	r24, Y+2	; 0x02
    2fea:	98 13       	cpse	r25, r24
    2fec:	45 c0       	rjmp	.+138    	; 0x3078 <cobrarPagementosAgendados+0x13e>
			datasVenc[i][2]==mesAtual[0] && datasVenc[i][3]==mesAtual[1] &&
    2fee:	f8 01       	movw	r30, r16
    2ff0:	ee 0f       	add	r30, r30
    2ff2:	ff 1f       	adc	r31, r31
    2ff4:	e0 0f       	add	r30, r16
    2ff6:	f1 1f       	adc	r31, r17
    2ff8:	ee 0f       	add	r30, r30
    2ffa:	ff 1f       	adc	r31, r31
    2ffc:	ee 0f       	add	r30, r30
    2ffe:	ff 1f       	adc	r31, r31
    3000:	e6 55       	subi	r30, 0x56	; 86
    3002:	fa 4f       	sbci	r31, 0xFA	; 250
    3004:	92 81       	ldd	r25, Z+2	; 0x02
    3006:	8b 81       	ldd	r24, Y+3	; 0x03
	//012345 67891011 
	//ddmmaa|ddmma a
	//comparar com primeira coluna de datasVenc 
	for(i=0;i<numPagsAgendados;i++){
		if(datasVenc[i][0] != PARCELAPAGA_OUPENDENTE) //verifica a primeira data
			if(datasVenc[i][0]==diaAtual[0] && datasVenc[i][1]==diaAtual[1] && 
    3008:	98 13       	cpse	r25, r24
    300a:	39 c0       	rjmp	.+114    	; 0x307e <cobrarPagementosAgendados+0x144>
			datasVenc[i][2]==mesAtual[0] && datasVenc[i][3]==mesAtual[1] &&
    300c:	f8 01       	movw	r30, r16
    300e:	ee 0f       	add	r30, r30
    3010:	ff 1f       	adc	r31, r31
    3012:	e0 0f       	add	r30, r16
    3014:	f1 1f       	adc	r31, r17
    3016:	ee 0f       	add	r30, r30
    3018:	ff 1f       	adc	r31, r31
    301a:	ee 0f       	add	r30, r30
    301c:	ff 1f       	adc	r31, r31
    301e:	e6 55       	subi	r30, 0x56	; 86
    3020:	fa 4f       	sbci	r31, 0xFA	; 250
    3022:	93 81       	ldd	r25, Z+3	; 0x03
    3024:	8c 81       	ldd	r24, Y+4	; 0x04
    3026:	98 13       	cpse	r25, r24
    3028:	2d c0       	rjmp	.+90     	; 0x3084 <cobrarPagementosAgendados+0x14a>
			datasVenc[i][4]==anoAtual[0] && datasVenc[i][5]==anoAtual[1]){ //se  o dia de cobrar
    302a:	f8 01       	movw	r30, r16
    302c:	ee 0f       	add	r30, r30
    302e:	ff 1f       	adc	r31, r31
    3030:	e0 0f       	add	r30, r16
    3032:	f1 1f       	adc	r31, r17
    3034:	ee 0f       	add	r30, r30
    3036:	ff 1f       	adc	r31, r31
    3038:	ee 0f       	add	r30, r30
    303a:	ff 1f       	adc	r31, r31
    303c:	e6 55       	subi	r30, 0x56	; 86
    303e:	fa 4f       	sbci	r31, 0xFA	; 250
    3040:	94 81       	ldd	r25, Z+4	; 0x04
    3042:	8d 81       	ldd	r24, Y+5	; 0x05
	//ddmmaa|ddmma a
	//comparar com primeira coluna de datasVenc 
	for(i=0;i<numPagsAgendados;i++){
		if(datasVenc[i][0] != PARCELAPAGA_OUPENDENTE) //verifica a primeira data
			if(datasVenc[i][0]==diaAtual[0] && datasVenc[i][1]==diaAtual[1] && 
			datasVenc[i][2]==mesAtual[0] && datasVenc[i][3]==mesAtual[1] &&
    3044:	98 13       	cpse	r25, r24
    3046:	21 c0       	rjmp	.+66     	; 0x308a <cobrarPagementosAgendados+0x150>
			datasVenc[i][4]==anoAtual[0] && datasVenc[i][5]==anoAtual[1]){ //se  o dia de cobrar
    3048:	f8 01       	movw	r30, r16
    304a:	ee 0f       	add	r30, r30
    304c:	ff 1f       	adc	r31, r31
    304e:	e0 0f       	add	r30, r16
    3050:	f1 1f       	adc	r31, r17
    3052:	ee 0f       	add	r30, r30
    3054:	ff 1f       	adc	r31, r31
    3056:	ee 0f       	add	r30, r30
    3058:	ff 1f       	adc	r31, r31
    305a:	e6 55       	subi	r30, 0x56	; 86
    305c:	fa 4f       	sbci	r31, 0xFA	; 250
    305e:	95 81       	ldd	r25, Z+5	; 0x05
    3060:	8e 81       	ldd	r24, Y+6	; 0x06
    3062:	98 17       	cp	r25, r24
    3064:	a9 f0       	breq	.+42     	; 0x3090 <cobrarPagementosAgendados+0x156>
    3066:	2f ef       	ldi	r18, 0xFF	; 255
    3068:	3f ef       	ldi	r19, 0xFF	; 255
    306a:	13 c0       	rjmp	.+38     	; 0x3092 <cobrarPagementosAgendados+0x158>
    306c:	2f ef       	ldi	r18, 0xFF	; 255
    306e:	3f ef       	ldi	r19, 0xFF	; 255
    3070:	10 c0       	rjmp	.+32     	; 0x3092 <cobrarPagementosAgendados+0x158>
    3072:	2f ef       	ldi	r18, 0xFF	; 255
    3074:	3f ef       	ldi	r19, 0xFF	; 255
    3076:	0d c0       	rjmp	.+26     	; 0x3092 <cobrarPagementosAgendados+0x158>
    3078:	2f ef       	ldi	r18, 0xFF	; 255
    307a:	3f ef       	ldi	r19, 0xFF	; 255
    307c:	0a c0       	rjmp	.+20     	; 0x3092 <cobrarPagementosAgendados+0x158>
    307e:	2f ef       	ldi	r18, 0xFF	; 255
    3080:	3f ef       	ldi	r19, 0xFF	; 255
    3082:	07 c0       	rjmp	.+14     	; 0x3092 <cobrarPagementosAgendados+0x158>
    3084:	2f ef       	ldi	r18, 0xFF	; 255
    3086:	3f ef       	ldi	r19, 0xFF	; 255
    3088:	04 c0       	rjmp	.+8      	; 0x3092 <cobrarPagementosAgendados+0x158>
    308a:	2f ef       	ldi	r18, 0xFF	; 255
    308c:	3f ef       	ldi	r19, 0xFF	; 255
    308e:	01 c0       	rjmp	.+2      	; 0x3092 <cobrarPagementosAgendados+0x158>
				cobrar = i;
    3090:	98 01       	movw	r18, r16
			
			}
		if(datasVenc[i][6] != SEMPARCELA) //verifica a segunda
    3092:	f8 01       	movw	r30, r16
    3094:	ee 0f       	add	r30, r30
    3096:	ff 1f       	adc	r31, r31
    3098:	e0 0f       	add	r30, r16
    309a:	f1 1f       	adc	r31, r17
    309c:	ee 0f       	add	r30, r30
    309e:	ff 1f       	adc	r31, r31
    30a0:	ee 0f       	add	r30, r30
    30a2:	ff 1f       	adc	r31, r31
    30a4:	e6 55       	subi	r30, 0x56	; 86
    30a6:	fa 4f       	sbci	r31, 0xFA	; 250
    30a8:	96 81       	ldd	r25, Z+6	; 0x06
    30aa:	99 30       	cpi	r25, 0x09	; 9
    30ac:	09 f4       	brne	.+2      	; 0x30b0 <cobrarPagementosAgendados+0x176>
    30ae:	4f c0       	rjmp	.+158    	; 0x314e <cobrarPagementosAgendados+0x214>
			if(datasVenc[i][6]==diaAtual[0] && datasVenc[i][7]==diaAtual[1] &&
    30b0:	89 81       	ldd	r24, Y+1	; 0x01
    30b2:	98 13       	cpse	r25, r24
    30b4:	4c c0       	rjmp	.+152    	; 0x314e <cobrarPagementosAgendados+0x214>
    30b6:	f8 01       	movw	r30, r16
    30b8:	ee 0f       	add	r30, r30
    30ba:	ff 1f       	adc	r31, r31
    30bc:	e0 0f       	add	r30, r16
    30be:	f1 1f       	adc	r31, r17
    30c0:	ee 0f       	add	r30, r30
    30c2:	ff 1f       	adc	r31, r31
    30c4:	ee 0f       	add	r30, r30
    30c6:	ff 1f       	adc	r31, r31
    30c8:	e6 55       	subi	r30, 0x56	; 86
    30ca:	fa 4f       	sbci	r31, 0xFA	; 250
    30cc:	97 81       	ldd	r25, Z+7	; 0x07
    30ce:	8a 81       	ldd	r24, Y+2	; 0x02
    30d0:	98 13       	cpse	r25, r24
    30d2:	3d c0       	rjmp	.+122    	; 0x314e <cobrarPagementosAgendados+0x214>
			datasVenc[i][8]==mesAtual[0] && datasVenc[i][9]==mesAtual[1] &&
    30d4:	f8 01       	movw	r30, r16
    30d6:	ee 0f       	add	r30, r30
    30d8:	ff 1f       	adc	r31, r31
    30da:	e0 0f       	add	r30, r16
    30dc:	f1 1f       	adc	r31, r17
    30de:	ee 0f       	add	r30, r30
    30e0:	ff 1f       	adc	r31, r31
    30e2:	ee 0f       	add	r30, r30
    30e4:	ff 1f       	adc	r31, r31
    30e6:	e6 55       	subi	r30, 0x56	; 86
    30e8:	fa 4f       	sbci	r31, 0xFA	; 250
    30ea:	90 85       	ldd	r25, Z+8	; 0x08
    30ec:	8b 81       	ldd	r24, Y+3	; 0x03
			datasVenc[i][4]==anoAtual[0] && datasVenc[i][5]==anoAtual[1]){ //se  o dia de cobrar
				cobrar = i;
			
			}
		if(datasVenc[i][6] != SEMPARCELA) //verifica a segunda
			if(datasVenc[i][6]==diaAtual[0] && datasVenc[i][7]==diaAtual[1] &&
    30ee:	98 13       	cpse	r25, r24
    30f0:	2e c0       	rjmp	.+92     	; 0x314e <cobrarPagementosAgendados+0x214>
			datasVenc[i][8]==mesAtual[0] && datasVenc[i][9]==mesAtual[1] &&
    30f2:	f8 01       	movw	r30, r16
    30f4:	ee 0f       	add	r30, r30
    30f6:	ff 1f       	adc	r31, r31
    30f8:	e0 0f       	add	r30, r16
    30fa:	f1 1f       	adc	r31, r17
    30fc:	ee 0f       	add	r30, r30
    30fe:	ff 1f       	adc	r31, r31
    3100:	ee 0f       	add	r30, r30
    3102:	ff 1f       	adc	r31, r31
    3104:	e6 55       	subi	r30, 0x56	; 86
    3106:	fa 4f       	sbci	r31, 0xFA	; 250
    3108:	91 85       	ldd	r25, Z+9	; 0x09
    310a:	8c 81       	ldd	r24, Y+4	; 0x04
    310c:	98 13       	cpse	r25, r24
    310e:	1f c0       	rjmp	.+62     	; 0x314e <cobrarPagementosAgendados+0x214>
			datasVenc[i][10]==anoAtual[0] && datasVenc[i][11]==anoAtual[1]){
    3110:	f8 01       	movw	r30, r16
    3112:	ee 0f       	add	r30, r30
    3114:	ff 1f       	adc	r31, r31
    3116:	e0 0f       	add	r30, r16
    3118:	f1 1f       	adc	r31, r17
    311a:	ee 0f       	add	r30, r30
    311c:	ff 1f       	adc	r31, r31
    311e:	ee 0f       	add	r30, r30
    3120:	ff 1f       	adc	r31, r31
    3122:	e6 55       	subi	r30, 0x56	; 86
    3124:	fa 4f       	sbci	r31, 0xFA	; 250
    3126:	92 85       	ldd	r25, Z+10	; 0x0a
    3128:	8d 81       	ldd	r24, Y+5	; 0x05
				cobrar = i;
			
			}
		if(datasVenc[i][6] != SEMPARCELA) //verifica a segunda
			if(datasVenc[i][6]==diaAtual[0] && datasVenc[i][7]==diaAtual[1] &&
			datasVenc[i][8]==mesAtual[0] && datasVenc[i][9]==mesAtual[1] &&
    312a:	98 13       	cpse	r25, r24
    312c:	10 c0       	rjmp	.+32     	; 0x314e <cobrarPagementosAgendados+0x214>
			datasVenc[i][10]==anoAtual[0] && datasVenc[i][11]==anoAtual[1]){
    312e:	f8 01       	movw	r30, r16
    3130:	ee 0f       	add	r30, r30
    3132:	ff 1f       	adc	r31, r31
    3134:	e0 0f       	add	r30, r16
    3136:	f1 1f       	adc	r31, r17
    3138:	ee 0f       	add	r30, r30
    313a:	ff 1f       	adc	r31, r31
    313c:	ee 0f       	add	r30, r30
    313e:	ff 1f       	adc	r31, r31
    3140:	e6 55       	subi	r30, 0x56	; 86
    3142:	fa 4f       	sbci	r31, 0xFA	; 250
    3144:	93 85       	ldd	r25, Z+11	; 0x0b
    3146:	8e 81       	ldd	r24, Y+6	; 0x06
    3148:	98 13       	cpse	r25, r24
    314a:	01 c0       	rjmp	.+2      	; 0x314e <cobrarPagementosAgendados+0x214>
				cobrar = i;	
    314c:	98 01       	movw	r18, r16
			}
			
			if(cobrar){
    314e:	21 15       	cp	r18, r1
    3150:	31 05       	cpc	r19, r1
    3152:	19 f0       	breq	.+6      	; 0x315a <cobrarPagementosAgendados+0x220>
				enviarPedidoDePagamento(cobrar);
    3154:	c9 01       	movw	r24, r18
    3156:	0e 94 33 17 	call	0x2e66	; 0x2e66 <enviarPedidoDePagamento>
		anoAtual[i]=stringDATA[i+6]-48;
	}
	//012345 67891011 
	//ddmmaa|ddmma a
	//comparar com primeira coluna de datasVenc 
	for(i=0;i<numPagsAgendados;i++){
    315a:	0f 5f       	subi	r16, 0xFF	; 255
    315c:	1f 4f       	sbci	r17, 0xFF	; 255
    315e:	80 91 a8 05 	lds	r24, 0x05A8	; 0x8005a8 <__data_end>
    3162:	90 91 a9 05 	lds	r25, 0x05A9	; 0x8005a9 <__data_end+0x1>
    3166:	08 17       	cp	r16, r24
    3168:	19 07       	cpc	r17, r25
    316a:	0c f4       	brge	.+2      	; 0x316e <cobrarPagementosAgendados+0x234>
    316c:	1f cf       	rjmp	.-450    	; 0x2fac <cobrarPagementosAgendados+0x72>
				enviarPedidoDePagamento(cobrar);
				cobrar = -1;
			}
		cobrar = -1;
		}
}
    316e:	26 96       	adiw	r28, 0x06	; 6
    3170:	0f b6       	in	r0, 0x3f	; 63
    3172:	f8 94       	cli
    3174:	de bf       	out	0x3e, r29	; 62
    3176:	0f be       	out	0x3f, r0	; 63
    3178:	cd bf       	out	0x3d, r28	; 61
    317a:	df 91       	pop	r29
    317c:	cf 91       	pop	r28
    317e:	1f 91       	pop	r17
    3180:	0f 91       	pop	r16
    3182:	08 95       	ret

00003184 <__vector_11>:
//////////////////////////////////////////////////////////////////////////
						//INTERUPES//
//////////////////////////////////////////////////////////////////////////


ISR(TIMER1_COMPA_vect){									// interrupo cada 1 segundo
    3184:	1f 92       	push	r1
    3186:	0f 92       	push	r0
    3188:	0f b6       	in	r0, 0x3f	; 63
    318a:	0f 92       	push	r0
    318c:	11 24       	eor	r1, r1
    318e:	2f 93       	push	r18
    3190:	3f 93       	push	r19
    3192:	4f 93       	push	r20
    3194:	5f 93       	push	r21
    3196:	6f 93       	push	r22
    3198:	7f 93       	push	r23
    319a:	8f 93       	push	r24
    319c:	9f 93       	push	r25
    319e:	af 93       	push	r26
    31a0:	bf 93       	push	r27
    31a2:	ef 93       	push	r30
    31a4:	ff 93       	push	r31
	updateDate();
    31a6:	0e 94 aa 01 	call	0x354	; 0x354 <updateDate>
	
	if(flagRELOGIO)
    31aa:	80 91 92 06 	lds	r24, 0x0692	; 0x800692 <flagRELOGIO>
    31ae:	81 11       	cpse	r24, r1
		tela_dataAtual();
    31b0:	0e 94 08 0c 	call	0x1810	; 0x1810 <tela_dataAtual>
	
	contSerial = verificaSerial(contSerial);
    31b4:	80 91 94 06 	lds	r24, 0x0694	; 0x800694 <contSerial>
    31b8:	90 e0       	ldi	r25, 0x00	; 0
    31ba:	0e 94 c9 05 	call	0xb92	; 0xb92 <verificaSerial>
    31be:	80 93 94 06 	sts	0x0694, r24	; 0x800694 <contSerial>

	if(contSerial==TEMPO_COMUNICACAO){					// segundos para aguardar comunicao cm serial
    31c2:	88 37       	cpi	r24, 0x78	; 120
    31c4:	31 f4       	brne	.+12     	; 0x31d2 <__vector_11+0x4e>
		contSerial = 0;
    31c6:	10 92 94 06 	sts	0x0694, r1	; 0x800694 <contSerial>
		PORTC ^= (1 << PORTC4);
    31ca:	98 b1       	in	r25, 0x08	; 8
    31cc:	80 e1       	ldi	r24, 0x10	; 16
    31ce:	89 27       	eor	r24, r25
    31d0:	88 b9       	out	0x08, r24	; 8
	}
	
	if(com_ext != 0){
    31d2:	80 91 93 06 	lds	r24, 0x0693	; 0x800693 <com_ext>
    31d6:	88 23       	and	r24, r24
    31d8:	19 f0       	breq	.+6      	; 0x31e0 <__vector_11+0x5c>
		com_ext++;
    31da:	8f 5f       	subi	r24, 0xFF	; 255
    31dc:	80 93 93 06 	sts	0x0693, r24	; 0x800693 <com_ext>
	}

	if (teclaG == KEY_CONFIRMA)
    31e0:	80 91 57 01 	lds	r24, 0x0157	; 0x800157 <teclaG>
    31e4:	8b 30       	cpi	r24, 0x0B	; 11
    31e6:	31 f4       	brne	.+12     	; 0x31f4 <__vector_11+0x70>
		contTelaOn++;
    31e8:	90 91 97 06 	lds	r25, 0x0697	; 0x800697 <contTelaOn>
    31ec:	9f 5f       	subi	r25, 0xFF	; 255
    31ee:	90 93 97 06 	sts	0x0697, r25	; 0x800697 <contTelaOn>
    31f2:	02 c0       	rjmp	.+4      	; 0x31f8 <__vector_11+0x74>
	else
		contTelaOn = 0;
    31f4:	10 92 97 06 	sts	0x0697, r1	; 0x800697 <contTelaOn>
	
	if (teclaG == KEY_APAGAR)
    31f8:	89 30       	cpi	r24, 0x09	; 9
    31fa:	31 f4       	brne	.+12     	; 0x3208 <__vector_11+0x84>
		contTelaOff++;
    31fc:	80 91 96 06 	lds	r24, 0x0696	; 0x800696 <contTelaOff>
    3200:	8f 5f       	subi	r24, 0xFF	; 255
    3202:	80 93 96 06 	sts	0x0696, r24	; 0x800696 <contTelaOff>
    3206:	02 c0       	rjmp	.+4      	; 0x320c <__vector_11+0x88>
	else
		contTelaOff = 0;
    3208:	10 92 96 06 	sts	0x0696, r1	; 0x800696 <contTelaOff>
	
	if(contTelaOn == 3 && telaOnOff==0){ // se for # por 3 segundos e tiver desligada -> liga tela
    320c:	80 91 97 06 	lds	r24, 0x0697	; 0x800697 <contTelaOn>
    3210:	83 30       	cpi	r24, 0x03	; 3
    3212:	61 f4       	brne	.+24     	; 0x322c <__vector_11+0xa8>
    3214:	80 91 95 06 	lds	r24, 0x0695	; 0x800695 <telaOnOff>
    3218:	81 11       	cpse	r24, r1
    321a:	08 c0       	rjmp	.+16     	; 0x322c <__vector_11+0xa8>
		writeInstruction(lcd_DisplayOn);
    321c:	8c e0       	ldi	r24, 0x0C	; 12
    321e:	0e 94 43 06 	call	0xc86	; 0xc86 <writeInstruction>
		contTelaOn = 0;
    3222:	10 92 97 06 	sts	0x0697, r1	; 0x800697 <contTelaOn>
		telaOnOff = 1;
    3226:	81 e0       	ldi	r24, 0x01	; 1
    3228:	80 93 95 06 	sts	0x0695, r24	; 0x800695 <telaOnOff>
		
	}
	if (contTelaOff == 4 && telaOnOff==1){ //se * por 4 segs e tiver ligada -> desliga
    322c:	80 91 96 06 	lds	r24, 0x0696	; 0x800696 <contTelaOff>
    3230:	84 30       	cpi	r24, 0x04	; 4
    3232:	59 f4       	brne	.+22     	; 0x324a <__vector_11+0xc6>
    3234:	80 91 95 06 	lds	r24, 0x0695	; 0x800695 <telaOnOff>
    3238:	81 30       	cpi	r24, 0x01	; 1
    323a:	39 f4       	brne	.+14     	; 0x324a <__vector_11+0xc6>
		writeInstruction(lcd_DisplayOff);
    323c:	88 e0       	ldi	r24, 0x08	; 8
    323e:	0e 94 43 06 	call	0xc86	; 0xc86 <writeInstruction>
		contTelaOff = 0;
    3242:	10 92 96 06 	sts	0x0696, r1	; 0x800696 <contTelaOff>
		telaOnOff = 0;
    3246:	10 92 95 06 	sts	0x0695, r1	; 0x800695 <telaOnOff>
	}
					
	
	if((horas == 12 || horas == 18 || horas == 22) && minutos==0 && segundos < 3) {
    324a:	80 91 9a 06 	lds	r24, 0x069A	; 0x80069a <horas>
    324e:	8c 30       	cpi	r24, 0x0C	; 12
    3250:	21 f0       	breq	.+8      	; 0x325a <__vector_11+0xd6>
    3252:	82 31       	cpi	r24, 0x12	; 18
    3254:	11 f0       	breq	.+4      	; 0x325a <__vector_11+0xd6>
    3256:	86 31       	cpi	r24, 0x16	; 22
    3258:	51 f4       	brne	.+20     	; 0x326e <__vector_11+0xea>
    325a:	80 91 99 06 	lds	r24, 0x0699	; 0x800699 <minutos>
    325e:	81 11       	cpse	r24, r1
    3260:	06 c0       	rjmp	.+12     	; 0x326e <__vector_11+0xea>
    3262:	80 91 98 06 	lds	r24, 0x0698	; 0x800698 <segundos>
    3266:	83 30       	cpi	r24, 0x03	; 3
    3268:	10 f4       	brcc	.+4      	; 0x326e <__vector_11+0xea>
		cobrarPagementosAgendados();
    326a:	0e 94 9d 17 	call	0x2f3a	; 0x2f3a <cobrarPagementosAgendados>
	}
	
	if(existePendencia()){
    326e:	0e 94 a9 14 	call	0x2952	; 0x2952 <existePendencia>
    3272:	88 23       	and	r24, r24
    3274:	29 f0       	breq	.+10     	; 0x3280 <__vector_11+0xfc>
		PORTC ^= (1<<5);
    3276:	98 b1       	in	r25, 0x08	; 8
    3278:	80 e2       	ldi	r24, 0x20	; 32
    327a:	89 27       	eor	r24, r25
    327c:	88 b9       	out	0x08, r24	; 8
    327e:	03 c0       	rjmp	.+6      	; 0x3286 <__vector_11+0x102>
	}else{
		PORTC &= ~(1<<5);
    3280:	88 b1       	in	r24, 0x08	; 8
    3282:	8f 7d       	andi	r24, 0xDF	; 223
    3284:	88 b9       	out	0x08, r24	; 8
		}
}
    3286:	ff 91       	pop	r31
    3288:	ef 91       	pop	r30
    328a:	bf 91       	pop	r27
    328c:	af 91       	pop	r26
    328e:	9f 91       	pop	r25
    3290:	8f 91       	pop	r24
    3292:	7f 91       	pop	r23
    3294:	6f 91       	pop	r22
    3296:	5f 91       	pop	r21
    3298:	4f 91       	pop	r20
    329a:	3f 91       	pop	r19
    329c:	2f 91       	pop	r18
    329e:	0f 90       	pop	r0
    32a0:	0f be       	out	0x3f, r0	; 63
    32a2:	0f 90       	pop	r0
    32a4:	1f 90       	pop	r1
    32a6:	18 95       	reti

000032a8 <setTimer1_UmSeg>:

void setTimer1_UmSeg(){
	// 16 MHz -> 1 instruo = 62.5ns
	// Pre scaler de 256 -> 62500Hz logo 62500 contagens para 1 seg
	
	TCCR1A = 4; //modo comparao
    32a8:	84 e0       	ldi	r24, 0x04	; 4
    32aa:	80 93 80 00 	sts	0x0080, r24	; 0x800080 <__TEXT_REGION_LENGTH__+0x7f8080>
	TCCR1B = 0x4; //pre scaler de 256
    32ae:	80 93 81 00 	sts	0x0081, r24	; 0x800081 <__TEXT_REGION_LENGTH__+0x7f8081>
	TCNT1 = 0;  //contagem comea do zero
    32b2:	10 92 85 00 	sts	0x0085, r1	; 0x800085 <__TEXT_REGION_LENGTH__+0x7f8085>
    32b6:	10 92 84 00 	sts	0x0084, r1	; 0x800084 <__TEXT_REGION_LENGTH__+0x7f8084>
	OCR1A = 62500; //at onde tem q contar
    32ba:	84 e2       	ldi	r24, 0x24	; 36
    32bc:	94 ef       	ldi	r25, 0xF4	; 244
    32be:	90 93 89 00 	sts	0x0089, r25	; 0x800089 <__TEXT_REGION_LENGTH__+0x7f8089>
    32c2:	80 93 88 00 	sts	0x0088, r24	; 0x800088 <__TEXT_REGION_LENGTH__+0x7f8088>
	TIMSK1 |= (1<<OCIE1A); //habilita interrupo por comparao em 
    32c6:	ef e6       	ldi	r30, 0x6F	; 111
    32c8:	f0 e0       	ldi	r31, 0x00	; 0
    32ca:	80 81       	ld	r24, Z
    32cc:	82 60       	ori	r24, 0x02	; 2
    32ce:	80 83       	st	Z, r24
	sei(); // talvez colocar no mais ??
    32d0:	78 94       	sei
    32d2:	08 95       	ret

000032d4 <main>:
}

int main(){
    32d4:	cf 93       	push	r28
    32d6:	df 93       	push	r29
    32d8:	cd b7       	in	r28, 0x3d	; 61
    32da:	de b7       	in	r29, 0x3e	; 62
    32dc:	2c 97       	sbiw	r28, 0x0c	; 12
    32de:	0f b6       	in	r0, 0x3f	; 63
    32e0:	f8 94       	cli
    32e2:	de bf       	out	0x3e, r29	; 62
    32e4:	0f be       	out	0x3f, r0	; 63
    32e6:	cd bf       	out	0x3d, r28	; 61
	
	anoZero();							// inicia o relogio
    32e8:	0e 94 6b 00 	call	0xd6	; 0xd6 <anoZero>
	USART_INIT(UBRR);					// inicia serial
    32ec:	83 e3       	ldi	r24, 0x33	; 51
    32ee:	90 e0       	ldi	r25, 0x00	; 0
    32f0:	0e 94 b7 05 	call	0xb6e	; 0xb6e <USART_INIT>
	setup_lcd();						// inicia lcd
    32f4:	0e 94 af 06 	call	0xd5e	; 0xd5e <setup_lcd>
	setupBotoes();						// inicia teclado
	setTimer1_UmSeg();					
    32f8:	0e 94 54 19 	call	0x32a8	; 0x32a8 <setTimer1_UmSeg>

// 	writeInstruction(lcd_DisplayOff);
// 	while(telaOnOff==0)
// 		teclaG = teclaDebouce();

	writeInstruction(lcd_DisplayOn);
    32fc:	8c e0       	ldi	r24, 0x0C	; 12
    32fe:	0e 94 43 06 	call	0xc86	; 0xc86 <writeInstruction>
	tela_bloqueio_inicial(); //comenta se quiser testar mais rapido
    3302:	0e 94 62 07 	call	0xec4	; 0xec4 <tela_bloqueio_inicial>
	
	
	// inserindo cartes pra teste
	char cartao_teste[] = {8+48,0+48,0+48,0+48,0+48,0+48};
    3306:	86 e0       	ldi	r24, 0x06	; 6
    3308:	ef e6       	ldi	r30, 0x6F	; 111
    330a:	f1 e0       	ldi	r31, 0x01	; 1
    330c:	de 01       	movw	r26, r28
    330e:	11 96       	adiw	r26, 0x01	; 1
    3310:	01 90       	ld	r0, Z+
    3312:	0d 92       	st	X+, r0
    3314:	8a 95       	dec	r24
    3316:	e1 f7       	brne	.-8      	; 0x3310 <main+0x3c>
	char cartao_teste_2[] = {0+48,0+48,2+48,0+48,0+48,0+48};
    3318:	86 e0       	ldi	r24, 0x06	; 6
    331a:	e5 e7       	ldi	r30, 0x75	; 117
    331c:	f1 e0       	ldi	r31, 0x01	; 1
    331e:	de 01       	movw	r26, r28
    3320:	17 96       	adiw	r26, 0x07	; 7
    3322:	01 90       	ld	r0, Z+
    3324:	0d 92       	st	X+, r0
    3326:	8a 95       	dec	r24
    3328:	e1 f7       	brne	.-8      	; 0x3322 <main+0x4e>
	addCartao("123456","123456",cartao_teste);	// inserindo carto pra teste 80000 (800,00)
    332a:	ae 01       	movw	r20, r28
    332c:	4f 5f       	subi	r20, 0xFF	; 255
    332e:	5f 4f       	sbci	r21, 0xFF	; 255
    3330:	63 e9       	ldi	r22, 0x93	; 147
    3332:	75 e0       	ldi	r23, 0x05	; 5
    3334:	cb 01       	movw	r24, r22
    3336:	0e 94 fa 02 	call	0x5f4	; 0x5f4 <addCartao>
	addCartao("000001","111111",cartao_teste_2);	// inserindo carto pra teste 00200	(2,00)
    333a:	ae 01       	movw	r20, r28
    333c:	49 5f       	subi	r20, 0xF9	; 249
    333e:	5f 4f       	sbci	r21, 0xFF	; 255
    3340:	6a e9       	ldi	r22, 0x9A	; 154
    3342:	75 e0       	ldi	r23, 0x05	; 5
    3344:	81 ea       	ldi	r24, 0xA1	; 161
    3346:	95 e0       	ldi	r25, 0x05	; 5
    3348:	0e 94 fa 02 	call	0x5f4	; 0x5f4 <addCartao>
	anoZero();							// inicia o relogio
	USART_INIT(UBRR);					// inicia serial
	setup_lcd();						// inicia lcd
	setupBotoes();						// inicia teclado
	setTimer1_UmSeg();					
	char loop1 = 1; //para ele agir diferente no 1 loop
    334c:	01 e0       	ldi	r16, 0x01	; 1
//	testa_pendencia();
	while(1){
		//writeInstruction(lcd_DisplayOn); // comentar quando colocar a rotina de ligar a tela
		
		
		if(loop1){
    334e:	00 23       	and	r16, r16
    3350:	41 f0       	breq	.+16     	; 0x3362 <main+0x8e>
			userIndex = login(&teclaG); //o que faz tudo com relao a senha inicial, retorna quem entrou (0 adm, 1 e 2 operadores 1 e 2)
    3352:	87 e5       	ldi	r24, 0x57	; 87
    3354:	91 e0       	ldi	r25, 0x01	; 1
    3356:	0e 94 12 08 	call	0x1024	; 0x1024 <login>
    335a:	80 93 56 01 	sts	0x0156, r24	; 0x800156 <userIndex>
			loop1 = 0;
    335e:	00 e0       	ldi	r16, 0x00	; 0
    3360:	0c c0       	rjmp	.+24     	; 0x337a <main+0xa6>
		}else{
			continuar = continuar_modo_atual(&teclaG);
    3362:	87 e5       	ldi	r24, 0x57	; 87
    3364:	91 e0       	ldi	r25, 0x01	; 1
    3366:	0e 94 9f 0a 	call	0x153e	; 0x153e <continuar_modo_atual>
			if(!continuar)
    336a:	81 11       	cpse	r24, r1
    336c:	06 c0       	rjmp	.+12     	; 0x337a <main+0xa6>
				userIndex = login(&teclaG); //pode mudar o modo adm <-> oper
    336e:	87 e5       	ldi	r24, 0x57	; 87
    3370:	91 e0       	ldi	r25, 0x01	; 1
    3372:	0e 94 12 08 	call	0x1024	; 0x1024 <login>
    3376:	80 93 56 01 	sts	0x0156, r24	; 0x800156 <userIndex>
		}
		
		teclaG = TECLA_INVALIDA;
    337a:	89 e1       	ldi	r24, 0x19	; 25
    337c:	80 93 57 01 	sts	0x0157, r24	; 0x800157 <teclaG>
		if(userIndex != 0){
    3380:	10 91 56 01 	lds	r17, 0x0156	; 0x800156 <userIndex>
    3384:	11 23       	and	r17, r17
    3386:	e1 f0       	breq	.+56     	; 0x33c0 <main+0xec>
			if(getOperStatus(userIndex))
    3388:	81 2f       	mov	r24, r17
    338a:	0e 94 f5 0f 	call	0x1fea	; 0x1fea <getOperStatus>
    338e:	88 23       	and	r24, r24
    3390:	a1 f0       	breq	.+40     	; 0x33ba <main+0xe6>
				while(1){
					writeInstruction(lcd_Home | lcd_Clear);
    3392:	83 e0       	ldi	r24, 0x03	; 3
    3394:	0e 94 43 06 	call	0xc86	; 0xc86 <writeInstruction>
					menu_vendas();
    3398:	0e 94 50 07 	call	0xea0	; 0xea0 <menu_vendas>
					while(teclaG+49 > 51){
    339c:	04 c0       	rjmp	.+8      	; 0x33a6 <main+0xd2>
						teclaG = teclaDebouce();
    339e:	0e 94 76 05 	call	0xaec	; 0xaec <teclaDebouce>
    33a2:	80 93 57 01 	sts	0x0157, r24	; 0x800157 <teclaG>
		if(userIndex != 0){
			if(getOperStatus(userIndex))
				while(1){
					writeInstruction(lcd_Home | lcd_Clear);
					menu_vendas();
					while(teclaG+49 > 51){
    33a6:	80 91 57 01 	lds	r24, 0x0157	; 0x800157 <teclaG>
    33aa:	90 e0       	ldi	r25, 0x00	; 0
    33ac:	c1 96       	adiw	r24, 0x31	; 49
    33ae:	84 33       	cpi	r24, 0x34	; 52
    33b0:	91 05       	cpc	r25, r1
    33b2:	ac f7       	brge	.-22     	; 0x339e <main+0xca>
						teclaG = teclaDebouce();
					}
					processa_venda(teclaG+49);	// para testar carto por aprox coloca CW + 6dig docartao + 6 dig da senha no serial
    33b4:	0e 94 6c 13 	call	0x26d8	; 0x26d8 <processa_venda>
    33b8:	03 c0       	rjmp	.+6      	; 0x33c0 <main+0xec>
					break;
				}
			else{
				tela_operadorDesabilitado(userIndex);
    33ba:	81 2f       	mov	r24, r17
    33bc:	0e 94 44 0b 	call	0x1688	; 0x1688 <tela_operadorDesabilitado>
				}
		}
		
		if(userIndex == 0){
    33c0:	80 91 56 01 	lds	r24, 0x0156	; 0x800156 <userIndex>
    33c4:	81 11       	cpse	r24, r1
    33c6:	c3 cf       	rjmp	.-122    	; 0x334e <main+0x7a>
			menuADM();
    33c8:	0e 94 40 0a 	call	0x1480	; 0x1480 <menuADM>
			teclaG = TECLA_INVALIDA;
    33cc:	89 e1       	ldi	r24, 0x19	; 25
    33ce:	80 93 57 01 	sts	0x0157, r24	; 0x800157 <teclaG>
			while(teclaG == TECLA_INVALIDA){
    33d2:	04 c0       	rjmp	.+8      	; 0x33dc <main+0x108>
				teclaG = teclaDebouce();
    33d4:	0e 94 76 05 	call	0xaec	; 0xaec <teclaDebouce>
    33d8:	80 93 57 01 	sts	0x0157, r24	; 0x800157 <teclaG>
		}
		
		if(userIndex == 0){
			menuADM();
			teclaG = TECLA_INVALIDA;
			while(teclaG == TECLA_INVALIDA){
    33dc:	80 91 57 01 	lds	r24, 0x0157	; 0x800157 <teclaG>
    33e0:	89 31       	cpi	r24, 0x19	; 25
    33e2:	c1 f3       	breq	.-16     	; 0x33d4 <main+0x100>
				teclaG = teclaDebouce();
			}
			modoADM(&teclaG);
    33e4:	87 e5       	ldi	r24, 0x57	; 87
    33e6:	91 e0       	ldi	r25, 0x01	; 1
    33e8:	0e 94 ff 15 	call	0x2bfe	; 0x2bfe <modoADM>
    33ec:	b0 cf       	rjmp	.-160    	; 0x334e <main+0x7a>

000033ee <__divmodhi4>:
    33ee:	97 fb       	bst	r25, 7
    33f0:	07 2e       	mov	r0, r23
    33f2:	16 f4       	brtc	.+4      	; 0x33f8 <__divmodhi4+0xa>
    33f4:	00 94       	com	r0
    33f6:	07 d0       	rcall	.+14     	; 0x3406 <__divmodhi4_neg1>
    33f8:	77 fd       	sbrc	r23, 7
    33fa:	09 d0       	rcall	.+18     	; 0x340e <__divmodhi4_neg2>
    33fc:	0e 94 11 1a 	call	0x3422	; 0x3422 <__udivmodhi4>
    3400:	07 fc       	sbrc	r0, 7
    3402:	05 d0       	rcall	.+10     	; 0x340e <__divmodhi4_neg2>
    3404:	3e f4       	brtc	.+14     	; 0x3414 <__divmodhi4_exit>

00003406 <__divmodhi4_neg1>:
    3406:	90 95       	com	r25
    3408:	81 95       	neg	r24
    340a:	9f 4f       	sbci	r25, 0xFF	; 255
    340c:	08 95       	ret

0000340e <__divmodhi4_neg2>:
    340e:	70 95       	com	r23
    3410:	61 95       	neg	r22
    3412:	7f 4f       	sbci	r23, 0xFF	; 255

00003414 <__divmodhi4_exit>:
    3414:	08 95       	ret

00003416 <__tablejump2__>:
    3416:	ee 0f       	add	r30, r30
    3418:	ff 1f       	adc	r31, r31
    341a:	05 90       	lpm	r0, Z+
    341c:	f4 91       	lpm	r31, Z
    341e:	e0 2d       	mov	r30, r0
    3420:	09 94       	ijmp

00003422 <__udivmodhi4>:
    3422:	aa 1b       	sub	r26, r26
    3424:	bb 1b       	sub	r27, r27
    3426:	51 e1       	ldi	r21, 0x11	; 17
    3428:	07 c0       	rjmp	.+14     	; 0x3438 <__udivmodhi4_ep>

0000342a <__udivmodhi4_loop>:
    342a:	aa 1f       	adc	r26, r26
    342c:	bb 1f       	adc	r27, r27
    342e:	a6 17       	cp	r26, r22
    3430:	b7 07       	cpc	r27, r23
    3432:	10 f0       	brcs	.+4      	; 0x3438 <__udivmodhi4_ep>
    3434:	a6 1b       	sub	r26, r22
    3436:	b7 0b       	sbc	r27, r23

00003438 <__udivmodhi4_ep>:
    3438:	88 1f       	adc	r24, r24
    343a:	99 1f       	adc	r25, r25
    343c:	5a 95       	dec	r21
    343e:	a9 f7       	brne	.-22     	; 0x342a <__udivmodhi4_loop>
    3440:	80 95       	com	r24
    3442:	90 95       	com	r25
    3444:	bc 01       	movw	r22, r24
    3446:	cd 01       	movw	r24, r26
    3448:	08 95       	ret

0000344a <_exit>:
    344a:	f8 94       	cli

0000344c <__stop_program>:
    344c:	ff cf       	rjmp	.-2      	; 0x344c <__stop_program>
